
tttest32.elf:     file format elf32-littlearm
tttest32.elf

SYMBOL TABLE:
00000000 l    d  .text	00000000 .text
00003630 l    d  .fini	00000000 .fini
1fff8000 l    d  .usbdescriptortable	00000000 .usbdescriptortable
1fff8200 l    d  .dmabuffers	00000000 .dmabuffers
1fff83bc l    d  .usbbuffers	00000000 .usbbuffers
1fff8720 l    d  .data	00000000 .data
1fff90c4 l    d  .bss	00000000 .bss
00000000 l    d  .ARM.attributes	00000000 .ARM.attributes
00000000 l    d  .comment	00000000 .comment
00000000 l    d  .debug_info	00000000 .debug_info
00000000 l    d  .debug_abbrev	00000000 .debug_abbrev
00000000 l    d  .debug_loc	00000000 .debug_loc
00000000 l    d  .debug_aranges	00000000 .debug_aranges
00000000 l    d  .debug_ranges	00000000 .debug_ranges
00000000 l    d  .debug_line	00000000 .debug_line
00000000 l    d  .debug_str	00000000 .debug_str
00000000 l    d  .debug_frame	00000000 .debug_frame
00000000 l    df *ABS*	00000000 mk20dx128.c
00001054 l     F .text	0000000c startup_default_early_hook
00001060 l     F .text	00000002 startup_default_late_hook
00000000 l    df *ABS*	00000000 crtstuff.c
00000410 l     F .text	00000000 __do_global_dtors_aux
1fff90c4 l       .bss	00000000 completed.8603
00000434 l     F .text	00000000 frame_dummy
1fff90c8 l       .bss	00000000 object.8608
0000361c l     O .text	00000000 __frame_dummy_init_array_entry
00000000 l    df *ABS*	00000000 main.cpp
0000046c l     F .text	0000000c std::_Function_handler<void (), setup::{lambda()#1}>::_M_invoke(std::_Any_data const&)
00000478 l     F .text	0000000a std::_Function_base::_Base_manager<setup::{lambda()#1}>::_M_manager(std::_Any_data&, std::_Function_base::_Base_manager<setup::{lambda()#1}> const&, std::_Manager_operation)
0000055c l     F .text	00000040 _GLOBAL__sub_I_t1
1fff90f0 l     O .bss	00000010 TeensyTimerTool::timerPool
00000000 l    df *ABS*	00000000 config.cpp
000006f4 l     F .text	00000020 __tcf_0
00000714 l     F .text	0000002c __tcf_1
00000740 l     F .text	0000002c __tcf_2
00000df0 l     F .text	000000a0 _GLOBAL__sub_I__ZN15TeensyTimerTool3TCKE
00000000 l    df *ABS*	00000000 baseTimer.cpp
00000000 l    df *ABS*	00000000 error_handler.cpp
00000ed8 l     F .text	00000020 _GLOBAL__sub_I__ZN15TeensyTimerTool12ErrorHandlerC2ER6Stream
00000000 l    df *ABS*	00000000 TCK.cpp
00000f30 l     F .text	0000005c TeensyTimerTool::initYieldHook()::{lambda(EventResponder&)#1}::_FUN(EventResponder&)
00000fec l     F .text	00000018 _GLOBAL__sub_I__ZN15TeensyTimerTool5TCK_t13isInitializedE
1fff87b4 l     O .data	00000020 TeensyTimerTool::er
00000000 l    df *ABS*	00000000 pins_teensy.c
00001090 l     F .text	00000078 pinMode.part.2
00000000 l    df *ABS*	00000000 usb_dev.c
1fff92f8 l     O .bss	00000004 ep0_tx_ptr
1fff92fc l     O .bss	00000010 rx_last
1fff930c l     O .bss	00000002 ep0_tx_len
1fff9310 l     O .bss	00000040 ep0_rx0_buf
1fff9350 l     O .bss	00000010 rx_first
1fff9360 l     O .bss	00000001 ep0_tx_data_toggle
1fff9364 l     O .bss	00000040 ep0_rx1_buf
1fff93a4 l     O .bss	00000010 tx_first
1fff8000 l     O .usbdescriptortable	000000a0 table
1fff93b4 l     O .bss	00000010 tx_last
1fff93c4 l     O .bss	00000008 setup
1fff93cc l     O .bss	00000001 ep0_tx_bdt_bank
1fff93d0 l     O .bss	00000008 reply_buffer
1fff93dc l     O .bss	00000004 tx_state
00000000 l    df *ABS*	00000000 yield.cpp
1fff93e0 l     O .bss	00000001 yield::running
00000000 l    df *ABS*	00000000 EventResponder.cpp
00000000 l    df *ABS*	00000000 main.cpp
00000000 l    df *ABS*	00000000 serialEvent.cpp
00000000 l    df *ABS*	00000000 new.cpp
00000000 l    df *ABS*	00000000 usb_serial.c
1fff9406 l     O .bss	00000001 tx_noautoflush
1fff9408 l     O .bss	00000004 tx_packet
1fff940c l     O .bss	00000004 rx_packet
00000000 l    df *ABS*	00000000 analog.c
1fff9411 l     O .bss	00000001 calibrating
1fff87da l     O .data	00000001 analog_config_bits
1fff9412 l     O .bss	00000001 analog_reference_internal
1fff87db l     O .data	00000001 analog_num_average
00000000 l    df *ABS*	00000000 usb_desc.c
1fff87dc l     O .data	00000012 device_descriptor
1fff8808 l     O .data	00000043 config_descriptor
00000000 l    df *ABS*	00000000 nonstd.c
00000000 l    df *ABS*	00000000 usb_mem.c
1fff8880 l     O .data	00000004 usb_buffer_available
00000000 l    df *ABS*	00000000 _arm_addsubsf3.o
00000000 l    df *ABS*	00000000 _arm_muldivsf3.o
00000000 l    df *ABS*	00000000 _arm_cmpsf2.o
00000000 l    df *ABS*	00000000 _arm_fixunssfsi.o
00000000 l    df *ABS*	00000000 aeabi_atexit.c
00000000 l    df *ABS*	00000000 cxa_atexit.c
00000000 l    df *ABS*	00000000 errno.c
00000000 l    df *ABS*	00000000 init.c
00000000 l    df *ABS*	00000000 malloc.c
00000000 l    df *ABS*	00000000 mallocr.c
00000000 l    df *ABS*	00000000 mlock.c
00000000 l    df *ABS*	00000000 sbrkr.c
00000000 l    df *ABS*	00000000 __atexit.c
00000000 l    df *ABS*	00000000 __call_atexit.c
0000313c l     F .text	00000014 register_fini
00000000 l    df *ABS*	00000000 atexit.c
00000000 l    df *ABS*	00000000 fini.c
00000000 l    df *ABS*	00000000 mallocr.c
00000000 l    df *ABS*	00000000 impure.c
1fff8888 l     O .data	00000428 impure_data
00000000 l    df *ABS*	00000000 c:/toolchain/gcc/gcc-arm-none-eabi-5_4-2016q3-20160926-win32/bin/../lib/gcc/arm-none-eabi/5.4.1/armv7e-m/crti.o
00000000 l    df *ABS*	00000000 c:/toolchain/gcc/gcc-arm-none-eabi-5_4-2016q3-20160926-win32/bin/../lib/gcc/arm-none-eabi/5.4.1/armv7e-m/crtn.o
00000000 l    df *ABS*	00000000 HardwareSerial.cpp
00000000 l    df *ABS*	00000000 reent.c
00000000 l    df *ABS*	00000000 
1fff90c4 l       .bss	00000000 __bss_start__
1fff9460 l       .bss	00000000 __bss_end__
00000000 l       *UND*	00000000 software_init_hook
00000000 l       *UND*	00000000 hardware_init_hook
00000000 l       *UND*	00000000 __stack
1fff8798 l     F .data	00000008 ____aeabi_fmul_veneer
1fff87a0 l     F .data	00000008 ____aeabi_f2uiz_veneer
1fff87a8 l     F .data	00000008 ___ZN15TeensyTimerTool9postErrorENS_9errorCodeE_veneer
0000104c  w    F .text	00000006 adc0_isr
000021e0 g     F .text	0000001c usb_serial_available
0000064c  w    F .text	00000054 TeensyTimerTool::FTM_t<1u>::isr()
00001f94  w    F .text	000000ec yield
00000908  w    F .text	00000006 TeensyTimerTool::ITimerChannel::triggerDirect(unsigned long long)
1fff87f0 g     O .data	00000018 usb_string_manufacturer_name_default
0000348c g     O .text	00000004 TeensyTimerTool::FTM2
00001004  w    F .text	00000048 hard_fault_isr
0000104c  w    F .text	00000006 dma_ch6_isr
0000104c  w    F .text	00000006 uart0_lon_isr
000012c4 g     F .text	000000c8 usb_rx_memory
000008f8  w    F .text	00000006 TeensyTimerTool::ITimerChannel::setPrescaler(int)
000008e0  w    F .text	00000006 TeensyTimerTool::ITimerChannel::setNextPeriod(unsigned long)
0000104c  w    F .text	00000006 dma_ch8_isr
00003070 g     F .text	00000002 __malloc_unlock
00000c20  w    F .text	000000b8 TeensyTimerTool::FTM_Channel::begin(std::function<void ()>, float, bool)
00002244 g     F .text	000000e0 analog_init
0000138c g     F .text	00000084 usb_tx
00002804 g     F .text	00000136 .hidden __divsf3
0000104c  w    F .text	00000006 portcd_isr
000005ec  w    F .text	00000002 TeensyTimerTool::FTM_Channel::~FTM_Channel()
0000104c  w    F .text	00000006 can1_rx_warn_isr
00003634 g       .fini	00000000 __exidx_end
0000104c  w    F .text	00000006 dma_error_isr
1fff93f4 g     O .bss	00000001 EventResponder::runningFromYield
0000104c  w    F .text	00000006 i2c0_isr
00002a80 g     F .text	0000000c __errno
0000104c  w    F .text	00000006 portd_isr
0000104c  w    F .text	00000006 enet_error_isr
1fff93e4 g     O .bss	00000004 EventResponder::firstInterrupt
000005a0  w    F .text	0000001e TeensyTimerTool::FTM_Channel::start()
0000104c  w    F .text	00000006 tpm1_isr
1fff9290 g     O .bss	00000010 TeensyTimerTool::errFunc
000034a0 g     O .text	00000110 digital_pin_to_info_PGM
1fff945c g     O .bss	00000004 errno
00003634 g       .fini	00000000 _etext
1fff90c4 g       .bss	00000000 _sbss
0000248c g     F .text	00000160 .hidden __aeabi_fadd
00002488 g     F .text	00000164 .hidden __subsf3
0000104c  w    F .text	00000006 porte_isr
00000558 g     F .text	00000002 loop
0000104c  w    F .text	00000006 portb_isr
0000104c  w    F .text	00000006 spi1_isr
0000104c  w    F .text	00000006 uart3_status_isr
0000104c  w    F .text	00000006 mcm_isr
1fff93e8 g     O .bss	00000004 EventResponder::lastInterrupt
0000104c  w    F .text	00000006 uart1_status_isr
0000104c  w    F .text	00000006 randnum_isr
00000798  w    F .text	00000008 TeensyTimerTool::TckChannel<unsigned long>::stop()
00000cd8  w    F .text	00000070 TeensyTimerTool::TckChannel<unsigned long>::trigger(float)
00002a14 g     F .text	00000012 .hidden __aeabi_fcmpgt
1fff92f4 g     O .bss	00000004 systick_millis_count
00001004  w    F .text	00000048 bus_fault_isr
00000828  w    F .text	00000080 TeensyTimerTool::ITimerChannel* TeensyTimerTool::TCK_t::getTimer<unsigned long>()
0000104c  w    F .text	00000006 watchdog_isr
0000104c  w    F .text	00000006 i2c1_isr
1fff93d8 g     O .bss	00000001 usb_configuration
1fff9102  w    O .bss	00000001 TeensyTimerTool::FTM_t<1u>::isInitialized
0000104c  w    F .text	00000006 dma_ch11_isr
00003490 g     O .text	00000004 TeensyTimerTool::TCK
00000000  w      *UND*	00000000 __fini_array_end
0000104c  w    F .text	00000006 i2c2_isr
1fff87f0  w    O .data	00000018 usb_string_manufacturer_name
1fff9448 g     O .bss	00000008 usb_rx_byte_count_data
0000104c  w    F .text	00000006 pit1_isr
00002adc g     F .text	00000010 malloc
0000104c  w    F .text	00000006 dma_ch4_isr
0000104c  w    F .text	00000006 software_isr
0000104c  w    F .text	00000006 dma_ch7_isr
000025f4 g     F .text	0000001c .hidden __aeabi_i2f
00000f18  w    F .text	00000018 EventResponder::triggerEvent(int, void*)
00001edc g     F .text	000000b8 usb_init
1fff9108  w    O .bss	00000004 guard variable for TeensyTimerTool::FTM_t<1u>::channelInfo
00002944 g     F .text	00000066 .hidden __lesf2
0000104c  w    F .text	00000006 lptmr_isr
1fff941c g     O .bss	00000004 __malloc_top_pad
00001118 g     F .text	00000024 rtc_set
1fff87b0 g     O .data	00000000 .hidden __dso_handle
00001108 g     F .text	00000010 attachInterruptVector
1fff8720 g       .data	00000000 _sdata
00000a64  w    F .text	000000e0 TeensyTimerTool::FTM_t<1u>::getTimer()
00003074 g     F .text	00000024 _sbrk_r
000001bc g     F .text	000001d8 ResetHandler
0000104c  w    F .text	00000006 can1_bus_off_isr
00000900  w    F .text	00000006 TeensyTimerTool::ITimerChannel::getTriggerReload(float, unsigned long long*)
0000104c  w    F .text	00000006 ftm2_isr
1fff9450 g     O .bss	00000008 usb_cdc_line_coding
1fff93ec g     O .bss	00000004 EventResponder::lastYield
0000104c  w    F .text	00000006 uart5_status_isr
0000104c  w    F .text	00000006 lpuart0_status_isr
000035b0 g     O .text	00000004 usb_endpoint_config_table
0000104c  w    F .text	00000006 dma_ch9_isr
0000104c  w    F .text	00000006 pit2_isr
00000ef8  w    F .text	00000020 EventResponder::~EventResponder()
1fff9418 g     O .bss	00000004 __malloc_max_sbrked_mem
0000113c g     F .text	0000000a pinMode
00002434 g     F .text	0000004c usb_free
0000104c  w    F .text	00000006 i2c3_isr
0000294c g     F .text	0000005e .hidden __nesf2
00000d48  w    F .text	000000a8 TeensyTimerTool::TckChannel<unsigned long>::begin(std::function<void ()>, float, bool)
00003634 g       .fini	00000000 __exidx_start
0000104c  w    F .text	00000006 pit0_isr
1fff93f0 g     O .bss	00000004 EventResponder::firstYield
00003484 g     O .text	00000004 TeensyTimerTool::FTM0
00003608 g     O .text	00000004 _global_impure_ptr
0000104c  w    F .text	00000006 can1_error_isr
00002a8c g     F .text	00000050 __libc_init_array
1fff9460 g       .bss	00000000 __bss_end
0000104c  w    F .text	00000006 can0_wakeup_isr
1fff9100  w    O .bss	00000001 TeensyTimerTool::TckChannel<unsigned long>::tick()::lock
0000104c  w    F .text	00000006 flash_cmd_isr
0000104c  w    F .text	00000006 uart2_status_isr
00001064 g     F .text	0000002c _sbrk
1fff87d4 g     O .data	00000004 __brkval
1fff9410 g     O .bss	00000001 usb_cdc_line_rtsdtr
000021fc g     F .text	00000048 usb_serial_flush_callback
000033f0  w    O .text	00000048 vtable for TeensyTimerTool::FTM_Channel
0000360c g     F .text	00000000 _init
0000104c  w    F .text	00000006 svcall_isr
00000e90 g     F .text	00000010 TeensyTimerTool::BaseTimer::BaseTimer(TeensyTimerTool::ITimerChannel* (*)(), bool)
0000104c  w    F .text	00000006 dma_ch15_isr
1fff92f0 g     O .bss	00000001 TeensyTimerTool::TCK_t::isInitialized
00002488 g     F .text	00000164 .hidden __aeabi_fsub
0000104c  w    F .text	00000006 uart1_error_isr
0000315c g     F .text	00000028 __libc_fini_array
0000104c  w    F .text	00000006 usbhs_phy_isr
1fff9460 g       .bss	00000000 _ebss
0000093c  w    F .text	00000048 TeensyTimerTool::TckChannel<unsigned long>::getTriggerReload(float, unsigned long*)
00002a00 g     F .text	00000012 .hidden __aeabi_fcmpge
0000104c g     F .text	00000006 unused_isr
0000104c  w    F .text	00000006 spi0_isr
00002620 g     F .text	0000007c .hidden __floatdisf
0000104c  w    F .text	00000006 dma_ch3_isr
000008a8  w    F .text	0000000e TeensyTimerTool::FTM_Channel::~FTM_Channel()
0000293c g     F .text	0000006e .hidden __gtsf2
000021dc g     F .text	00000004 operator delete(void*, unsigned int)
00000b44  w    F .text	000000dc TeensyTimerTool::FTM_t<2u>::getTimer()
0000104c  w    F .text	00000006 flash_error_isr
000029ec g     F .text	00000012 .hidden __aeabi_fcmple
0000104c  w    F .text	00000006 uart5_error_isr
0000104c  w    F .text	00000006 rtc_seconds_isr
0000076c  w    F .text	00000018 TeensyTimerTool::TckChannel<unsigned long>::triggerDirect(unsigned long)
0000104c  w    F .text	00000006 pdb_isr
00001004  w    F .text	00000048 usage_fault_isr
0000104c  w    F .text	00000006 dac1_isr
00000000 g     O .text	000001bc _VectorsFlash
0000104c  w    F .text	00000006 dma_ch14_isr
00000000  w      *UND*	00000000 __deregister_frame_info
1fff9458 g     O .bss	00000004 usb_cdc_line_rtsdtr_millis
1fff8720  w    F .data	00000032 TeensyTimerTool::FTM_Channel::triggerDirect(unsigned long)
000021b4 g     F .text	00000010 systick_isr
0000104c  w    F .text	00000006 rtc_alarm_isr
0000104c  w    F .text	00000006 dma_ch2_isr
0000104c  w    F .text	00000006 ftm1_isr
00001054  w    F .text	0000000c startup_early_hook
0000104c  w    F .text	00000006 dma_ch13_isr
0000104c  w    F .text	00000006 uart2_error_isr
1fff8868 g     O .data	00000016 usb_string_serial_number_default
00001004 g     F .text	00000048 fault_isr
00003220 g     F .text	000001d0 _free_r
0000104c  w    F .text	00000006 usb_charge_isr
0000104c  w    F .text	00000006 cmt_isr
000008e8  w    F .text	00000006 TeensyTimerTool::ITimerChannel::setCurrentPeriod(unsigned long)
0000104c  w    F .text	00000006 usbhs_isr
1fff90c0 g     O .data	00000004 __malloc_sbrk_base
0000104c  w    F .text	00000006 ftm3_isr
0000104c  w    F .text	00000006 tsi0_isr
1fff9190  w    O .bss	00000100 TeensyTimerTool::FTM_t<0u>::channelInfo
0000104c  w    F .text	00000006 spi2_isr
00000808  w    F .text	00000020 TeensyTimerTool::TckChannel<unsigned long>::~TckChannel()
000025f4 g     F .text	0000001c .hidden __floatsisf
00000ef8  w    F .text	00000020 EventResponder::~EventResponder()
000021d4  w    F .text	00000002 serialEvent()
1fff9361 g     O .bss	00000001 usb_reboot_timer
00003098 g     F .text	000000a4 __register_exitproc
000007bc  w    F .text	0000004c TeensyTimerTool::TckChannel<unsigned long>::tick()
00000021 g       *ABS*	00000000 _teensy_model_identifier
1fff9420 g     O .bss	00000028 __malloc_current_mallinfo
0000294c g     F .text	0000005e .hidden __eqsf2
1fff9103  w    O .bss	00000001 TeensyTimerTool::FTM_t<0u>::isInitialized
1fff93f8 g     O .bss	0000000c HardwareSerial::s_serials_with_serial_events
0000104c  w    F .text	00000006 can0_bus_off_isr
00003494  w    O .text	0000000c vtable for EventResponder
00000e90 g     F .text	00000010 TeensyTimerTool::BaseTimer::BaseTimer(TeensyTimerTool::ITimerChannel* (*)(), bool)
1fff93cd g     O .bss	00000001 usb_rx_memory_needed
00001410 g     F .text	00000acc usb_isr
00002a74 g     F .text	0000000c __cxa_atexit
00002804 g     F .text	00000136 .hidden __aeabi_fdiv
0000104c  w    F .text	00000006 uart3_error_isr
00002610 g     F .text	0000008c .hidden __floatundisf
0000104c  w    F .text	00000006 porta_isr
1fff83bc g     O .usbbuffers	00000360 usb_buffer_memory
0000104c  w    F .text	00000006 low_voltage_isr
1fff8cb4 g     O .data	00000408 __malloc_av_
000025ec g     F .text	00000024 .hidden __aeabi_ui2f
0000104c  w    F .text	00000006 can0_error_isr
000011e4 g     F .text	000000e0 _init_Teensyduino_internal_
0000104c  w    F .text	00000006 dma_ch12_isr
0000306c g     F .text	00000002 __malloc_lock
00000000  w      *UND*	00000000 __fini_array_start
0000104c  w    F .text	00000006 can1_wakeup_isr
000006a0  w    F .text	00000054 TeensyTimerTool::FTM_t<2u>::isr()
1fff8200 g     O .dmabuffers	000001bc _VectorsRam
0000104c  w    F .text	00000006 pit3_isr
0000294c g     F .text	0000005e .hidden __cmpsf2
1fff90e0 g     O .bss	00000010 t1
1fff87d8 g     O .data	00000001 yield_active_check_flags
0000104c  w    F .text	00000006 enet_rx_isr
0000104c  w    F .text	00000006 portc_isr
00003488 g     O .text	00000004 TeensyTimerTool::FTM1
000021c4 g     F .text	00000010 main
1fff8754  w    F .data	0000003e TeensyTimerTool::FTM_Channel::trigger(float)
1fff9414 g     O .bss	00000004 __malloc_max_total_mem
00002620 g     F .text	0000007c .hidden __aeabi_l2f
00002944 g     F .text	00000066 .hidden __ltsf2
00001004  w    F .text	00000048 memmanage_fault_isr
00002324 g     F .text	00000084 usb_init_serialnumber
00003630 g       .text	00000000 __init_array_end
00002afc g     F .text	00000570 _malloc_r
1fff9404 g     O .bss	00000001 HardwareSerial::s_count_serials_with_serial_events
0000104c  w    F .text	00000006 debugmonitor_isr
00002080 g     F .text	00000080 EventResponder::triggerEventNotImmediate()
00000031 g       *ABS*	00000000 __rtc_localtime
000005d8  w    F .text	00000014 TeensyTimerTool::FTM_Channel::getMaxPeriod() const
00000000  w      *UND*	00000000 __libc_fini
00002610 g     F .text	0000008c .hidden __aeabi_ul2f
000005c0  w    F .text	00000018 TeensyTimerTool::FTM_Channel::stop()
0000104c  w    F .text	00000006 cmp1_isr
0000104c  w    F .text	00000006 ftm0_isr
000029b4 g     F .text	00000010 .hidden __aeabi_cfcmple
00003184 g     F .text	0000009c _malloc_trim_r
1fff9150  w    O .bss	00000040 TeensyTimerTool::FTM_t<1u>::channelInfo
1fff8864 g     O .data	00000004 string0
0000269c g     F .text	00000168 .hidden __mulsf3
00001060  w    F .text	00000002 startup_late_hook
1fff87d9 g     O .data	00000001 _serialEvent_default
1fff884c  w    O .data	00000016 usb_string_product_name
00001148 g     F .text	0000009c delay
0000104c  w    F .text	00000006 tpm0_isr
00003630 g     F .fini	00000000 _fini
00000910  w    F .text	0000002a TeensyTimerTool::FTM_Channel::getTriggerReload(float, unsigned long*)
0000104c  w    F .text	00000006 i2s0_rx_isr
0000104c  w    F .text	00000006 uart4_error_isr
00003150 g     F .text	0000000c atexit
0000293c g     F .text	0000006e .hidden __gesf2
00002480 g     F .text	0000016c .hidden __aeabi_frsub
0000104c  w    F .text	00000006 can0_message_isr
1fff8cb0 g     O .data	00000004 _impure_ptr
000029c4 g     F .text	00000012 .hidden __aeabi_fcmpeq
0000104c  w    F .text	00000006 can1_message_isr
00003438  w    O .text	0000004c vtable for TeensyTimerTool::TckChannel<unsigned long>
0000104c  w    F .text	00000006 nmi_isr
0000269c g     F .text	00000168 .hidden __aeabi_fmul
000008f0  w    F .text	00000006 TeensyTimerTool::ITimerChannel::setPeriod(unsigned long)
00003618 g       .text	00000000 __preinit_array_end
000029ac g     F .text	00000018 .hidden __aeabi_cfrcmple
0000104c  w    F .text	00000006 sdhc_isr
00000484 g     F .text	000000d4 setup
000035b4 g     O .text	00000054 usb_descriptor_list
0000104c  w    F .text	00000006 dma_ch10_isr
0000104c  w    F .text	00000006 uart0_error_isr
1fff910c  w    O .bss	00000004 guard variable for TeensyTimerTool::FTM_t<0u>::channelInfo
000023f4 g     F .text	00000040 usb_malloc
000029d8 g     F .text	00000012 .hidden __aeabi_fcmplt
0000104c  w    F .text	00000006 i2s0_isr
20008000 g       .bss	00000000 _estack
00000808  w    F .text	00000020 TeensyTimerTool::TckChannel<unsigned long>::~TckChannel()
0000104c  w    F .text	00000006 enet_timer_isr
00000784  w    F .text	00000014 TeensyTimerTool::TckChannel<unsigned long>::start()
1fff9104  w    O .bss	00000004 guard variable for TeensyTimerTool::FTM_t<2u>::channelInfo
1fff90c4 g       .data	00000000 _edata
00000eb4 g     F .text	00000024 TeensyTimerTool::postError(TeensyTimerTool::errorCode)
0000104c  w    F .text	00000006 i2s0_tx_isr
0000104c  w    F .text	00000006 adc1_isr
0000104c  w    F .text	00000006 cmp0_isr
000023a8 g     F .text	0000004c ultoa
00002a28 g     F .text	0000003e .hidden __aeabi_f2uiz
1fff92a0 g     O .bss	00000050 TeensyTimerTool::TCK_t::channels
00000ea0  w    F .text	00000012 std::function<void (TeensyTimerTool::errorCode)>::~function()
000021d8 g     F .text	00000004 operator new(unsigned int)
00002100 g     F .text	00000044 EventResponder::runFromInterrupt()
1fff90bc g     O .data	00000004 __malloc_trim_threshold
000025ec g     F .text	00000024 .hidden __floatunsisf
1fff9405 g     O .bss	00000001 usb_cdc_transmit_flush_timer
000029b4 g     F .text	00000010 .hidden __aeabi_cfcmpeq
1fff9110  w    O .bss	00000040 TeensyTimerTool::FTM_t<2u>::channelInfo
0000104c  w    F .text	00000006 pit_isr
1fff9101  w    O .bss	00000001 TeensyTimerTool::FTM_t<2u>::isInitialized
0000104c  w    F .text	00000006 dac0_isr
00003618 g       .text	00000000 __init_array_start
0000104c  w    F .text	00000006 can1_tx_warn_isr
0000059c  w    F .text	00000004 TeensyTimerTool::ITimerChannel::getPeriod()
00002a28 g     F .text	0000003e .hidden __fixunssfsi
0000104c  w    F .text	00000006 uart0_status_isr
0000104c  w    F .text	00000006 mcg_isr
00000400 g     O .text	00000010 flashconfigbytes
1fff884c g     O .data	00000016 usb_string_product_name_default
0000104c  w    F .text	00000006 dma_ch1_isr
00002148 g     F .text	0000006c EventResponder::detachNoInterrupts()
0000104c  w    F .text	00000006 dma_ch5_isr
0000104c  w    F .text	00000006 can0_rx_warn_isr
00000f8c g     F .text	00000060 TeensyTimerTool::initYieldHook()
000007a0  w    F .text	0000001c TeensyTimerTool::TckChannel<unsigned long>::getMaxPeriod() const
0000104c  w    F .text	00000006 can0_tx_warn_isr
0000104c  w    F .text	00000006 uart4_status_isr
00000000  w      *UND*	00000000 _Jv_RegisterClasses
000005ec  w    F .text	00000002 TeensyTimerTool::FTM_Channel::~FTM_Channel()
00000984  w    F .text	000000e0 TeensyTimerTool::FTM_t<0u>::getTimer()
00003618 g       .text	00000000 __preinit_array_start
00002a68 g     F .text	0000000a __aeabi_atexit
00000000  w      *UND*	00000000 __register_frame_info
000008b8  w    F .text	00000028 TeensyTimerTool::TckChannel<unsigned long>::~TckChannel()
0000104c  w    F .text	00000006 cmp2_isr
0000248c g     F .text	00000160 .hidden __addsf3
00002144 g     F .text	00000004 pendablesrvreq_isr
0000104c  w    F .text	00000006 wakeup_isr
000005f0  w    F .text	0000005c TeensyTimerTool::FTM_t<0u>::isr()
0000104c  w    F .text	00000006 cmp3_isr
00002aec g     F .text	00000010 free
0000104c  w    F .text	00000006 tpm2_isr
00000ea0  w    F .text	00000012 std::function<void (TeensyTimerTool::errorCode)>::~function()
0000104c  w    F .text	00000006 dma_ch0_isr
1fff8868  w    O .data	00000016 usb_string_serial_number
0000104c  w    F .text	00000006 enet_tx_isr



Disassembly of section .text:

00000000 <_VectorsFlash>:
_ZN14HardwareSerial21addToSerialEventsListEv():
C:\toolchain\Teensyduino\current_fork\cores\teensy3/HardwareSerial.cpp:41
       0:	00 80 00 20 bd 01 00 00 4d 10 00 00 05 10 00 00     ... ....M.......
C:\toolchain\Teensyduino\current_fork\cores\teensy3/HardwareSerial.cpp:43
      10:	05 10 00 00 05 10 00 00 05 10 00 00 05 10 00 00     ................
C:\toolchain\Teensyduino\current_fork\cores\teensy3/HardwareSerial.cpp:42 (discriminator 2)
      20:	05 10 00 00 05 10 00 00 05 10 00 00 4d 10 00 00     ............M...
C:\toolchain\Teensyduino\current_fork\cores\teensy3/HardwareSerial.cpp:47
      30:	4d 10 00 00 05 10 00 00 45 21 00 00 b5 21 00 00     M.......E!...!..
C:\toolchain\Teensyduino\current_fork\cores\teensy3/HardwareSerial.cpp:42
      40:	4d 10 00 00 4d 10 00 00 4d 10 00 00 4d 10 00 00     M...M...M...M...
      50:	4d 10 00 00 4d 10 00 00 4d 10 00 00 4d 10 00 00     M...M...M...M...
      60:	4d 10 00 00 4d 10 00 00 4d 10 00 00 4d 10 00 00     M...M...M...M...
      70:	4d 10 00 00 4d 10 00 00 4d 10 00 00 4d 10 00 00     M...M...M...M...
      80:	4d 10 00 00 4d 10 00 00 4d 10 00 00 4d 10 00 00     M...M...M...M...
      90:	4d 10 00 00 4d 10 00 00 4d 10 00 00 4d 10 00 00     M...M...M...M...
      a0:	4d 10 00 00 4d 10 00 00 4d 10 00 00 4d 10 00 00     M...M...M...M...
      b0:	4d 10 00 00 4d 10 00 00 4d 10 00 00 4d 10 00 00     M...M...M...M...
      c0:	4d 10 00 00 4d 10 00 00 4d 10 00 00 4d 10 00 00     M...M...M...M...
      d0:	4d 10 00 00 4d 10 00 00 4d 10 00 00 4d 10 00 00     M...M...M...M...
      e0:	4d 10 00 00 4d 10 00 00 4d 10 00 00 4d 10 00 00     M...M...M...M...
      f0:	4d 10 00 00 4d 10 00 00 4d 10 00 00 4d 10 00 00     M...M...M...M...
     100:	4d 10 00 00 4d 10 00 00 4d 10 00 00 4d 10 00 00     M...M...M...M...
     110:	4d 10 00 00 4d 10 00 00 4d 10 00 00 4d 10 00 00     M...M...M...M...
     120:	4d 10 00 00 4d 10 00 00 4d 10 00 00 4d 10 00 00     M...M...M...M...
     130:	4d 10 00 00 4d 10 00 00 4d 10 00 00 4d 10 00 00     M...M...M...M...
     140:	4d 10 00 00 4d 10 00 00 4d 10 00 00 4d 10 00 00     M...M...M...M...
     150:	4d 10 00 00 4d 10 00 00 4d 10 00 00 4d 10 00 00     M...M...M...M...
     160:	4d 10 00 00 11 14 00 00 4d 10 00 00 4d 10 00 00     M.......M...M...
     170:	4d 10 00 00 4d 10 00 00 4d 10 00 00 4d 10 00 00     M...M...M...M...
     180:	4d 10 00 00 4d 10 00 00 4d 10 00 00 4d 10 00 00     M...M...M...M...
     190:	4d 10 00 00 4d 10 00 00 4d 10 00 00 4d 10 00 00     M...M...M...M...
     1a0:	4d 10 00 00 4d 10 00 00 4d 10 00 00 4d 10 00 00     M...M...M...M...
     1b0:	4d 10 00 00 4d 10 00 00 4d 10 00 00                 M...M...M...

000001bc <ResetHandler>:
ResetHandler():
C:\toolchain\Teensyduino\current_fork\cores\teensy3/mk20dx128.c:701
     1bc:	4b56      	ldr	r3, [pc, #344]	; (318 <ResetHandler+0x15c>)
     1be:	f24c 5220 	movw	r2, #50464	; 0xc520
C:\toolchain\Teensyduino\current_fork\cores\teensy3/mk20dx128.c:691
     1c2:	b510      	push	{r4, lr}
C:\toolchain\Teensyduino\current_fork\cores\teensy3/mk20dx128.c:701
     1c4:	801a      	strh	r2, [r3, #0]
C:\toolchain\Teensyduino\current_fork\cores\teensy3/mk20dx128.c:702
     1c6:	f64d 1228 	movw	r2, #55592	; 0xd928
     1ca:	801a      	strh	r2, [r3, #0]
C:\toolchain\Teensyduino\current_fork\cores\teensy3/mk20dx128.c:703
     1cc:	bf00      	nop
C:\toolchain\Teensyduino\current_fork\cores\teensy3/mk20dx128.c:704
     1ce:	bf00      	nop
C:\toolchain\Teensyduino\current_fork\cores\teensy3/mk20dx128.c:708
     1d0:	f000 ff40 	bl	1054 <startup_early_hook>
C:\toolchain\Teensyduino\current_fork\cores\teensy3/mk20dx128.c:715
     1d4:	4b51      	ldr	r3, [pc, #324]	; (31c <ResetHandler+0x160>)
     1d6:	f04f 6210 	mov.w	r2, #150994944	; 0x9000000
     1da:	601a      	str	r2, [r3, #0]
C:\toolchain\Teensyduino\current_fork\cores\teensy3/mk20dx128.c:716
     1dc:	4a50      	ldr	r2, [pc, #320]	; (320 <ResetHandler+0x164>)
     1de:	609a      	str	r2, [r3, #8]
C:\toolchain\Teensyduino\current_fork\cores\teensy3/mk20dx128.c:717
     1e0:	4a50      	ldr	r2, [pc, #320]	; (324 <ResetHandler+0x168>)
     1e2:	60da      	str	r2, [r3, #12]
C:\toolchain\Teensyduino\current_fork\cores\teensy3/mk20dx128.c:752
     1e4:	4a50      	ldr	r2, [pc, #320]	; (328 <ResetHandler+0x16c>)
     1e6:	6813      	ldr	r3, [r2, #0]
     1e8:	f413 7380 	ands.w	r3, r3, #256	; 0x100
     1ec:	d104      	bne.n	1f8 <ResetHandler+0x3c>
C:\toolchain\Teensyduino\current_fork\cores\teensy3/mk20dx128.c:753
     1ee:	494f      	ldr	r1, [pc, #316]	; (32c <ResetHandler+0x170>)
     1f0:	600b      	str	r3, [r1, #0]
C:\toolchain\Teensyduino\current_fork\cores\teensy3/mk20dx128.c:754
     1f2:	f44f 53a8 	mov.w	r3, #5376	; 0x1500
     1f6:	6013      	str	r3, [r2, #0]
C:\toolchain\Teensyduino\current_fork\cores\teensy3/mk20dx128.c:758
     1f8:	4b4d      	ldr	r3, [pc, #308]	; (330 <ResetHandler+0x174>)
     1fa:	781a      	ldrb	r2, [r3, #0]
     1fc:	0711      	lsls	r1, r2, #28
     1fe:	d503      	bpl.n	208 <ResetHandler+0x4c>
C:\toolchain\Teensyduino\current_fork\cores\teensy3/mk20dx128.c:758 (discriminator 1)
     200:	781a      	ldrb	r2, [r3, #0]
     202:	f042 0208 	orr.w	r2, r2, #8
     206:	701a      	strb	r2, [r3, #0]
C:\toolchain\Teensyduino\current_fork\cores\teensy3/mk20dx128.c:765
     208:	4b4a      	ldr	r3, [pc, #296]	; (334 <ResetHandler+0x178>)
C:\toolchain\Teensyduino\current_fork\cores\teensy3/mk20dx128.c:769
     20a:	494b      	ldr	r1, [pc, #300]	; (338 <ResetHandler+0x17c>)
C:\toolchain\Teensyduino\current_fork\cores\teensy3/mk20dx128.c:765
     20c:	222a      	movs	r2, #42	; 0x2a
     20e:	701a      	strb	r2, [r3, #0]
     210:	4a4a      	ldr	r2, [pc, #296]	; (33c <ResetHandler+0x180>)
     212:	4b4b      	ldr	r3, [pc, #300]	; (340 <ResetHandler+0x184>)
C:\toolchain\Teensyduino\current_fork\cores\teensy3/mk20dx128.c:769 (discriminator 1)
     214:	428b      	cmp	r3, r1
     216:	d204      	bcs.n	222 <ResetHandler+0x66>
C:\toolchain\Teensyduino\current_fork\cores\teensy3/mk20dx128.c:769 (discriminator 2)
     218:	f852 0f04 	ldr.w	r0, [r2, #4]!
     21c:	f843 0b04 	str.w	r0, [r3], #4
     220:	e7f8      	b.n	214 <ResetHandler+0x58>
     222:	4b48      	ldr	r3, [pc, #288]	; (344 <ResetHandler+0x188>)
C:\toolchain\Teensyduino\current_fork\cores\teensy3/mk20dx128.c:771 (discriminator 1)
     224:	4948      	ldr	r1, [pc, #288]	; (348 <ResetHandler+0x18c>)
     226:	2200      	movs	r2, #0
     228:	428b      	cmp	r3, r1
     22a:	d202      	bcs.n	232 <ResetHandler+0x76>
C:\toolchain\Teensyduino\current_fork\cores\teensy3/mk20dx128.c:771 (discriminator 2)
     22c:	f843 2b04 	str.w	r2, [r3], #4
     230:	e7fa      	b.n	228 <ResetHandler+0x6c>
C:\toolchain\Teensyduino\current_fork\cores\teensy3/mk20dx128.c:774 (discriminator 3)
     232:	4946      	ldr	r1, [pc, #280]	; (34c <ResetHandler+0x190>)
     234:	4a46      	ldr	r2, [pc, #280]	; (350 <ResetHandler+0x194>)
     236:	2300      	movs	r3, #0
     238:	f852 0023 	ldr.w	r0, [r2, r3, lsl #2]
     23c:	f841 0023 	str.w	r0, [r1, r3, lsl #2]
     240:	3301      	adds	r3, #1
     242:	2b6f      	cmp	r3, #111	; 0x6f
     244:	d1f8      	bne.n	238 <ResetHandler+0x7c>
     246:	4b43      	ldr	r3, [pc, #268]	; (354 <ResetHandler+0x198>)
C:\toolchain\Teensyduino\current_fork\cores\teensy3/mk20dx128.c:775 (discriminator 3)
     248:	4a43      	ldr	r2, [pc, #268]	; (358 <ResetHandler+0x19c>)
     24a:	2180      	movs	r1, #128	; 0x80
     24c:	f803 1b01 	strb.w	r1, [r3], #1
     250:	4293      	cmp	r3, r2
     252:	d1fb      	bne.n	24c <ResetHandler+0x90>
C:\toolchain\Teensyduino\current_fork\cores\teensy3/mk20dx128.c:776
     254:	4b41      	ldr	r3, [pc, #260]	; (35c <ResetHandler+0x1a0>)
     256:	4a3d      	ldr	r2, [pc, #244]	; (34c <ResetHandler+0x190>)
     258:	601a      	str	r2, [r3, #0]
C:\toolchain\Teensyduino\current_fork\cores\teensy3/mk20dx128.c:810
     25a:	4b41      	ldr	r3, [pc, #260]	; (360 <ResetHandler+0x1a4>)
     25c:	228a      	movs	r2, #138	; 0x8a
     25e:	701a      	strb	r2, [r3, #0]
C:\toolchain\Teensyduino\current_fork\cores\teensy3/mk20dx128.c:816
     260:	f5a3 5380 	sub.w	r3, r3, #4096	; 0x1000
     264:	2224      	movs	r2, #36	; 0x24
     266:	705a      	strb	r2, [r3, #1]
C:\toolchain\Teensyduino\current_fork\cores\teensy3/mk20dx128.c:818
     268:	22a0      	movs	r2, #160	; 0xa0
     26a:	701a      	strb	r2, [r3, #0]
C:\toolchain\Teensyduino\current_fork\cores\teensy3/mk20dx128.c:820 (discriminator 1)
     26c:	799a      	ldrb	r2, [r3, #6]
     26e:	0792      	lsls	r2, r2, #30
     270:	d5fc      	bpl.n	26c <ResetHandler+0xb0>
C:\toolchain\Teensyduino\current_fork\cores\teensy3/mk20dx128.c:822 (discriminator 1)
     272:	799a      	ldrb	r2, [r3, #6]
     274:	06d4      	lsls	r4, r2, #27
     276:	d4fc      	bmi.n	272 <ResetHandler+0xb6>
C:\toolchain\Teensyduino\current_fork\cores\teensy3/mk20dx128.c:824
     278:	4a3a      	ldr	r2, [pc, #232]	; (364 <ResetHandler+0x1a8>)
C:\toolchain\Teensyduino\current_fork\cores\teensy3/mk20dx128.c:824 (discriminator 1)
     27a:	7993      	ldrb	r3, [r2, #6]
     27c:	f003 030c 	and.w	r3, r3, #12
     280:	2b08      	cmp	r3, #8
     282:	4b38      	ldr	r3, [pc, #224]	; (364 <ResetHandler+0x1a8>)
     284:	d1f9      	bne.n	27a <ResetHandler+0xbe>
C:\toolchain\Teensyduino\current_fork\cores\teensy3/mk20dx128.c:885
     286:	2203      	movs	r2, #3
     288:	711a      	strb	r2, [r3, #4]
C:\toolchain\Teensyduino\current_fork\cores\teensy3/mk20dx128.c:896
     28a:	2240      	movs	r2, #64	; 0x40
     28c:	715a      	strb	r2, [r3, #5]
C:\toolchain\Teensyduino\current_fork\cores\teensy3/mk20dx128.c:903 (discriminator 1)
     28e:	799a      	ldrb	r2, [r3, #6]
     290:	0690      	lsls	r0, r2, #26
     292:	d5fc      	bpl.n	28e <ResetHandler+0xd2>
C:\toolchain\Teensyduino\current_fork\cores\teensy3/mk20dx128.c:905 (discriminator 1)
     294:	4a33      	ldr	r2, [pc, #204]	; (364 <ResetHandler+0x1a8>)
     296:	7991      	ldrb	r1, [r2, #6]
     298:	4b32      	ldr	r3, [pc, #200]	; (364 <ResetHandler+0x1a8>)
     29a:	0649      	lsls	r1, r1, #25
     29c:	d5fb      	bpl.n	296 <ResetHandler+0xda>
C:\toolchain\Teensyduino\current_fork\cores\teensy3/mk20dx128.c:998
     29e:	4a32      	ldr	r2, [pc, #200]	; (368 <ResetHandler+0x1ac>)
     2a0:	4932      	ldr	r1, [pc, #200]	; (36c <ResetHandler+0x1b0>)
     2a2:	6011      	str	r1, [r2, #0]
C:\toolchain\Teensyduino\current_fork\cores\teensy3/mk20dx128.c:1004
     2a4:	2102      	movs	r1, #2
     2a6:	6051      	str	r1, [r2, #4]
C:\toolchain\Teensyduino\current_fork\cores\teensy3/mk20dx128.c:1073
     2a8:	2220      	movs	r2, #32
     2aa:	701a      	strb	r2, [r3, #0]
C:\toolchain\Teensyduino\current_fork\cores\teensy3/mk20dx128.c:1075 (discriminator 1)
     2ac:	799a      	ldrb	r2, [r3, #6]
     2ae:	f002 020c 	and.w	r2, r2, #12
     2b2:	2a0c      	cmp	r2, #12
     2b4:	d1fa      	bne.n	2ac <ResetHandler+0xf0>
C:\toolchain\Teensyduino\current_fork\cores\teensy3/mk20dx128.c:1084
     2b6:	4b2e      	ldr	r3, [pc, #184]	; (370 <ResetHandler+0x1b4>)
     2b8:	4a2e      	ldr	r2, [pc, #184]	; (374 <ResetHandler+0x1b8>)
     2ba:	601a      	str	r2, [r3, #0]
C:\toolchain\Teensyduino\current_fork\cores\teensy3/mk20dx128.c:1115
     2bc:	4b2e      	ldr	r3, [pc, #184]	; (378 <ResetHandler+0x1bc>)
     2be:	4a2f      	ldr	r2, [pc, #188]	; (37c <ResetHandler+0x1c0>)
     2c0:	601a      	str	r2, [r3, #0]
C:\toolchain\Teensyduino\current_fork\cores\teensy3/mk20dx128.c:1116
     2c2:	2200      	movs	r2, #0
     2c4:	605a      	str	r2, [r3, #4]
C:\toolchain\Teensyduino\current_fork\cores\teensy3/mk20dx128.c:1117
     2c6:	2207      	movs	r2, #7
     2c8:	f843 2c04 	str.w	r2, [r3, #-4]
C:\toolchain\Teensyduino\current_fork\cores\teensy3/mk20dx128.c:1118
     2cc:	4a2c      	ldr	r2, [pc, #176]	; (380 <ResetHandler+0x1c4>)
     2ce:	f8c3 2d0c 	str.w	r2, [r3, #3340]	; 0xd0c
C:\toolchain\Teensyduino\current_fork\cores\teensy3/mk20dx128.c:1121
     2d2:	b662      	cpsie	i
C:\toolchain\Teensyduino\current_fork\cores\teensy3/mk20dx128.c:1123
     2d4:	f000 ff86 	bl	11e4 <_init_Teensyduino_internal_>
C:\toolchain\Teensyduino\current_fork\cores\teensy3/mk20dx128.c:1127
     2d8:	4b14      	ldr	r3, [pc, #80]	; (32c <ResetHandler+0x170>)
     2da:	681b      	ldr	r3, [r3, #0]
     2dc:	07da      	lsls	r2, r3, #31
     2de:	d505      	bpl.n	2ec <ResetHandler+0x130>
C:\toolchain\Teensyduino\current_fork\cores\teensy3/mk20dx128.c:1135
     2e0:	4828      	ldr	r0, [pc, #160]	; (384 <ResetHandler+0x1c8>)
     2e2:	f000 ff19 	bl	1118 <rtc_set>
C:\toolchain\Teensyduino\current_fork\cores\teensy3/mk20dx128.c:1139
     2e6:	4b28      	ldr	r3, [pc, #160]	; (388 <ResetHandler+0x1cc>)
     2e8:	4a28      	ldr	r2, [pc, #160]	; (38c <ResetHandler+0x1d0>)
     2ea:	601a      	str	r2, [r3, #0]
C:\toolchain\Teensyduino\current_fork\cores\teensy3/mk20dx128.c:1141
     2ec:	4b28      	ldr	r3, [pc, #160]	; (390 <ResetHandler+0x1d4>)
     2ee:	781b      	ldrb	r3, [r3, #0]
     2f0:	065b      	lsls	r3, r3, #25
     2f2:	d509      	bpl.n	308 <ResetHandler+0x14c>
C:\toolchain\Teensyduino\current_fork\cores\teensy3/mk20dx128.c:1141 (discriminator 1)
     2f4:	4c24      	ldr	r4, [pc, #144]	; (388 <ResetHandler+0x1cc>)
     2f6:	4b25      	ldr	r3, [pc, #148]	; (38c <ResetHandler+0x1d0>)
     2f8:	6822      	ldr	r2, [r4, #0]
     2fa:	429a      	cmp	r2, r3
     2fc:	d104      	bne.n	308 <ResetHandler+0x14c>
C:\toolchain\Teensyduino\current_fork\cores\teensy3/mk20dx128.c:1149
     2fe:	4821      	ldr	r0, [pc, #132]	; (384 <ResetHandler+0x1c8>)
     300:	f000 ff0a 	bl	1118 <rtc_set>
C:\toolchain\Teensyduino\current_fork\cores\teensy3/mk20dx128.c:1153
     304:	2300      	movs	r3, #0
     306:	6023      	str	r3, [r4, #0]
C:\toolchain\Teensyduino\current_fork\cores\teensy3/mk20dx128.c:1157
     308:	f002 fbc0 	bl	2a8c <__libc_init_array>
C:\toolchain\Teensyduino\current_fork\cores\teensy3/mk20dx128.c:1159
     30c:	f000 fea8 	bl	1060 <startup_late_hook>
C:\toolchain\Teensyduino\current_fork\cores\teensy3/mk20dx128.c:1160
     310:	f001 ff58 	bl	21c4 <main>
     314:	e7fe      	b.n	314 <ResetHandler+0x158>
     316:	bf00      	nop
     318:	4005200e 	.word	0x4005200e
     31c:	40048030 	.word	0x40048030
     320:	00043f82 	.word	0x00043f82
     324:	2b000001 	.word	0x2b000001
     328:	4003d010 	.word	0x4003d010
     32c:	4003d014 	.word	0x4003d014
     330:	4007d002 	.word	0x4007d002
     334:	4007e000 	.word	0x4007e000
     338:	1fff90c4 	.word	0x1fff90c4
     33c:	00003630 	.word	0x00003630
     340:	1fff8720 	.word	0x1fff8720
     344:	1fff90c4 	.word	0x1fff90c4
     348:	1fff9460 	.word	0x1fff9460
     34c:	1fff8200 	.word	0x1fff8200
     350:	00000000 	.word	0x00000000
     354:	e000e400 	.word	0xe000e400
     358:	e000e45f 	.word	0xe000e45f
     35c:	e000ed08 	.word	0xe000ed08
     360:	40065000 	.word	0x40065000
     364:	40064000 	.word	0x40064000
     368:	40048044 	.word	0x40048044
     36c:	01030000 	.word	0x01030000
     370:	40048004 	.word	0x40048004
     374:	000510c0 	.word	0x000510c0
     378:	e000e014 	.word	0xe000e014
     37c:	000176ff 	.word	0x000176ff
     380:	20200000 	.word	0x20200000
     384:	00000031 	.word	0x00000031
     388:	4003e01c 	.word	0x4003e01c
     38c:	5a94c3a5 	.word	0x5a94c3a5
     390:	4007f000 	.word	0x4007f000
     394:	ffffffff 	.word	0xffffffff
     398:	ffffffff 	.word	0xffffffff
     39c:	ffffffff 	.word	0xffffffff
     3a0:	ffffffff 	.word	0xffffffff
     3a4:	ffffffff 	.word	0xffffffff
     3a8:	ffffffff 	.word	0xffffffff
     3ac:	ffffffff 	.word	0xffffffff
     3b0:	ffffffff 	.word	0xffffffff
     3b4:	ffffffff 	.word	0xffffffff
     3b8:	ffffffff 	.word	0xffffffff
     3bc:	ffffffff 	.word	0xffffffff
     3c0:	ffffffff 	.word	0xffffffff
     3c4:	ffffffff 	.word	0xffffffff
     3c8:	ffffffff 	.word	0xffffffff
     3cc:	ffffffff 	.word	0xffffffff
     3d0:	ffffffff 	.word	0xffffffff
     3d4:	ffffffff 	.word	0xffffffff
     3d8:	ffffffff 	.word	0xffffffff
     3dc:	ffffffff 	.word	0xffffffff
     3e0:	ffffffff 	.word	0xffffffff
     3e4:	ffffffff 	.word	0xffffffff
     3e8:	ffffffff 	.word	0xffffffff
     3ec:	ffffffff 	.word	0xffffffff
     3f0:	ffffffff 	.word	0xffffffff
     3f4:	ffffffff 	.word	0xffffffff
     3f8:	ffffffff 	.word	0xffffffff
     3fc:	ffffffff 	.word	0xffffffff

00000400 <flashconfigbytes>:
     400:	ffffffff ffffffff ffffffff fffff9de     ................

00000410 <__do_global_dtors_aux>:
__do_global_dtors_aux():
     410:	b510      	push	{r4, lr}
     412:	4c05      	ldr	r4, [pc, #20]	; (428 <__do_global_dtors_aux+0x18>)
     414:	7823      	ldrb	r3, [r4, #0]
     416:	b933      	cbnz	r3, 426 <__do_global_dtors_aux+0x16>
     418:	4b04      	ldr	r3, [pc, #16]	; (42c <__do_global_dtors_aux+0x1c>)
     41a:	b113      	cbz	r3, 422 <__do_global_dtors_aux+0x12>
     41c:	4804      	ldr	r0, [pc, #16]	; (430 <__do_global_dtors_aux+0x20>)
     41e:	f3af 8000 	nop.w
     422:	2301      	movs	r3, #1
     424:	7023      	strb	r3, [r4, #0]
     426:	bd10      	pop	{r4, pc}
     428:	1fff90c4 	.word	0x1fff90c4
     42c:	00000000 	.word	0x00000000
     430:	00003634 	.word	0x00003634

00000434 <frame_dummy>:
frame_dummy():
     434:	4b08      	ldr	r3, [pc, #32]	; (458 <frame_dummy+0x24>)
     436:	b510      	push	{r4, lr}
     438:	b11b      	cbz	r3, 442 <frame_dummy+0xe>
     43a:	4908      	ldr	r1, [pc, #32]	; (45c <frame_dummy+0x28>)
     43c:	4808      	ldr	r0, [pc, #32]	; (460 <frame_dummy+0x2c>)
     43e:	f3af 8000 	nop.w
     442:	4808      	ldr	r0, [pc, #32]	; (464 <frame_dummy+0x30>)
     444:	6803      	ldr	r3, [r0, #0]
     446:	b903      	cbnz	r3, 44a <frame_dummy+0x16>
     448:	bd10      	pop	{r4, pc}
     44a:	4b07      	ldr	r3, [pc, #28]	; (468 <frame_dummy+0x34>)
     44c:	2b00      	cmp	r3, #0
     44e:	d0fb      	beq.n	448 <frame_dummy+0x14>
     450:	e8bd 4010 	ldmia.w	sp!, {r4, lr}
     454:	4718      	bx	r3
     456:	bf00      	nop
     458:	00000000 	.word	0x00000000
     45c:	1fff90c8 	.word	0x1fff90c8
     460:	00003634 	.word	0x00003634
     464:	1fff90c4 	.word	0x1fff90c4
     468:	00000000 	.word	0x00000000

0000046c <std::_Function_handler<void (), setup::{lambda()#1}>::_M_invoke(std::_Any_data const&)>:
_ZNSt17_Function_handlerIFvvEZ5setupEUlvE_E9_M_invokeERKSt9_Any_data():
C:\toolchain\Teensyduino\current_fork\cores\teensy3/core_pins.h:1938
     46c:	4b01      	ldr	r3, [pc, #4]	; (474 <std::_Function_handler<void (), setup::{lambda()#1}>::_M_invoke(std::_Any_data const&)+0x8>)
     46e:	2220      	movs	r2, #32
     470:	601a      	str	r2, [r3, #0]
     472:	4770      	bx	lr
     474:	400ff08c 	.word	0x400ff08c

00000478 <std::_Function_base::_Base_manager<setup::{lambda()#1}>::_M_manager(std::_Any_data&, std::_Function_base::_Base_manager<setup::{lambda()#1}> const&, std::_Manager_operation)>:
_ZNSt14_Function_base13_Base_managerIZ5setupEUlvE_E10_M_managerERSt9_Any_dataRKS3_St18_Manager_operation():
c:\toolchain\gcc\gcc-arm-none-eabi-5_4-2016q3-20160926-win32\arm-none-eabi\include\c++\5.4.1/functional:1734
     478:	2a01      	cmp	r2, #1
c:\toolchain\gcc\gcc-arm-none-eabi-5_4-2016q3-20160926-win32\arm-none-eabi\include\c++\5.4.1/functional:1742
     47a:	bf08      	it	eq
     47c:	6001      	streq	r1, [r0, #0]
c:\toolchain\gcc\gcc-arm-none-eabi-5_4-2016q3-20160926-win32\arm-none-eabi\include\c++\5.4.1/functional:1754
     47e:	2000      	movs	r0, #0
     480:	4770      	bx	lr
     482:	bf00      	nop

00000484 <setup>:
setup():
C:\Users\lutz\source\Teensy\tttest/src/main.cpp:10
     484:	b5f0      	push	{r4, r5, r6, r7, lr}
_ZN15TeensyTimerTool9BaseTimer5beginINSt6chrono8durationIxSt5ratioILx1ELx1000EEEEEENS_9errorCodeESt8functionIFvvEET_b():
C:\Users\lutz\source\Teensy\tttest/lib/TeensyTimerTool/src/baseTimer.h:64
     486:	4d2f      	ldr	r5, [pc, #188]	; (544 <setup+0xc0>)
setup():
C:\Users\lutz\source\Teensy\tttest/src/main.cpp:10
     488:	b089      	sub	sp, #36	; 0x24
C:\Users\lutz\source\Teensy\tttest/src/main.cpp:11
     48a:	2101      	movs	r1, #1
     48c:	200d      	movs	r0, #13
     48e:	f000 fe55 	bl	113c <pinMode>
_ZN15TeensyTimerTool9BaseTimer5beginINSt6chrono8durationIxSt5ratioILx1ELx1000EEEEEENS_9errorCodeESt8functionIFvvEET_b():
C:\Users\lutz\source\Teensy\tttest/lib/TeensyTimerTool/src/baseTimer.h:64
     492:	686c      	ldr	r4, [r5, #4]
function<setup()::<lambda()>, void, void>():
c:\toolchain\gcc\gcc-arm-none-eabi-5_4-2016q3-20160926-win32\arm-none-eabi\include\c++\5.4.1/functional:2255
     494:	4a2c      	ldr	r2, [pc, #176]	; (548 <setup+0xc4>)
c:\toolchain\gcc\gcc-arm-none-eabi-5_4-2016q3-20160926-win32\arm-none-eabi\include\c++\5.4.1/functional:2256
     496:	4b2d      	ldr	r3, [pc, #180]	; (54c <setup+0xc8>)
c:\toolchain\gcc\gcc-arm-none-eabi-5_4-2016q3-20160926-win32\arm-none-eabi\include\c++\5.4.1/functional:2255
     498:	9203      	str	r2, [sp, #12]
c:\toolchain\gcc\gcc-arm-none-eabi-5_4-2016q3-20160926-win32\arm-none-eabi\include\c++\5.4.1/functional:2256
     49a:	9302      	str	r3, [sp, #8]
_ZN15TeensyTimerTool9BaseTimer5beginINSt6chrono8durationIxSt5ratioILx1ELx1000EEEEEENS_9errorCodeESt8functionIFvvEET_b():
C:\Users\lutz\source\Teensy\tttest/lib/TeensyTimerTool/src/baseTimer.h:64
     49c:	2c00      	cmp	r4, #0
     49e:	d02d      	beq.n	4fc <setup+0x78>
C:\Users\lutz\source\Teensy\tttest/lib/TeensyTimerTool/src/baseTimer.h:80
     4a0:	6821      	ldr	r1, [r4, #0]
_ZNSt14_Function_baseC4Ev():
c:\toolchain\gcc\gcc-arm-none-eabi-5_4-2016q3-20160926-win32\arm-none-eabi\include\c++\5.4.1/functional:1825
     4a2:	2200      	movs	r2, #0
_ZN15TeensyTimerTool9BaseTimer5beginINSt6chrono8durationIxSt5ratioILx1ELx1000EEEEEENS_9errorCodeESt8functionIFvvEET_b():
C:\Users\lutz\source\Teensy\tttest/lib/TeensyTimerTool/src/baseTimer.h:80
     4a4:	680f      	ldr	r7, [r1, #0]
_ZNSt14_Function_baseC4Ev():
c:\toolchain\gcc\gcc-arm-none-eabi-5_4-2016q3-20160926-win32\arm-none-eabi\include\c++\5.4.1/functional:1825
     4a6:	9206      	str	r2, [sp, #24]
_ZNSt8functionIFvvEEC4ERKS1_():
c:\toolchain\gcc\gcc-arm-none-eabi-5_4-2016q3-20160926-win32\arm-none-eabi\include\c++\5.4.1/functional:2238
     4a8:	ae04      	add	r6, sp, #16
     4aa:	2202      	movs	r2, #2
     4ac:	4630      	mov	r0, r6
     4ae:	4669      	mov	r1, sp
     4b0:	4798      	blx	r3
c:\toolchain\gcc\gcc-arm-none-eabi-5_4-2016q3-20160926-win32\arm-none-eabi\include\c++\5.4.1/functional:2239
     4b2:	9a03      	ldr	r2, [sp, #12]
c:\toolchain\gcc\gcc-arm-none-eabi-5_4-2016q3-20160926-win32\arm-none-eabi\include\c++\5.4.1/functional:2240
     4b4:	9b02      	ldr	r3, [sp, #8]
c:\toolchain\gcc\gcc-arm-none-eabi-5_4-2016q3-20160926-win32\arm-none-eabi\include\c++\5.4.1/functional:2239
     4b6:	9207      	str	r2, [sp, #28]
c:\toolchain\gcc\gcc-arm-none-eabi-5_4-2016q3-20160926-win32\arm-none-eabi\include\c++\5.4.1/functional:2240
     4b8:	9306      	str	r3, [sp, #24]
_ZN15TeensyTimerTool9BaseTimer5beginINSt6chrono8durationIxSt5ratioILx1ELx1000EEEEEENS_9errorCodeESt8functionIFvvEET_b():
C:\Users\lutz\source\Teensy\tttest/lib/TeensyTimerTool/src/baseTimer.h:80
     4ba:	4620      	mov	r0, r4
     4bc:	7a2b      	ldrb	r3, [r5, #8]
     4be:	4a24      	ldr	r2, [pc, #144]	; (550 <setup+0xcc>)
     4c0:	4631      	mov	r1, r6
     4c2:	47b8      	blx	r7
_ZNSt14_Function_baseD4Ev():
c:\toolchain\gcc\gcc-arm-none-eabi-5_4-2016q3-20160926-win32\arm-none-eabi\include\c++\5.4.1/functional:1829
     4c4:	9b06      	ldr	r3, [sp, #24]
_ZN15TeensyTimerTool9BaseTimer5beginINSt6chrono8durationIxSt5ratioILx1ELx1000EEEEEENS_9errorCodeESt8functionIFvvEET_b():
C:\Users\lutz\source\Teensy\tttest/lib/TeensyTimerTool/src/baseTimer.h:80
     4c6:	4604      	mov	r4, r0
_ZNSt14_Function_baseD4Ev():
c:\toolchain\gcc\gcc-arm-none-eabi-5_4-2016q3-20160926-win32\arm-none-eabi\include\c++\5.4.1/functional:1829
     4c8:	b11b      	cbz	r3, 4d2 <setup+0x4e>
c:\toolchain\gcc\gcc-arm-none-eabi-5_4-2016q3-20160926-win32\arm-none-eabi\include\c++\5.4.1/functional:1830
     4ca:	2203      	movs	r2, #3
     4cc:	4631      	mov	r1, r6
     4ce:	4630      	mov	r0, r6
     4d0:	4798      	blx	r3
_ZN15TeensyTimerTool9BaseTimer5beginINSt6chrono8durationIxSt5ratioILx1ELx1000EEEEEENS_9errorCodeESt8functionIFvvEET_b():
C:\Users\lutz\source\Teensy\tttest/lib/TeensyTimerTool/src/baseTimer.h:82
     4d2:	b154      	cbz	r4, 4ea <setup+0x66>
C:\Users\lutz\source\Teensy\tttest/lib/TeensyTimerTool/src/baseTimer.h:86
     4d4:	4620      	mov	r0, r4
     4d6:	f000 fced 	bl	eb4 <TeensyTimerTool::postError(TeensyTimerTool::errorCode)>
_ZNSt14_Function_baseD4Ev():
c:\toolchain\gcc\gcc-arm-none-eabi-5_4-2016q3-20160926-win32\arm-none-eabi\include\c++\5.4.1/functional:1829
     4da:	9b02      	ldr	r3, [sp, #8]
     4dc:	b11b      	cbz	r3, 4e6 <setup+0x62>
c:\toolchain\gcc\gcc-arm-none-eabi-5_4-2016q3-20160926-win32\arm-none-eabi\include\c++\5.4.1/functional:1830
     4de:	4669      	mov	r1, sp
     4e0:	4668      	mov	r0, sp
     4e2:	2203      	movs	r2, #3
     4e4:	4798      	blx	r3
setup():
C:\Users\lutz\source\Teensy\tttest/src/main.cpp:13
     4e6:	b009      	add	sp, #36	; 0x24
     4e8:	bdf0      	pop	{r4, r5, r6, r7, pc}
_ZN15TeensyTimerTool9BaseTimer5beginINSt6chrono8durationIxSt5ratioILx1ELx1000EEEEEENS_9errorCodeESt8functionIFvvEET_b():
C:\Users\lutz\source\Teensy\tttest/lib/TeensyTimerTool/src/baseTimer.h:84
     4ea:	7a2b      	ldrb	r3, [r5, #8]
     4ec:	4a15      	ldr	r2, [pc, #84]	; (544 <setup+0xc0>)
     4ee:	2b00      	cmp	r3, #0
     4f0:	d0f0      	beq.n	4d4 <setup+0x50>
     4f2:	6850      	ldr	r0, [r2, #4]
     4f4:	6803      	ldr	r3, [r0, #0]
     4f6:	699b      	ldr	r3, [r3, #24]
     4f8:	4798      	blx	r3
     4fa:	e7eb      	b.n	4d4 <setup+0x50>
C:\Users\lutz\source\Teensy\tttest/lib/TeensyTimerTool/src/baseTimer.h:66
     4fc:	682b      	ldr	r3, [r5, #0]
     4fe:	b163      	cbz	r3, 51a <setup+0x96>
C:\Users\lutz\source\Teensy\tttest/lib/TeensyTimerTool/src/baseTimer.h:68
     500:	4798      	blx	r3
     502:	4604      	mov	r4, r0
     504:	6068      	str	r0, [r5, #4]
C:\Users\lutz\source\Teensy\tttest/lib/TeensyTimerTool/src/baseTimer.h:69
     506:	b1c0      	cbz	r0, 53a <setup+0xb6>
C:\Users\lutz\source\Teensy\tttest/lib/TeensyTimerTool/src/baseTimer.h:80
     508:	6822      	ldr	r2, [r4, #0]
     50a:	9b02      	ldr	r3, [sp, #8]
     50c:	6817      	ldr	r7, [r2, #0]
_ZNSt14_Function_baseC4Ev():
c:\toolchain\gcc\gcc-arm-none-eabi-5_4-2016q3-20160926-win32\arm-none-eabi\include\c++\5.4.1/functional:1825
     50e:	2200      	movs	r2, #0
     510:	9206      	str	r2, [sp, #24]
_ZNSt8functionIFvvEEC4ERKS1_():
c:\toolchain\gcc\gcc-arm-none-eabi-5_4-2016q3-20160926-win32\arm-none-eabi\include\c++\5.4.1/functional:2236
     512:	2b00      	cmp	r3, #0
     514:	d1c8      	bne.n	4a8 <setup+0x24>
     516:	ae04      	add	r6, sp, #16
     518:	e7cf      	b.n	4ba <setup+0x36>
     51a:	4e0e      	ldr	r6, [pc, #56]	; (554 <setup+0xd0>)
     51c:	f106 0710 	add.w	r7, r6, #16
_ZN15TeensyTimerTool9BaseTimer5beginINSt6chrono8durationIxSt5ratioILx1ELx1000EEEEEENS_9errorCodeESt8functionIFvvEET_b():
C:\Users\lutz\source\Teensy\tttest/lib/TeensyTimerTool/src/baseTimer.h:74
     520:	f856 3b04 	ldr.w	r3, [r6], #4
     524:	4798      	blx	r3
     526:	4604      	mov	r4, r0
     528:	6068      	str	r0, [r5, #4]
C:\Users\lutz\source\Teensy\tttest/lib/TeensyTimerTool/src/baseTimer.h:72
     52a:	2800      	cmp	r0, #0
     52c:	d1ec      	bne.n	508 <setup+0x84>
     52e:	42be      	cmp	r6, r7
     530:	d1f6      	bne.n	520 <setup+0x9c>
C:\Users\lutz\source\Teensy\tttest/lib/TeensyTimerTool/src/baseTimer.h:77
     532:	2067      	movs	r0, #103	; 0x67
     534:	f000 fcbe 	bl	eb4 <TeensyTimerTool::postError(TeensyTimerTool::errorCode)>
     538:	e7cf      	b.n	4da <setup+0x56>
C:\Users\lutz\source\Teensy\tttest/lib/TeensyTimerTool/src/baseTimer.h:69
     53a:	2068      	movs	r0, #104	; 0x68
     53c:	f000 fcba 	bl	eb4 <TeensyTimerTool::postError(TeensyTimerTool::errorCode)>
     540:	e7cb      	b.n	4da <setup+0x56>
     542:	bf00      	nop
     544:	1fff90e0 	.word	0x1fff90e0
     548:	0000046d 	.word	0x0000046d
     54c:	00000479 	.word	0x00000479
     550:	48742400 	.word	0x48742400
     554:	1fff90f0 	.word	0x1fff90f0

00000558 <loop>:
loop():
C:\Users\lutz\source\Teensy\tttest/src/main.cpp:15
     558:	4770      	bx	lr
     55a:	bf00      	nop

0000055c <_GLOBAL__sub_I_t1>:
_GLOBAL__sub_I_t1():
C:\Users\lutz\source\Teensy\tttest/src/main.cpp:16
     55c:	b470      	push	{r4, r5, r6}
__static_initialization_and_destruction_0():
C:\Users\lutz\source\Teensy\tttest/lib/TeensyTimerTool/src/defaultConfig.h:23
     55e:	4b09      	ldr	r3, [pc, #36]	; (584 <_GLOBAL__sub_I_t1+0x28>)
     560:	4c09      	ldr	r4, [pc, #36]	; (588 <_GLOBAL__sub_I_t1+0x2c>)
     562:	480a      	ldr	r0, [pc, #40]	; (58c <_GLOBAL__sub_I_t1+0x30>)
     564:	4a0a      	ldr	r2, [pc, #40]	; (590 <_GLOBAL__sub_I_t1+0x34>)
     566:	6819      	ldr	r1, [r3, #0]
     568:	4b0a      	ldr	r3, [pc, #40]	; (594 <_GLOBAL__sub_I_t1+0x38>)
     56a:	6826      	ldr	r6, [r4, #0]
     56c:	6805      	ldr	r5, [r0, #0]
     56e:	6814      	ldr	r4, [r2, #0]
     570:	601e      	str	r6, [r3, #0]
     572:	605d      	str	r5, [r3, #4]
     574:	609c      	str	r4, [r3, #8]
_ZN15TeensyTimerTool13PeriodicTimerC4EPFPNS_13ITimerChannelEvE():
C:\Users\lutz\source\Teensy\tttest/lib/TeensyTimerTool/src/periodicTimer.h:11
     576:	4808      	ldr	r0, [pc, #32]	; (598 <_GLOBAL__sub_I_t1+0x3c>)
__static_initialization_and_destruction_0():
C:\Users\lutz\source\Teensy\tttest/lib/TeensyTimerTool/src/defaultConfig.h:23
     578:	60d9      	str	r1, [r3, #12]
_ZN15TeensyTimerTool13PeriodicTimerC4EPFPNS_13ITimerChannelEvE():
C:\Users\lutz\source\Teensy\tttest/lib/TeensyTimerTool/src/periodicTimer.h:11
     57a:	2201      	movs	r2, #1
_GLOBAL__sub_I_t1():
C:\Users\lutz\source\Teensy\tttest/src/main.cpp:16
     57c:	bc70      	pop	{r4, r5, r6}
_ZN15TeensyTimerTool13PeriodicTimerC4EPFPNS_13ITimerChannelEvE():
C:\Users\lutz\source\Teensy\tttest/lib/TeensyTimerTool/src/periodicTimer.h:11
     57e:	f000 bc87 	b.w	e90 <TeensyTimerTool::BaseTimer::BaseTimer(TeensyTimerTool::ITimerChannel* (*)(), bool)>
     582:	bf00      	nop
     584:	00003490 	.word	0x00003490
     588:	00003484 	.word	0x00003484
     58c:	00003488 	.word	0x00003488
     590:	0000348c 	.word	0x0000348c
     594:	1fff90f0 	.word	0x1fff90f0
     598:	1fff90e0 	.word	0x1fff90e0

0000059c <TeensyTimerTool::ITimerChannel::getPeriod()>:
_ZN15TeensyTimerTool13ITimerChannel9getPeriodEv():
C:\Users\lutz\source\Teensy\tttest/lib/TeensyTimerTool/src//Teensy/FTM/../../ITimerChannel.h:26
     59c:	2000      	movs	r0, #0
     59e:	4770      	bx	lr

000005a0 <TeensyTimerTool::FTM_Channel::start()>:
_ZN15TeensyTimerTool11FTM_Channel5startEv():
C:\Users\lutz\source\Teensy\tttest/lib/TeensyTimerTool/src//Teensy/FTM/FTM_Channel.h:61
     5a0:	6883      	ldr	r3, [r0, #8]
     5a2:	68c0      	ldr	r0, [r0, #12]
     5a4:	695a      	ldr	r2, [r3, #20]
     5a6:	6840      	ldr	r0, [r0, #4]
     5a8:	699b      	ldr	r3, [r3, #24]
     5aa:	4402      	add	r2, r0
     5ac:	605a      	str	r2, [r3, #4]
C:\Users\lutz\source\Teensy\tttest/lib/TeensyTimerTool/src//Teensy/FTM/FTM_Channel.h:62
     5ae:	681a      	ldr	r2, [r3, #0]
C:\Users\lutz\source\Teensy\tttest/lib/TeensyTimerTool/src//Teensy/FTM/FTM_Channel.h:63
     5b0:	2150      	movs	r1, #80	; 0x50
C:\Users\lutz\source\Teensy\tttest/lib/TeensyTimerTool/src//Teensy/FTM/FTM_Channel.h:62
     5b2:	f022 0280 	bic.w	r2, r2, #128	; 0x80
     5b6:	601a      	str	r2, [r3, #0]
C:\Users\lutz\source\Teensy\tttest/lib/TeensyTimerTool/src//Teensy/FTM/FTM_Channel.h:65
     5b8:	2000      	movs	r0, #0
C:\Users\lutz\source\Teensy\tttest/lib/TeensyTimerTool/src//Teensy/FTM/FTM_Channel.h:63
     5ba:	6019      	str	r1, [r3, #0]
C:\Users\lutz\source\Teensy\tttest/lib/TeensyTimerTool/src//Teensy/FTM/FTM_Channel.h:65
     5bc:	4770      	bx	lr
     5be:	bf00      	nop

000005c0 <TeensyTimerTool::FTM_Channel::stop()>:
_ZN15TeensyTimerTool11FTM_Channel4stopEv():
C:\Users\lutz\source\Teensy\tttest/lib/TeensyTimerTool/src//Teensy/FTM/FTM_Channel.h:69
     5c0:	6883      	ldr	r3, [r0, #8]
     5c2:	699b      	ldr	r3, [r3, #24]
     5c4:	681a      	ldr	r2, [r3, #0]
     5c6:	f022 0240 	bic.w	r2, r2, #64	; 0x40
     5ca:	601a      	str	r2, [r3, #0]
C:\Users\lutz\source\Teensy\tttest/lib/TeensyTimerTool/src//Teensy/FTM/FTM_Channel.h:70
     5cc:	681a      	ldr	r2, [r3, #0]
     5ce:	f022 0280 	bic.w	r2, r2, #128	; 0x80
     5d2:	601a      	str	r2, [r3, #0]
C:\Users\lutz\source\Teensy\tttest/lib/TeensyTimerTool/src//Teensy/FTM/FTM_Channel.h:73
     5d4:	2000      	movs	r0, #0
     5d6:	4770      	bx	lr

000005d8 <TeensyTimerTool::FTM_Channel::getMaxPeriod() const>:
_ZNK15TeensyTimerTool11FTM_Channel12getMaxPeriodEv():
C:\Users\lutz\source\Teensy\tttest/lib/TeensyTimerTool/src//Teensy/FTM/FTM_Channel.h:101
     5d8:	b508      	push	{r3, lr}
C:\Users\lutz\source\Teensy\tttest/lib/TeensyTimerTool/src//Teensy/FTM/FTM_Channel.h:102
     5da:	6883      	ldr	r3, [r0, #8]
     5dc:	4802      	ldr	r0, [pc, #8]	; (5e8 <TeensyTimerTool::FTM_Channel::getMaxPeriod() const+0x10>)
     5de:	69d9      	ldr	r1, [r3, #28]
     5e0:	f002 f910 	bl	2804 <__aeabi_fdiv>
C:\Users\lutz\source\Teensy\tttest/lib/TeensyTimerTool/src//Teensy/FTM/FTM_Channel.h:103
     5e4:	bd08      	pop	{r3, pc}
     5e6:	bf00      	nop
     5e8:	3d863737 	.word	0x3d863737

000005ec <TeensyTimerTool::FTM_Channel::~FTM_Channel()>:
_ZN15TeensyTimerTool11FTM_ChannelD2Ev():
C:\Users\lutz\source\Teensy\tttest/lib/TeensyTimerTool/src//Teensy/FTM/FTM_Channel.h:118
     5ec:	4770      	bx	lr
     5ee:	bf00      	nop

000005f0 <TeensyTimerTool::FTM_t<0u>::isr()>:
_ZN15TeensyTimerTool5FTM_tILj0EE3isrEv():
C:\Users\lutz\source\Teensy\tttest/lib/TeensyTimerTool/src//Teensy/FTM/FTM.h:65
     5f0:	b570      	push	{r4, r5, r6, lr}
     5f2:	4c14      	ldr	r4, [pc, #80]	; (644 <TeensyTimerTool::FTM_t<0u>::isr()+0x54>)
C:\Users\lutz\source\Teensy\tttest/lib/TeensyTimerTool/src//Teensy/FTM/FTM.h:76
     5f4:	4e14      	ldr	r6, [pc, #80]	; (648 <TeensyTimerTool::FTM_t<0u>::isr()+0x58>)
     5f6:	f504 7580 	add.w	r5, r4, #256	; 0x100
     5fa:	e002      	b.n	602 <TeensyTimerTool::FTM_t<0u>::isr()+0x12>
     5fc:	3420      	adds	r4, #32
C:\Users\lutz\source\Teensy\tttest/lib/TeensyTimerTool/src//Teensy/FTM/FTM.h:67 (discriminator 2)
     5fe:	42ac      	cmp	r4, r5
     600:	d018      	beq.n	634 <TeensyTimerTool::FTM_t<0u>::isr()+0x44>
C:\Users\lutz\source\Teensy\tttest/lib/TeensyTimerTool/src//Teensy/FTM/FTM.h:70
     602:	6962      	ldr	r2, [r4, #20]
C:\Users\lutz\source\Teensy\tttest/lib/TeensyTimerTool/src//Teensy/FTM/FTM.h:71
     604:	6813      	ldr	r3, [r2, #0]
     606:	f003 03c0 	and.w	r3, r3, #192	; 0xc0
     60a:	2bc0      	cmp	r3, #192	; 0xc0
     60c:	d1f6      	bne.n	5fc <TeensyTimerTool::FTM_t<0u>::isr()+0xc>
C:\Users\lutz\source\Teensy\tttest/lib/TeensyTimerTool/src//Teensy/FTM/FTM.h:73
     60e:	f814 3c03 	ldrb.w	r3, [r4, #-3]
     612:	b18b      	cbz	r3, 638 <TeensyTimerTool::FTM_t<0u>::isr()+0x48>
C:\Users\lutz\source\Teensy\tttest/lib/TeensyTimerTool/src//Teensy/FTM/FTM.h:75
     614:	6813      	ldr	r3, [r2, #0]
     616:	f023 0380 	bic.w	r3, r3, #128	; 0x80
     61a:	6013      	str	r3, [r2, #0]
C:\Users\lutz\source\Teensy\tttest/lib/TeensyTimerTool/src//Teensy/FTM/FTM.h:76
     61c:	6871      	ldr	r1, [r6, #4]
     61e:	6923      	ldr	r3, [r4, #16]
     620:	440b      	add	r3, r1
     622:	6053      	str	r3, [r2, #4]
_ZNKSt8functionIFvvEEclEv():
c:\toolchain\gcc\gcc-arm-none-eabi-5_4-2016q3-20160926-win32\arm-none-eabi\include\c++\5.4.1/functional:2265
     624:	68a3      	ldr	r3, [r4, #8]
c:\toolchain\gcc\gcc-arm-none-eabi-5_4-2016q3-20160926-win32\arm-none-eabi\include\c++\5.4.1/functional:2267
     626:	4620      	mov	r0, r4
c:\toolchain\gcc\gcc-arm-none-eabi-5_4-2016q3-20160926-win32\arm-none-eabi\include\c++\5.4.1/functional:2265
     628:	b12b      	cbz	r3, 636 <TeensyTimerTool::FTM_t<0u>::isr()+0x46>
c:\toolchain\gcc\gcc-arm-none-eabi-5_4-2016q3-20160926-win32\arm-none-eabi\include\c++\5.4.1/functional:2267
     62a:	68e3      	ldr	r3, [r4, #12]
     62c:	3420      	adds	r4, #32
     62e:	4798      	blx	r3
_ZN15TeensyTimerTool5FTM_tILj0EE3isrEv():
C:\Users\lutz\source\Teensy\tttest/lib/TeensyTimerTool/src//Teensy/FTM/FTM.h:67
     630:	42ac      	cmp	r4, r5
     632:	d1e6      	bne.n	602 <TeensyTimerTool::FTM_t<0u>::isr()+0x12>
C:\Users\lutz\source\Teensy\tttest/lib/TeensyTimerTool/src//Teensy/FTM/FTM.h:84
     634:	bd70      	pop	{r4, r5, r6, pc}
     636:	e7fe      	b.n	636 <TeensyTimerTool::FTM_t<0u>::isr()+0x46>
C:\Users\lutz\source\Teensy\tttest/lib/TeensyTimerTool/src//Teensy/FTM/FTM.h:79
     638:	6813      	ldr	r3, [r2, #0]
     63a:	f023 0340 	bic.w	r3, r3, #64	; 0x40
     63e:	6013      	str	r3, [r2, #0]
     640:	e7f0      	b.n	624 <TeensyTimerTool::FTM_t<0u>::isr()+0x34>
     642:	bf00      	nop
     644:	1fff9194 	.word	0x1fff9194
     648:	40038000 	.word	0x40038000

0000064c <TeensyTimerTool::FTM_t<1u>::isr()>:
_ZN15TeensyTimerTool5FTM_tILj1EE3isrEv():
C:\Users\lutz\source\Teensy\tttest/lib/TeensyTimerTool/src//Teensy/FTM/FTM.h:65
     64c:	b570      	push	{r4, r5, r6, lr}
     64e:	4c12      	ldr	r4, [pc, #72]	; (698 <TeensyTimerTool::FTM_t<1u>::isr()+0x4c>)
C:\Users\lutz\source\Teensy\tttest/lib/TeensyTimerTool/src//Teensy/FTM/FTM.h:76
     650:	4e12      	ldr	r6, [pc, #72]	; (69c <TeensyTimerTool::FTM_t<1u>::isr()+0x50>)
     652:	f104 0540 	add.w	r5, r4, #64	; 0x40
C:\Users\lutz\source\Teensy\tttest/lib/TeensyTimerTool/src//Teensy/FTM/FTM.h:70
     656:	6962      	ldr	r2, [r4, #20]
C:\Users\lutz\source\Teensy\tttest/lib/TeensyTimerTool/src//Teensy/FTM/FTM.h:71
     658:	6813      	ldr	r3, [r2, #0]
     65a:	f003 03c0 	and.w	r3, r3, #192	; 0xc0
     65e:	2bc0      	cmp	r3, #192	; 0xc0
     660:	d003      	beq.n	66a <TeensyTimerTool::FTM_t<1u>::isr()+0x1e>
     662:	3420      	adds	r4, #32
C:\Users\lutz\source\Teensy\tttest/lib/TeensyTimerTool/src//Teensy/FTM/FTM.h:67 (discriminator 2)
     664:	42ac      	cmp	r4, r5
     666:	d1f6      	bne.n	656 <TeensyTimerTool::FTM_t<1u>::isr()+0xa>
C:\Users\lutz\source\Teensy\tttest/lib/TeensyTimerTool/src//Teensy/FTM/FTM.h:84
     668:	bd70      	pop	{r4, r5, r6, pc}
C:\Users\lutz\source\Teensy\tttest/lib/TeensyTimerTool/src//Teensy/FTM/FTM.h:73
     66a:	f814 3c03 	ldrb.w	r3, [r4, #-3]
     66e:	b953      	cbnz	r3, 686 <TeensyTimerTool::FTM_t<1u>::isr()+0x3a>
C:\Users\lutz\source\Teensy\tttest/lib/TeensyTimerTool/src//Teensy/FTM/FTM.h:79
     670:	6813      	ldr	r3, [r2, #0]
     672:	f023 0340 	bic.w	r3, r3, #64	; 0x40
     676:	6013      	str	r3, [r2, #0]
_ZNKSt8functionIFvvEEclEv():
c:\toolchain\gcc\gcc-arm-none-eabi-5_4-2016q3-20160926-win32\arm-none-eabi\include\c++\5.4.1/functional:2265
     678:	68a3      	ldr	r3, [r4, #8]
c:\toolchain\gcc\gcc-arm-none-eabi-5_4-2016q3-20160926-win32\arm-none-eabi\include\c++\5.4.1/functional:2267
     67a:	4620      	mov	r0, r4
c:\toolchain\gcc\gcc-arm-none-eabi-5_4-2016q3-20160926-win32\arm-none-eabi\include\c++\5.4.1/functional:2265
     67c:	b113      	cbz	r3, 684 <TeensyTimerTool::FTM_t<1u>::isr()+0x38>
c:\toolchain\gcc\gcc-arm-none-eabi-5_4-2016q3-20160926-win32\arm-none-eabi\include\c++\5.4.1/functional:2267
     67e:	68e3      	ldr	r3, [r4, #12]
     680:	4798      	blx	r3
     682:	e7ee      	b.n	662 <TeensyTimerTool::FTM_t<1u>::isr()+0x16>
     684:	e7fe      	b.n	684 <TeensyTimerTool::FTM_t<1u>::isr()+0x38>
_ZN15TeensyTimerTool5FTM_tILj1EE3isrEv():
C:\Users\lutz\source\Teensy\tttest/lib/TeensyTimerTool/src//Teensy/FTM/FTM.h:75
     686:	6813      	ldr	r3, [r2, #0]
     688:	f023 0380 	bic.w	r3, r3, #128	; 0x80
     68c:	6013      	str	r3, [r2, #0]
C:\Users\lutz\source\Teensy\tttest/lib/TeensyTimerTool/src//Teensy/FTM/FTM.h:76
     68e:	6871      	ldr	r1, [r6, #4]
     690:	6923      	ldr	r3, [r4, #16]
     692:	440b      	add	r3, r1
     694:	6053      	str	r3, [r2, #4]
     696:	e7ef      	b.n	678 <TeensyTimerTool::FTM_t<1u>::isr()+0x2c>
     698:	1fff9154 	.word	0x1fff9154
     69c:	40039000 	.word	0x40039000

000006a0 <TeensyTimerTool::FTM_t<2u>::isr()>:
_ZN15TeensyTimerTool5FTM_tILj2EE3isrEv():
C:\Users\lutz\source\Teensy\tttest/lib/TeensyTimerTool/src//Teensy/FTM/FTM.h:65
     6a0:	b570      	push	{r4, r5, r6, lr}
     6a2:	4c12      	ldr	r4, [pc, #72]	; (6ec <TeensyTimerTool::FTM_t<2u>::isr()+0x4c>)
C:\Users\lutz\source\Teensy\tttest/lib/TeensyTimerTool/src//Teensy/FTM/FTM.h:76
     6a4:	4e12      	ldr	r6, [pc, #72]	; (6f0 <TeensyTimerTool::FTM_t<2u>::isr()+0x50>)
     6a6:	f104 0540 	add.w	r5, r4, #64	; 0x40
C:\Users\lutz\source\Teensy\tttest/lib/TeensyTimerTool/src//Teensy/FTM/FTM.h:70
     6aa:	6962      	ldr	r2, [r4, #20]
C:\Users\lutz\source\Teensy\tttest/lib/TeensyTimerTool/src//Teensy/FTM/FTM.h:71
     6ac:	6813      	ldr	r3, [r2, #0]
     6ae:	f003 03c0 	and.w	r3, r3, #192	; 0xc0
     6b2:	2bc0      	cmp	r3, #192	; 0xc0
     6b4:	d003      	beq.n	6be <TeensyTimerTool::FTM_t<2u>::isr()+0x1e>
     6b6:	3420      	adds	r4, #32
C:\Users\lutz\source\Teensy\tttest/lib/TeensyTimerTool/src//Teensy/FTM/FTM.h:67 (discriminator 2)
     6b8:	42ac      	cmp	r4, r5
     6ba:	d1f6      	bne.n	6aa <TeensyTimerTool::FTM_t<2u>::isr()+0xa>
C:\Users\lutz\source\Teensy\tttest/lib/TeensyTimerTool/src//Teensy/FTM/FTM.h:84
     6bc:	bd70      	pop	{r4, r5, r6, pc}
C:\Users\lutz\source\Teensy\tttest/lib/TeensyTimerTool/src//Teensy/FTM/FTM.h:73
     6be:	f814 3c03 	ldrb.w	r3, [r4, #-3]
     6c2:	b953      	cbnz	r3, 6da <TeensyTimerTool::FTM_t<2u>::isr()+0x3a>
C:\Users\lutz\source\Teensy\tttest/lib/TeensyTimerTool/src//Teensy/FTM/FTM.h:79
     6c4:	6813      	ldr	r3, [r2, #0]
     6c6:	f023 0340 	bic.w	r3, r3, #64	; 0x40
     6ca:	6013      	str	r3, [r2, #0]
_ZNKSt8functionIFvvEEclEv():
c:\toolchain\gcc\gcc-arm-none-eabi-5_4-2016q3-20160926-win32\arm-none-eabi\include\c++\5.4.1/functional:2265
     6cc:	68a3      	ldr	r3, [r4, #8]
c:\toolchain\gcc\gcc-arm-none-eabi-5_4-2016q3-20160926-win32\arm-none-eabi\include\c++\5.4.1/functional:2267
     6ce:	4620      	mov	r0, r4
c:\toolchain\gcc\gcc-arm-none-eabi-5_4-2016q3-20160926-win32\arm-none-eabi\include\c++\5.4.1/functional:2265
     6d0:	b113      	cbz	r3, 6d8 <TeensyTimerTool::FTM_t<2u>::isr()+0x38>
c:\toolchain\gcc\gcc-arm-none-eabi-5_4-2016q3-20160926-win32\arm-none-eabi\include\c++\5.4.1/functional:2267
     6d2:	68e3      	ldr	r3, [r4, #12]
     6d4:	4798      	blx	r3
     6d6:	e7ee      	b.n	6b6 <TeensyTimerTool::FTM_t<2u>::isr()+0x16>
     6d8:	e7fe      	b.n	6d8 <TeensyTimerTool::FTM_t<2u>::isr()+0x38>
_ZN15TeensyTimerTool5FTM_tILj2EE3isrEv():
C:\Users\lutz\source\Teensy\tttest/lib/TeensyTimerTool/src//Teensy/FTM/FTM.h:75
     6da:	6813      	ldr	r3, [r2, #0]
     6dc:	f023 0380 	bic.w	r3, r3, #128	; 0x80
     6e0:	6013      	str	r3, [r2, #0]
C:\Users\lutz\source\Teensy\tttest/lib/TeensyTimerTool/src//Teensy/FTM/FTM.h:76
     6e2:	6871      	ldr	r1, [r6, #4]
     6e4:	6923      	ldr	r3, [r4, #16]
     6e6:	440b      	add	r3, r1
     6e8:	6053      	str	r3, [r2, #4]
     6ea:	e7ef      	b.n	6cc <TeensyTimerTool::FTM_t<2u>::isr()+0x2c>
     6ec:	1fff9114 	.word	0x1fff9114
     6f0:	400b8000 	.word	0x400b8000

000006f4 <__tcf_0>:
__tcf_0():
C:\Users\lutz\source\Teensy\tttest/lib/TeensyTimerTool/src//Teensy/FTM/FTM.h:87
     6f4:	b538      	push	{r3, r4, r5, lr}
     6f6:	4c06      	ldr	r4, [pc, #24]	; (710 <__tcf_0+0x1c>)
     6f8:	f5a4 7580 	sub.w	r5, r4, #256	; 0x100
_ZNSt14_Function_baseD4Ev():
c:\toolchain\gcc\gcc-arm-none-eabi-5_4-2016q3-20160926-win32\arm-none-eabi\include\c++\5.4.1/functional:1829 (discriminator 3)
     6fc:	68e3      	ldr	r3, [r4, #12]
     6fe:	1d21      	adds	r1, r4, #4
c:\toolchain\gcc\gcc-arm-none-eabi-5_4-2016q3-20160926-win32\arm-none-eabi\include\c++\5.4.1/functional:1830 (discriminator 3)
     700:	2203      	movs	r2, #3
     702:	3c20      	subs	r4, #32
     704:	4608      	mov	r0, r1
c:\toolchain\gcc\gcc-arm-none-eabi-5_4-2016q3-20160926-win32\arm-none-eabi\include\c++\5.4.1/functional:1829 (discriminator 3)
     706:	b103      	cbz	r3, 70a <__tcf_0+0x16>
c:\toolchain\gcc\gcc-arm-none-eabi-5_4-2016q3-20160926-win32\arm-none-eabi\include\c++\5.4.1/functional:1830
     708:	4798      	blx	r3
__tcf_0():
C:\Users\lutz\source\Teensy\tttest/lib/TeensyTimerTool/src//Teensy/FTM/FTM.h:87
     70a:	42ac      	cmp	r4, r5
     70c:	d1f6      	bne.n	6fc <__tcf_0+0x8>
     70e:	bd38      	pop	{r3, r4, r5, pc}
     710:	1fff9270 	.word	0x1fff9270

00000714 <__tcf_1>:
__tcf_1():
C:\Users\lutz\source\Teensy\tttest/lib/TeensyTimerTool/src//Teensy/FTM/FTM.h:87
     714:	b510      	push	{r4, lr}
_ZNSt14_Function_baseD4Ev():
c:\toolchain\gcc\gcc-arm-none-eabi-5_4-2016q3-20160926-win32\arm-none-eabi\include\c++\5.4.1/functional:1829
     716:	4c08      	ldr	r4, [pc, #32]	; (738 <__tcf_1+0x24>)
     718:	6ae3      	ldr	r3, [r4, #44]	; 0x2c
     71a:	b123      	cbz	r3, 726 <__tcf_1+0x12>
c:\toolchain\gcc\gcc-arm-none-eabi-5_4-2016q3-20160926-win32\arm-none-eabi\include\c++\5.4.1/functional:1830
     71c:	f104 0124 	add.w	r1, r4, #36	; 0x24
     720:	4608      	mov	r0, r1
     722:	2203      	movs	r2, #3
     724:	4798      	blx	r3
c:\toolchain\gcc\gcc-arm-none-eabi-5_4-2016q3-20160926-win32\arm-none-eabi\include\c++\5.4.1/functional:1829
     726:	68e3      	ldr	r3, [r4, #12]
     728:	b12b      	cbz	r3, 736 <__tcf_1+0x22>
c:\toolchain\gcc\gcc-arm-none-eabi-5_4-2016q3-20160926-win32\arm-none-eabi\include\c++\5.4.1/functional:1830
     72a:	4904      	ldr	r1, [pc, #16]	; (73c <__tcf_1+0x28>)
     72c:	2203      	movs	r2, #3
     72e:	4608      	mov	r0, r1
__tcf_1():
C:\Users\lutz\source\Teensy\tttest/lib/TeensyTimerTool/src//Teensy/FTM/FTM.h:87
     730:	e8bd 4010 	ldmia.w	sp!, {r4, lr}
_ZNSt14_Function_baseD4Ev():
c:\toolchain\gcc\gcc-arm-none-eabi-5_4-2016q3-20160926-win32\arm-none-eabi\include\c++\5.4.1/functional:1830
     734:	4718      	bx	r3
     736:	bd10      	pop	{r4, pc}
     738:	1fff9150 	.word	0x1fff9150
     73c:	1fff9154 	.word	0x1fff9154

00000740 <__tcf_2>:
__tcf_2():
C:\Users\lutz\source\Teensy\tttest/lib/TeensyTimerTool/src//Teensy/FTM/FTM.h:87
     740:	b510      	push	{r4, lr}
_ZNSt14_Function_baseD4Ev():
c:\toolchain\gcc\gcc-arm-none-eabi-5_4-2016q3-20160926-win32\arm-none-eabi\include\c++\5.4.1/functional:1829
     742:	4c08      	ldr	r4, [pc, #32]	; (764 <__tcf_2+0x24>)
     744:	6ae3      	ldr	r3, [r4, #44]	; 0x2c
     746:	b123      	cbz	r3, 752 <__tcf_2+0x12>
c:\toolchain\gcc\gcc-arm-none-eabi-5_4-2016q3-20160926-win32\arm-none-eabi\include\c++\5.4.1/functional:1830
     748:	f104 0124 	add.w	r1, r4, #36	; 0x24
     74c:	4608      	mov	r0, r1
     74e:	2203      	movs	r2, #3
     750:	4798      	blx	r3
c:\toolchain\gcc\gcc-arm-none-eabi-5_4-2016q3-20160926-win32\arm-none-eabi\include\c++\5.4.1/functional:1829
     752:	68e3      	ldr	r3, [r4, #12]
     754:	b12b      	cbz	r3, 762 <__tcf_2+0x22>
c:\toolchain\gcc\gcc-arm-none-eabi-5_4-2016q3-20160926-win32\arm-none-eabi\include\c++\5.4.1/functional:1830
     756:	4904      	ldr	r1, [pc, #16]	; (768 <__tcf_2+0x28>)
     758:	2203      	movs	r2, #3
     75a:	4608      	mov	r0, r1
__tcf_2():
C:\Users\lutz\source\Teensy\tttest/lib/TeensyTimerTool/src//Teensy/FTM/FTM.h:87
     75c:	e8bd 4010 	ldmia.w	sp!, {r4, lr}
_ZNSt14_Function_baseD4Ev():
c:\toolchain\gcc\gcc-arm-none-eabi-5_4-2016q3-20160926-win32\arm-none-eabi\include\c++\5.4.1/functional:1830
     760:	4718      	bx	r3
     762:	bd10      	pop	{r4, pc}
     764:	1fff9110 	.word	0x1fff9110
     768:	1fff9114 	.word	0x1fff9114

0000076c <TeensyTimerTool::TckChannel<unsigned long>::triggerDirect(unsigned long)>:
_ZN15TeensyTimerTool10TckChannelImE15getCycleCounterEv():
C:\Users\lutz\source\Teensy\tttest/lib/TeensyTimerTool/src//Teensy/TCK/TckChannel.h:160
     76c:	4b04      	ldr	r3, [pc, #16]	; (780 <TeensyTimerTool::TckChannel<unsigned long>::triggerDirect(unsigned long)+0x14>)
     76e:	681b      	ldr	r3, [r3, #0]
_ZN15TeensyTimerTool10TckChannelImE13triggerDirectEm():
C:\Users\lutz\source\Teensy\tttest/lib/TeensyTimerTool/src//Teensy/TCK/TckChannel.h:110
     770:	61c3      	str	r3, [r0, #28]
C:\Users\lutz\source\Teensy\tttest/lib/TeensyTimerTool/src//Teensy/TCK/TckChannel.h:113
     772:	2301      	movs	r3, #1
C:\Users\lutz\source\Teensy\tttest/lib/TeensyTimerTool/src//Teensy/TCK/TckChannel.h:111
     774:	6241      	str	r1, [r0, #36]	; 0x24
C:\Users\lutz\source\Teensy\tttest/lib/TeensyTimerTool/src//Teensy/TCK/TckChannel.h:112
     776:	6201      	str	r1, [r0, #32]
C:\Users\lutz\source\Teensy\tttest/lib/TeensyTimerTool/src//Teensy/TCK/TckChannel.h:113
     778:	7643      	strb	r3, [r0, #25]
C:\Users\lutz\source\Teensy\tttest/lib/TeensyTimerTool/src//Teensy/TCK/TckChannel.h:115
     77a:	2000      	movs	r0, #0
     77c:	4770      	bx	lr
     77e:	bf00      	nop
     780:	e0001004 	.word	0xe0001004

00000784 <TeensyTimerTool::TckChannel<unsigned long>::start()>:
_ZN15TeensyTimerTool10TckChannelImE15getCycleCounterEv():
C:\Users\lutz\source\Teensy\tttest/lib/TeensyTimerTool/src//Teensy/TCK/TckChannel.h:160
     784:	4b03      	ldr	r3, [pc, #12]	; (794 <TeensyTimerTool::TckChannel<unsigned long>::start()+0x10>)
     786:	681b      	ldr	r3, [r3, #0]
_ZN15TeensyTimerTool10TckChannelImE5startEv():
C:\Users\lutz\source\Teensy\tttest/lib/TeensyTimerTool/src//Teensy/TCK/TckChannel.h:95
     788:	61c3      	str	r3, [r0, #28]
C:\Users\lutz\source\Teensy\tttest/lib/TeensyTimerTool/src//Teensy/TCK/TckChannel.h:96
     78a:	2301      	movs	r3, #1
     78c:	7643      	strb	r3, [r0, #25]
C:\Users\lutz\source\Teensy\tttest/lib/TeensyTimerTool/src//Teensy/TCK/TckChannel.h:98
     78e:	2000      	movs	r0, #0
     790:	4770      	bx	lr
     792:	bf00      	nop
     794:	e0001004 	.word	0xe0001004

00000798 <TeensyTimerTool::TckChannel<unsigned long>::stop()>:
_ZN15TeensyTimerTool10TckChannelImE4stopEv():
C:\Users\lutz\source\Teensy\tttest/lib/TeensyTimerTool/src//Teensy/TCK/TckChannel.h:103
     798:	2300      	movs	r3, #0
     79a:	7643      	strb	r3, [r0, #25]
C:\Users\lutz\source\Teensy\tttest/lib/TeensyTimerTool/src//Teensy/TCK/TckChannel.h:105
     79c:	4618      	mov	r0, r3
     79e:	4770      	bx	lr

000007a0 <TeensyTimerTool::TckChannel<unsigned long>::getMaxPeriod() const>:
_ZNK15TeensyTimerTool10TckChannelImE12getMaxPeriodEv():
C:\Users\lutz\source\Teensy\tttest/lib/TeensyTimerTool/src//Teensy/TCK/TckChannel.h:33
     7a0:	b508      	push	{r3, lr}
     7a2:	6b01      	ldr	r1, [r0, #48]	; 0x30
     7a4:	4803      	ldr	r0, [pc, #12]	; (7b4 <TeensyTimerTool::TckChannel<unsigned long>::getMaxPeriod() const+0x14>)
     7a6:	f002 f82d 	bl	2804 <__aeabi_fdiv>
     7aa:	4903      	ldr	r1, [pc, #12]	; (7b8 <TeensyTimerTool::TckChannel<unsigned long>::getMaxPeriod() const+0x18>)
     7ac:	f002 f82a 	bl	2804 <__aeabi_fdiv>
     7b0:	bd08      	pop	{r3, pc}
     7b2:	bf00      	nop
     7b4:	4f700000 	.word	0x4f700000
     7b8:	49742400 	.word	0x49742400

000007bc <TeensyTimerTool::TckChannel<unsigned long>::tick()>:
_ZN15TeensyTimerTool10TckChannelImE4tickEv():
C:\Users\lutz\source\Teensy\tttest/lib/TeensyTimerTool/src//Teensy/TCK/TckChannel.h:124
     7bc:	b5f8      	push	{r3, r4, r5, r6, r7, lr}
C:\Users\lutz\source\Teensy\tttest/lib/TeensyTimerTool/src//Teensy/TCK/TckChannel.h:128
     7be:	4d10      	ldr	r5, [pc, #64]	; (800 <TeensyTimerTool::TckChannel<unsigned long>::tick()+0x44>)
_ZN15TeensyTimerTool10TckChannelImE15getCycleCounterEv():
C:\Users\lutz\source\Teensy\tttest/lib/TeensyTimerTool/src//Teensy/TCK/TckChannel.h:160
     7c0:	4b10      	ldr	r3, [pc, #64]	; (804 <TeensyTimerTool::TckChannel<unsigned long>::tick()+0x48>)
_ZN15TeensyTimerTool10TckChannelImE4tickEv():
C:\Users\lutz\source\Teensy\tttest/lib/TeensyTimerTool/src//Teensy/TCK/TckChannel.h:128
     7c2:	782c      	ldrb	r4, [r5, #0]
_ZN15TeensyTimerTool10TckChannelImE15getCycleCounterEv():
C:\Users\lutz\source\Teensy\tttest/lib/TeensyTimerTool/src//Teensy/TCK/TckChannel.h:160
     7c4:	681a      	ldr	r2, [r3, #0]
_ZN15TeensyTimerTool10TckChannelImE4tickEv():
C:\Users\lutz\source\Teensy\tttest/lib/TeensyTimerTool/src//Teensy/TCK/TckChannel.h:128
     7c6:	b9b4      	cbnz	r4, 7f6 <TeensyTimerTool::TckChannel<unsigned long>::tick()+0x3a>
C:\Users\lutz\source\Teensy\tttest/lib/TeensyTimerTool/src//Teensy/TCK/TckChannel.h:128 (discriminator 1)
     7c8:	6a01      	ldr	r1, [r0, #32]
     7ca:	b191      	cbz	r1, 7f2 <TeensyTimerTool::TckChannel<unsigned long>::tick()+0x36>
C:\Users\lutz\source\Teensy\tttest/lib/TeensyTimerTool/src//Teensy/TCK/TckChannel.h:128 (discriminator 2)
     7cc:	7e46      	ldrb	r6, [r0, #25]
     7ce:	b186      	cbz	r6, 7f2 <TeensyTimerTool::TckChannel<unsigned long>::tick()+0x36>
C:\Users\lutz\source\Teensy\tttest/lib/TeensyTimerTool/src//Teensy/TCK/TckChannel.h:128 (discriminator 3)
     7d0:	69c3      	ldr	r3, [r0, #28]
     7d2:	1ad2      	subs	r2, r2, r3
     7d4:	4291      	cmp	r1, r2
     7d6:	d80c      	bhi.n	7f2 <TeensyTimerTool::TckChannel<unsigned long>::tick()+0x36>
_ZNKSt8functionIFvvEEclEv():
c:\toolchain\gcc\gcc-arm-none-eabi-5_4-2016q3-20160926-win32\arm-none-eabi\include\c++\5.4.1/functional:2265
     7d8:	6902      	ldr	r2, [r0, #16]
_ZN15TeensyTimerTool10TckChannelImE4tickEv():
C:\Users\lutz\source\Teensy\tttest/lib/TeensyTimerTool/src//Teensy/TCK/TckChannel.h:133
     7da:	7e07      	ldrb	r7, [r0, #24]
     7dc:	7647      	strb	r7, [r0, #25]
C:\Users\lutz\source\Teensy\tttest/lib/TeensyTimerTool/src//Teensy/TCK/TckChannel.h:132
     7de:	440b      	add	r3, r1
C:\Users\lutz\source\Teensy\tttest/lib/TeensyTimerTool/src//Teensy/TCK/TckChannel.h:130
     7e0:	2101      	movs	r1, #1
C:\Users\lutz\source\Teensy\tttest/lib/TeensyTimerTool/src//Teensy/TCK/TckChannel.h:132
     7e2:	61c3      	str	r3, [r0, #28]
C:\Users\lutz\source\Teensy\tttest/lib/TeensyTimerTool/src//Teensy/TCK/TckChannel.h:130
     7e4:	7029      	strb	r1, [r5, #0]
_ZNKSt8functionIFvvEEclEv():
c:\toolchain\gcc\gcc-arm-none-eabi-5_4-2016q3-20160926-win32\arm-none-eabi\include\c++\5.4.1/functional:2265
     7e6:	b14a      	cbz	r2, 7fc <TeensyTimerTool::TckChannel<unsigned long>::tick()+0x40>
c:\toolchain\gcc\gcc-arm-none-eabi-5_4-2016q3-20160926-win32\arm-none-eabi\include\c++\5.4.1/functional:2267
     7e8:	6943      	ldr	r3, [r0, #20]
     7ea:	3008      	adds	r0, #8
     7ec:	4798      	blx	r3
_ZN15TeensyTimerTool10TckChannelImE4tickEv():
C:\Users\lutz\source\Teensy\tttest/lib/TeensyTimerTool/src//Teensy/TCK/TckChannel.h:135
     7ee:	702c      	strb	r4, [r5, #0]
C:\Users\lutz\source\Teensy\tttest/lib/TeensyTimerTool/src//Teensy/TCK/TckChannel.h:136
     7f0:	4634      	mov	r4, r6
C:\Users\lutz\source\Teensy\tttest/lib/TeensyTimerTool/src//Teensy/TCK/TckChannel.h:141
     7f2:	4620      	mov	r0, r4
     7f4:	bdf8      	pop	{r3, r4, r5, r6, r7, pc}
C:\Users\lutz\source\Teensy\tttest/lib/TeensyTimerTool/src//Teensy/TCK/TckChannel.h:139
     7f6:	2400      	movs	r4, #0
C:\Users\lutz\source\Teensy\tttest/lib/TeensyTimerTool/src//Teensy/TCK/TckChannel.h:141
     7f8:	4620      	mov	r0, r4
     7fa:	bdf8      	pop	{r3, r4, r5, r6, r7, pc}
     7fc:	e7fe      	b.n	7fc <TeensyTimerTool::TckChannel<unsigned long>::tick()+0x40>
     7fe:	bf00      	nop
     800:	1fff9100 	.word	0x1fff9100
     804:	e0001004 	.word	0xe0001004

00000808 <TeensyTimerTool::TckChannel<unsigned long>::~TckChannel()>:
_ZNSt14_Function_baseD4Ev():
c:\toolchain\gcc\gcc-arm-none-eabi-5_4-2016q3-20160926-win32\arm-none-eabi\include\c++\5.4.1/functional:1829
     808:	6903      	ldr	r3, [r0, #16]
_ZN15TeensyTimerTool10TckChannelImED2Ev():
C:\Users\lutz\source\Teensy\tttest/lib/TeensyTimerTool/src//Teensy/TCK/TckChannel.h:19
     80a:	4a06      	ldr	r2, [pc, #24]	; (824 <TeensyTimerTool::TckChannel<unsigned long>::~TckChannel()+0x1c>)
     80c:	b510      	push	{r4, lr}
     80e:	4604      	mov	r4, r0
     810:	6002      	str	r2, [r0, #0]
_ZNSt14_Function_baseD4Ev():
c:\toolchain\gcc\gcc-arm-none-eabi-5_4-2016q3-20160926-win32\arm-none-eabi\include\c++\5.4.1/functional:1829
     812:	b123      	cbz	r3, 81e <TeensyTimerTool::TckChannel<unsigned long>::~TckChannel()+0x16>
c:\toolchain\gcc\gcc-arm-none-eabi-5_4-2016q3-20160926-win32\arm-none-eabi\include\c++\5.4.1/functional:1830
     814:	f100 0108 	add.w	r1, r0, #8
     818:	4608      	mov	r0, r1
     81a:	2203      	movs	r2, #3
     81c:	4798      	blx	r3
_ZN15TeensyTimerTool10TckChannelImED2Ev():
C:\Users\lutz\source\Teensy\tttest/lib/TeensyTimerTool/src//Teensy/TCK/TckChannel.h:19
     81e:	4620      	mov	r0, r4
     820:	bd10      	pop	{r4, pc}
     822:	bf00      	nop
     824:	00003440 	.word	0x00003440

00000828 <TeensyTimerTool::ITimerChannel* TeensyTimerTool::TCK_t::getTimer<unsigned long>()>:
_ZN15TeensyTimerTool5TCK_t8getTimerImEEPNS_13ITimerChannelEv():
C:\Users\lutz\source\Teensy\tttest/lib/TeensyTimerTool/src//Teensy/TCK/TCK.h:28
     828:	4818      	ldr	r0, [pc, #96]	; (88c <TeensyTimerTool::ITimerChannel* TeensyTimerTool::TCK_t::getTimer<unsigned long>()+0x64>)
     82a:	7802      	ldrb	r2, [r0, #0]
C:\Users\lutz\source\Teensy\tttest/lib/TeensyTimerTool/src//Teensy/TCK/TCK.h:26
     82c:	b538      	push	{r3, r4, r5, lr}
C:\Users\lutz\source\Teensy\tttest/lib/TeensyTimerTool/src//Teensy/TCK/TCK.h:28
     82e:	b9a2      	cbnz	r2, 85a <TeensyTimerTool::ITimerChannel* TeensyTimerTool::TCK_t::getTimer<unsigned long>()+0x32>
     830:	4b17      	ldr	r3, [pc, #92]	; (890 <TeensyTimerTool::ITimerChannel* TeensyTimerTool::TCK_t::getTimer<unsigned long>()+0x68>)
     832:	f103 0150 	add.w	r1, r3, #80	; 0x50
C:\Users\lutz\source\Teensy\tttest/lib/TeensyTimerTool/src//Teensy/TCK/TCK.h:32 (discriminator 2)
     836:	f843 2f04 	str.w	r2, [r3, #4]!
C:\Users\lutz\source\Teensy\tttest/lib/TeensyTimerTool/src//Teensy/TCK/TCK.h:30 (discriminator 2)
     83a:	428b      	cmp	r3, r1
     83c:	d1fb      	bne.n	836 <TeensyTimerTool::ITimerChannel* TeensyTimerTool::TCK_t::getTimer<unsigned long>()+0xe>
C:\Users\lutz\source\Teensy\tttest/lib/TeensyTimerTool/src//Teensy/TCK/TCK.h:37
     83e:	4915      	ldr	r1, [pc, #84]	; (894 <TeensyTimerTool::ITimerChannel* TeensyTimerTool::TCK_t::getTimer<unsigned long>()+0x6c>)
C:\Users\lutz\source\Teensy\tttest/lib/TeensyTimerTool/src//Teensy/TCK/TCK.h:38
     840:	4a15      	ldr	r2, [pc, #84]	; (898 <TeensyTimerTool::ITimerChannel* TeensyTimerTool::TCK_t::getTimer<unsigned long>()+0x70>)
C:\Users\lutz\source\Teensy\tttest/lib/TeensyTimerTool/src//Teensy/TCK/TCK.h:34
     842:	2301      	movs	r3, #1
     844:	7003      	strb	r3, [r0, #0]
C:\Users\lutz\source\Teensy\tttest/lib/TeensyTimerTool/src//Teensy/TCK/TCK.h:37
     846:	680b      	ldr	r3, [r1, #0]
     848:	f043 7380 	orr.w	r3, r3, #16777216	; 0x1000000
     84c:	600b      	str	r3, [r1, #0]
C:\Users\lutz\source\Teensy\tttest/lib/TeensyTimerTool/src//Teensy/TCK/TCK.h:38
     84e:	6813      	ldr	r3, [r2, #0]
     850:	f043 0301 	orr.w	r3, r3, #1
     854:	6013      	str	r3, [r2, #0]
C:\Users\lutz\source\Teensy\tttest/lib/TeensyTimerTool/src//Teensy/TCK/TCK.h:43
     856:	f000 fb99 	bl	f8c <TeensyTimerTool::initYieldHook()>
     85a:	4b0d      	ldr	r3, [pc, #52]	; (890 <TeensyTimerTool::ITimerChannel* TeensyTimerTool::TCK_t::getTimer<unsigned long>()+0x68>)
C:\Users\lutz\source\Teensy\tttest/lib/TeensyTimerTool/src//Teensy/TCK/TCK.h:47
     85c:	2400      	movs	r4, #0
C:\Users\lutz\source\Teensy\tttest/lib/TeensyTimerTool/src//Teensy/TCK/TCK.h:49
     85e:	f853 5f04 	ldr.w	r5, [r3, #4]!
     862:	b125      	cbz	r5, 86e <TeensyTimerTool::ITimerChannel* TeensyTimerTool::TCK_t::getTimer<unsigned long>()+0x46>
C:\Users\lutz\source\Teensy\tttest/lib/TeensyTimerTool/src//Teensy/TCK/TCK.h:47 (discriminator 2)
     864:	3401      	adds	r4, #1
     866:	2c14      	cmp	r4, #20
     868:	d1f9      	bne.n	85e <TeensyTimerTool::ITimerChannel* TeensyTimerTool::TCK_t::getTimer<unsigned long>()+0x36>
C:\Users\lutz\source\Teensy\tttest/lib/TeensyTimerTool/src//Teensy/TCK/TCK.h:56
     86a:	2000      	movs	r0, #0
C:\Users\lutz\source\Teensy\tttest/lib/TeensyTimerTool/src//Teensy/TCK/TCK.h:57
     86c:	bd38      	pop	{r3, r4, r5, pc}
C:\Users\lutz\source\Teensy\tttest/lib/TeensyTimerTool/src//Teensy/TCK/TCK.h:51
     86e:	2034      	movs	r0, #52	; 0x34
     870:	f001 fcb2 	bl	21d8 <operator new(unsigned int)>
     874:	4b09      	ldr	r3, [pc, #36]	; (89c <TeensyTimerTool::ITimerChannel* TeensyTimerTool::TCK_t::getTimer<unsigned long>()+0x74>)
_ZN15TeensyTimerTool10TckChannelImEC4Ev():
C:\Users\lutz\source\Teensy\tttest/lib/TeensyTimerTool/src//Teensy/TCK/TckChannel.h:70
     876:	490a      	ldr	r1, [pc, #40]	; (8a0 <TeensyTimerTool::ITimerChannel* TeensyTimerTool::TCK_t::getTimer<unsigned long>()+0x78>)
C:\Users\lutz\source\Teensy\tttest/lib/TeensyTimerTool/src//Teensy/TCK/TckChannel.h:73
     878:	4a0a      	ldr	r2, [pc, #40]	; (8a4 <TeensyTimerTool::ITimerChannel* TeensyTimerTool::TCK_t::getTimer<unsigned long>()+0x7c>)
_ZN15TeensyTimerTool13ITimerChannelC4EPSt8functionIFvvEE():
C:\Users\lutz\source\Teensy\tttest/lib/TeensyTimerTool/src//Teensy/FTM/../../ITimerChannel.h:39
     87a:	6045      	str	r5, [r0, #4]
_ZNSt14_Function_baseC4Ev():
c:\toolchain\gcc\gcc-arm-none-eabi-5_4-2016q3-20160926-win32\arm-none-eabi\include\c++\5.4.1/functional:1825
     87c:	6105      	str	r5, [r0, #16]
_ZN15TeensyTimerTool10TckChannelImEC4Ev():
C:\Users\lutz\source\Teensy\tttest/lib/TeensyTimerTool/src//Teensy/TCK/TckChannel.h:72
     87e:	7645      	strb	r5, [r0, #25]
C:\Users\lutz\source\Teensy\tttest/lib/TeensyTimerTool/src//Teensy/TCK/TckChannel.h:70
     880:	6001      	str	r1, [r0, #0]
C:\Users\lutz\source\Teensy\tttest/lib/TeensyTimerTool/src//Teensy/TCK/TckChannel.h:73
     882:	6302      	str	r2, [r0, #48]	; 0x30
_ZN15TeensyTimerTool5TCK_t8getTimerImEEPNS_13ITimerChannelEv():
C:\Users\lutz\source\Teensy\tttest/lib/TeensyTimerTool/src//Teensy/TCK/TCK.h:51
     884:	f843 0024 	str.w	r0, [r3, r4, lsl #2]
C:\Users\lutz\source\Teensy\tttest/lib/TeensyTimerTool/src//Teensy/TCK/TCK.h:52
     888:	bd38      	pop	{r3, r4, r5, pc}
     88a:	bf00      	nop
     88c:	1fff92f0 	.word	0x1fff92f0
     890:	1fff929c 	.word	0x1fff929c
     894:	e000edfc 	.word	0xe000edfc
     898:	e0001000 	.word	0xe0001000
     89c:	1fff92a0 	.word	0x1fff92a0
     8a0:	00003440 	.word	0x00003440
     8a4:	42c00000 	.word	0x42c00000

000008a8 <TeensyTimerTool::FTM_Channel::~FTM_Channel()>:
_ZN15TeensyTimerTool11FTM_ChannelD0Ev():
C:\Users\lutz\source\Teensy\tttest/lib/TeensyTimerTool/src//Teensy/FTM/FTM_Channel.h:116
     8a8:	b510      	push	{r4, lr}
C:\Users\lutz\source\Teensy\tttest/lib/TeensyTimerTool/src//Teensy/FTM/FTM_Channel.h:118
     8aa:	2114      	movs	r1, #20
C:\Users\lutz\source\Teensy\tttest/lib/TeensyTimerTool/src//Teensy/FTM/FTM_Channel.h:116
     8ac:	4604      	mov	r4, r0
C:\Users\lutz\source\Teensy\tttest/lib/TeensyTimerTool/src//Teensy/FTM/FTM_Channel.h:118
     8ae:	f001 fc95 	bl	21dc <operator delete(void*, unsigned int)>
     8b2:	4620      	mov	r0, r4
     8b4:	bd10      	pop	{r4, pc}
     8b6:	bf00      	nop

000008b8 <TeensyTimerTool::TckChannel<unsigned long>::~TckChannel()>:
_ZNSt14_Function_baseD4Ev():
c:\toolchain\gcc\gcc-arm-none-eabi-5_4-2016q3-20160926-win32\arm-none-eabi\include\c++\5.4.1/functional:1829
     8b8:	6903      	ldr	r3, [r0, #16]
_ZN15TeensyTimerTool10TckChannelImED4Ev():
C:\Users\lutz\source\Teensy\tttest/lib/TeensyTimerTool/src//Teensy/TCK/TckChannel.h:19
     8ba:	4a08      	ldr	r2, [pc, #32]	; (8dc <TeensyTimerTool::TckChannel<unsigned long>::~TckChannel()+0x24>)
_ZN15TeensyTimerTool10TckChannelImED0Ev():
C:\Users\lutz\source\Teensy\tttest/lib/TeensyTimerTool/src//Teensy/TCK/TckChannel.h:19
     8bc:	b510      	push	{r4, lr}
     8be:	4604      	mov	r4, r0
_ZN15TeensyTimerTool10TckChannelImED4Ev():
C:\Users\lutz\source\Teensy\tttest/lib/TeensyTimerTool/src//Teensy/TCK/TckChannel.h:19
     8c0:	6002      	str	r2, [r0, #0]
_ZNSt14_Function_baseD4Ev():
c:\toolchain\gcc\gcc-arm-none-eabi-5_4-2016q3-20160926-win32\arm-none-eabi\include\c++\5.4.1/functional:1829
     8c2:	b123      	cbz	r3, 8ce <TeensyTimerTool::TckChannel<unsigned long>::~TckChannel()+0x16>
c:\toolchain\gcc\gcc-arm-none-eabi-5_4-2016q3-20160926-win32\arm-none-eabi\include\c++\5.4.1/functional:1830
     8c4:	f100 0108 	add.w	r1, r0, #8
     8c8:	4608      	mov	r0, r1
     8ca:	2203      	movs	r2, #3
     8cc:	4798      	blx	r3
_ZN15TeensyTimerTool10TckChannelImED0Ev():
C:\Users\lutz\source\Teensy\tttest/lib/TeensyTimerTool/src//Teensy/TCK/TckChannel.h:19
     8ce:	4620      	mov	r0, r4
     8d0:	2134      	movs	r1, #52	; 0x34
     8d2:	f001 fc83 	bl	21dc <operator delete(void*, unsigned int)>
     8d6:	4620      	mov	r0, r4
     8d8:	bd10      	pop	{r4, pc}
     8da:	bf00      	nop
     8dc:	00003440 	.word	0x00003440

000008e0 <TeensyTimerTool::ITimerChannel::setNextPeriod(unsigned long)>:
_ZN15TeensyTimerTool13ITimerChannel13setNextPeriodEm():
C:\Users\lutz\source\Teensy\tttest/lib/TeensyTimerTool/src//Teensy/FTM/../../ITimerChannel.h:25
     8e0:	2069      	movs	r0, #105	; 0x69
     8e2:	f000 bae7 	b.w	eb4 <TeensyTimerTool::postError(TeensyTimerTool::errorCode)>
     8e6:	bf00      	nop

000008e8 <TeensyTimerTool::ITimerChannel::setCurrentPeriod(unsigned long)>:
_ZN15TeensyTimerTool13ITimerChannel16setCurrentPeriodEm():
C:\Users\lutz\source\Teensy\tttest/lib/TeensyTimerTool/src//Teensy/FTM/../../ITimerChannel.h:24
     8e8:	2069      	movs	r0, #105	; 0x69
     8ea:	f000 bae3 	b.w	eb4 <TeensyTimerTool::postError(TeensyTimerTool::errorCode)>
     8ee:	bf00      	nop

000008f0 <TeensyTimerTool::ITimerChannel::setPeriod(unsigned long)>:
_ZN15TeensyTimerTool13ITimerChannel9setPeriodEm():
C:\Users\lutz\source\Teensy\tttest/lib/TeensyTimerTool/src//Teensy/FTM/../../ITimerChannel.h:23
     8f0:	2069      	movs	r0, #105	; 0x69
     8f2:	f000 badf 	b.w	eb4 <TeensyTimerTool::postError(TeensyTimerTool::errorCode)>
     8f6:	bf00      	nop

000008f8 <TeensyTimerTool::ITimerChannel::setPrescaler(int)>:
_ZN15TeensyTimerTool13ITimerChannel12setPrescalerEi():
C:\Users\lutz\source\Teensy\tttest/lib/TeensyTimerTool/src//Teensy/FTM/../../ITimerChannel.h:20
     8f8:	2069      	movs	r0, #105	; 0x69
     8fa:	f000 badb 	b.w	eb4 <TeensyTimerTool::postError(TeensyTimerTool::errorCode)>
     8fe:	bf00      	nop

00000900 <TeensyTimerTool::ITimerChannel::getTriggerReload(float, unsigned long long*)>:
_ZN15TeensyTimerTool13ITimerChannel16getTriggerReloadEfPy():
C:\Users\lutz\source\Teensy\tttest/lib/TeensyTimerTool/src//Teensy/FTM/../../ITimerChannel.h:15
     900:	2069      	movs	r0, #105	; 0x69
     902:	f000 bad7 	b.w	eb4 <TeensyTimerTool::postError(TeensyTimerTool::errorCode)>
     906:	bf00      	nop

00000908 <TeensyTimerTool::ITimerChannel::triggerDirect(unsigned long long)>:
_ZN15TeensyTimerTool13ITimerChannel13triggerDirectEy():
C:\Users\lutz\source\Teensy\tttest/lib/TeensyTimerTool/src//Teensy/FTM/../../ITimerChannel.h:13
     908:	2069      	movs	r0, #105	; 0x69
     90a:	f000 bad3 	b.w	eb4 <TeensyTimerTool::postError(TeensyTimerTool::errorCode)>
     90e:	bf00      	nop

00000910 <TeensyTimerTool::FTM_Channel::getTriggerReload(float, unsigned long*)>:
_ZN15TeensyTimerTool11FTM_Channel15ticksFromMicrosEf():
C:\Users\lutz\source\Teensy\tttest/lib/TeensyTimerTool/src//Teensy/FTM/FTM_Channel.h:107
     910:	6883      	ldr	r3, [r0, #8]
_ZN15TeensyTimerTool11FTM_Channel16getTriggerReloadEfPm():
C:\Users\lutz\source\Teensy\tttest/lib/TeensyTimerTool/src//Teensy/FTM/FTM_Channel.h:76
     912:	b510      	push	{r4, lr}
_ZN15TeensyTimerTool11FTM_Channel15ticksFromMicrosEf():
C:\Users\lutz\source\Teensy\tttest/lib/TeensyTimerTool/src//Teensy/FTM/FTM_Channel.h:107
     914:	4608      	mov	r0, r1
     916:	69d9      	ldr	r1, [r3, #28]
_ZN15TeensyTimerTool11FTM_Channel16getTriggerReloadEfPm():
C:\Users\lutz\source\Teensy\tttest/lib/TeensyTimerTool/src//Teensy/FTM/FTM_Channel.h:76
     918:	4614      	mov	r4, r2
_ZN15TeensyTimerTool11FTM_Channel15ticksFromMicrosEf():
C:\Users\lutz\source\Teensy\tttest/lib/TeensyTimerTool/src//Teensy/FTM/FTM_Channel.h:107
     91a:	f001 febf 	bl	269c <__aeabi_fmul>
     91e:	f002 f883 	bl	2a28 <__aeabi_f2uiz>
C:\Users\lutz\source\Teensy\tttest/lib/TeensyTimerTool/src//Teensy/FTM/FTM_Channel.h:108
     922:	f5b0 3f80 	cmp.w	r0, #65536	; 0x10000
     926:	d305      	bcc.n	934 <TeensyTimerTool::FTM_Channel::getTriggerReload(float, unsigned long*)+0x24>
C:\Users\lutz\source\Teensy\tttest/lib/TeensyTimerTool/src//Teensy/FTM/FTM_Channel.h:110
     928:	f06f 0063 	mvn.w	r0, #99	; 0x63
     92c:	f000 fac2 	bl	eb4 <TeensyTimerTool::postError(TeensyTimerTool::errorCode)>
C:\Users\lutz\source\Teensy\tttest/lib/TeensyTimerTool/src//Teensy/FTM/FTM_Channel.h:111
     930:	f64f 70ff 	movw	r0, #65535	; 0xffff
_ZN15TeensyTimerTool11FTM_Channel16getTriggerReloadEfPm():
C:\Users\lutz\source\Teensy\tttest/lib/TeensyTimerTool/src//Teensy/FTM/FTM_Channel.h:77
     934:	6020      	str	r0, [r4, #0]
C:\Users\lutz\source\Teensy\tttest/lib/TeensyTimerTool/src//Teensy/FTM/FTM_Channel.h:79
     936:	2000      	movs	r0, #0
     938:	bd10      	pop	{r4, pc}
     93a:	bf00      	nop

0000093c <TeensyTimerTool::TckChannel<unsigned long>::getTriggerReload(float, unsigned long*)>:
_ZN15TeensyTimerTool10TckChannelImE16getTriggerReloadEfPm():
C:\Users\lutz\source\Teensy\tttest/lib/TeensyTimerTool/src//Teensy/TCK/TckChannel.h:27
     93c:	e92d 41f0 	stmdb	sp!, {r4, r5, r6, r7, r8, lr}
     940:	6b05      	ldr	r5, [r0, #48]	; 0x30
     942:	460c      	mov	r4, r1
     944:	4607      	mov	r7, r0
_ZNK15TeensyTimerTool10TckChannelImE12getMaxMicrosEv():
C:\Users\lutz\source\Teensy\tttest/lib/TeensyTimerTool/src//Teensy/TCK/TckChannel.h:166
     946:	4629      	mov	r1, r5
     948:	480d      	ldr	r0, [pc, #52]	; (980 <TeensyTimerTool::TckChannel<unsigned long>::getTriggerReload(float, unsigned long*)+0x44>)
_ZN15TeensyTimerTool10TckChannelImE16getTriggerReloadEfPm():
C:\Users\lutz\source\Teensy\tttest/lib/TeensyTimerTool/src//Teensy/TCK/TckChannel.h:27
     94a:	4690      	mov	r8, r2
_ZNK15TeensyTimerTool10TckChannelImE12getMaxMicrosEv():
C:\Users\lutz\source\Teensy\tttest/lib/TeensyTimerTool/src//Teensy/TCK/TckChannel.h:166
     94c:	f001 ff5a 	bl	2804 <__aeabi_fdiv>
     950:	4606      	mov	r6, r0
_ZNK15TeensyTimerTool10TckChannelImE19microsecondToCyclesEf():
C:\Users\lutz\source\Teensy\tttest/lib/TeensyTimerTool/src//Teensy/TCK/TckChannel.h:146
     952:	4601      	mov	r1, r0
     954:	4620      	mov	r0, r4
     956:	f002 f85d 	bl	2a14 <__aeabi_fcmpgt>
     95a:	b128      	cbz	r0, 968 <TeensyTimerTool::TckChannel<unsigned long>::getTriggerReload(float, unsigned long*)+0x2c>
C:\Users\lutz\source\Teensy\tttest/lib/TeensyTimerTool/src//Teensy/TCK/TckChannel.h:149
     95c:	f06f 0063 	mvn.w	r0, #99	; 0x63
     960:	f000 faa8 	bl	eb4 <TeensyTimerTool::postError(TeensyTimerTool::errorCode)>
     964:	6b3d      	ldr	r5, [r7, #48]	; 0x30
C:\Users\lutz\source\Teensy\tttest/lib/TeensyTimerTool/src//Teensy/TCK/TckChannel.h:148
     966:	4634      	mov	r4, r6
_ZN15TeensyTimerTool10TckChannelImE16getTriggerReloadEfPm():
C:\Users\lutz\source\Teensy\tttest/lib/TeensyTimerTool/src//Teensy/TCK/TckChannel.h:29
     968:	4629      	mov	r1, r5
     96a:	4620      	mov	r0, r4
     96c:	f001 fe96 	bl	269c <__aeabi_fmul>
     970:	f002 f85a 	bl	2a28 <__aeabi_f2uiz>
     974:	f8c8 0000 	str.w	r0, [r8]
C:\Users\lutz\source\Teensy\tttest/lib/TeensyTimerTool/src//Teensy/TCK/TckChannel.h:31
     978:	2000      	movs	r0, #0
     97a:	e8bd 81f0 	ldmia.w	sp!, {r4, r5, r6, r7, r8, pc}
     97e:	bf00      	nop
     980:	4f700000 	.word	0x4f700000

00000984 <TeensyTimerTool::FTM_t<0u>::getTimer()>:
_ZN15TeensyTimerTool5FTM_tILj0EE8getTimerEv():
C:\Users\lutz\source\Teensy\tttest/lib/TeensyTimerTool/src//Teensy/FTM/FTM.h:28
     984:	e92d 43f8 	stmdb	sp!, {r3, r4, r5, r6, r7, r8, r9, lr}
C:\Users\lutz\source\Teensy\tttest/lib/TeensyTimerTool/src//Teensy/FTM/FTM.h:30
     988:	f8df 80d4 	ldr.w	r8, [pc, #212]	; a60 <TeensyTimerTool::FTM_t<0u>::getTimer()+0xdc>
     98c:	f898 3000 	ldrb.w	r3, [r8]
     990:	2b00      	cmp	r3, #0
     992:	d13d      	bne.n	a10 <TeensyTimerTool::FTM_t<0u>::getTimer()+0x8c>
C:\Users\lutz\source\Teensy\tttest/lib/TeensyTimerTool/src//Teensy/FTM/FTM.h:32
     994:	4a2b      	ldr	r2, [pc, #172]	; (a44 <TeensyTimerTool::FTM_t<0u>::getTimer()+0xc0>)
     996:	4c2c      	ldr	r4, [pc, #176]	; (a48 <TeensyTimerTool::FTM_t<0u>::getTimer()+0xc4>)
C:\Users\lutz\source\Teensy\tttest/lib/TeensyTimerTool/src//Teensy/FTM/FTM.h:34
     998:	4e2c      	ldr	r6, [pc, #176]	; (a4c <TeensyTimerTool::FTM_t<0u>::getTimer()+0xc8>)
C:\Users\lutz\source\Teensy\tttest/lib/TeensyTimerTool/src//Teensy/FTM/FTM.h:32
     99a:	6013      	str	r3, [r2, #0]
C:\Users\lutz\source\Teensy\tttest/lib/TeensyTimerTool/src//Teensy/FTM/FTM.h:33
     99c:	f64f 71ff 	movw	r1, #65535	; 0xffff
     9a0:	6091      	str	r1, [r2, #8]
C:\Users\lutz\source\Teensy\tttest/lib/TeensyTimerTool/src//Teensy/FTM/FTM.h:41
     9a2:	f04f 577f 	mov.w	r7, #1069547520	; 0x3fc00000
C:\Users\lutz\source\Teensy\tttest/lib/TeensyTimerTool/src//Teensy/FTM/FTM.h:36
     9a6:	461d      	mov	r5, r3
C:\Users\lutz\source\Teensy\tttest/lib/TeensyTimerTool/src//Teensy/FTM/FTM.h:34
     9a8:	6053      	str	r3, [r2, #4]
C:\Users\lutz\source\Teensy\tttest/lib/TeensyTimerTool/src//Teensy/FTM/FTM.h:38
     9aa:	4699      	mov	r9, r3
_ZNSt8functionIFvvEEaSEDn():
c:\toolchain\gcc\gcc-arm-none-eabi-5_4-2016q3-20160926-win32\arm-none-eabi\include\c++\5.4.1/functional:2103 (discriminator 2)
     9ac:	68a3      	ldr	r3, [r4, #8]
_ZN15TeensyTimerTool5FTM_tILj0EE8getTimerEv():
C:\Users\lutz\source\Teensy\tttest/lib/TeensyTimerTool/src//Teensy/FTM/FTM.h:38 (discriminator 2)
     9ae:	f804 9c04 	strb.w	r9, [r4, #-4]
_ZNSt8functionIFvvEEaSEDn():
c:\toolchain\gcc\gcc-arm-none-eabi-5_4-2016q3-20160926-win32\arm-none-eabi\include\c++\5.4.1/functional:2103 (discriminator 2)
     9b2:	b13b      	cbz	r3, 9c4 <TeensyTimerTool::FTM_t<0u>::getTimer()+0x40>
c:\toolchain\gcc\gcc-arm-none-eabi-5_4-2016q3-20160926-win32\arm-none-eabi\include\c++\5.4.1/functional:2105
     9b4:	2203      	movs	r2, #3
     9b6:	4621      	mov	r1, r4
     9b8:	4620      	mov	r0, r4
     9ba:	4798      	blx	r3
c:\toolchain\gcc\gcc-arm-none-eabi-5_4-2016q3-20160926-win32\arm-none-eabi\include\c++\5.4.1/functional:2106
     9bc:	f8c4 9008 	str.w	r9, [r4, #8]
c:\toolchain\gcc\gcc-arm-none-eabi-5_4-2016q3-20160926-win32\arm-none-eabi\include\c++\5.4.1/functional:2107
     9c0:	f8c4 900c 	str.w	r9, [r4, #12]
     9c4:	00eb      	lsls	r3, r5, #3
     9c6:	f103 4380 	add.w	r3, r3, #1073741824	; 0x40000000
     9ca:	f503 3360 	add.w	r3, r3, #229376	; 0x38000
_ZN15TeensyTimerTool5FTM_tILj0EE8getTimerEv():
C:\Users\lutz\source\Teensy\tttest/lib/TeensyTimerTool/src//Teensy/FTM/FTM.h:40
     9ce:	6166      	str	r6, [r4, #20]
C:\Users\lutz\source\Teensy\tttest/lib/TeensyTimerTool/src//Teensy/FTM/FTM.h:43
     9d0:	68da      	ldr	r2, [r3, #12]
C:\Users\lutz\source\Teensy\tttest/lib/TeensyTimerTool/src//Teensy/FTM/FTM.h:41
     9d2:	61a7      	str	r7, [r4, #24]
C:\Users\lutz\source\Teensy\tttest/lib/TeensyTimerTool/src//Teensy/FTM/FTM.h:43
     9d4:	f022 0280 	bic.w	r2, r2, #128	; 0x80
     9d8:	60da      	str	r2, [r3, #12]
C:\Users\lutz\source\Teensy\tttest/lib/TeensyTimerTool/src//Teensy/FTM/FTM.h:44
     9da:	68da      	ldr	r2, [r3, #12]
C:\Users\lutz\source\Teensy\tttest/lib/TeensyTimerTool/src//Teensy/FTM/FTM.h:36
     9dc:	3501      	adds	r5, #1
C:\Users\lutz\source\Teensy\tttest/lib/TeensyTimerTool/src//Teensy/FTM/FTM.h:44
     9de:	f022 0240 	bic.w	r2, r2, #64	; 0x40
C:\Users\lutz\source\Teensy\tttest/lib/TeensyTimerTool/src//Teensy/FTM/FTM.h:45
     9e2:	2110      	movs	r1, #16
C:\Users\lutz\source\Teensy\tttest/lib/TeensyTimerTool/src//Teensy/FTM/FTM.h:36
     9e4:	2d08      	cmp	r5, #8
C:\Users\lutz\source\Teensy\tttest/lib/TeensyTimerTool/src//Teensy/FTM/FTM.h:44
     9e6:	60da      	str	r2, [r3, #12]
     9e8:	f106 0608 	add.w	r6, r6, #8
     9ec:	f104 0420 	add.w	r4, r4, #32
C:\Users\lutz\source\Teensy\tttest/lib/TeensyTimerTool/src//Teensy/FTM/FTM.h:45
     9f0:	60d9      	str	r1, [r3, #12]
C:\Users\lutz\source\Teensy\tttest/lib/TeensyTimerTool/src//Teensy/FTM/FTM.h:36
     9f2:	d1db      	bne.n	9ac <TeensyTimerTool::FTM_t<0u>::getTimer()+0x28>
C:\Users\lutz\source\Teensy\tttest/lib/TeensyTimerTool/src//Teensy/FTM/FTM.h:47
     9f4:	4b13      	ldr	r3, [pc, #76]	; (a44 <TeensyTimerTool::FTM_t<0u>::getTimer()+0xc0>)
C:\Users\lutz\source\Teensy\tttest/lib/TeensyTimerTool/src//Teensy/FTM/FTM.h:48
     9f6:	4916      	ldr	r1, [pc, #88]	; (a50 <TeensyTimerTool::FTM_t<0u>::getTimer()+0xcc>)
C:\Users\lutz\source\Teensy\tttest/lib/TeensyTimerTool/src//Teensy/FTM/FTM.h:47
     9f8:	220d      	movs	r2, #13
     9fa:	601a      	str	r2, [r3, #0]
C:\Users\lutz\source\Teensy\tttest/lib/TeensyTimerTool/src//Teensy/FTM/FTM.h:48
     9fc:	203e      	movs	r0, #62	; 0x3e
     9fe:	f000 fb83 	bl	1108 <attachInterruptVector>
C:\Users\lutz\source\Teensy\tttest/lib/TeensyTimerTool/src//Teensy/FTM/FTM.h:49
     a02:	4a14      	ldr	r2, [pc, #80]	; (a54 <TeensyTimerTool::FTM_t<0u>::getTimer()+0xd0>)
     a04:	f04f 4180 	mov.w	r1, #1073741824	; 0x40000000
C:\Users\lutz\source\Teensy\tttest/lib/TeensyTimerTool/src//Teensy/FTM/FTM.h:50
     a08:	2301      	movs	r3, #1
C:\Users\lutz\source\Teensy\tttest/lib/TeensyTimerTool/src//Teensy/FTM/FTM.h:49
     a0a:	6011      	str	r1, [r2, #0]
C:\Users\lutz\source\Teensy\tttest/lib/TeensyTimerTool/src//Teensy/FTM/FTM.h:50
     a0c:	f888 3000 	strb.w	r3, [r8]
     a10:	4911      	ldr	r1, [pc, #68]	; (a58 <TeensyTimerTool::FTM_t<0u>::getTimer()+0xd4>)
C:\Users\lutz\source\Teensy\tttest/lib/TeensyTimerTool/src//Teensy/FTM/FTM.h:53
     a12:	2300      	movs	r3, #0
C:\Users\lutz\source\Teensy\tttest/lib/TeensyTimerTool/src//Teensy/FTM/FTM.h:55
     a14:	015a      	lsls	r2, r3, #5
     a16:	188c      	adds	r4, r1, r2
     a18:	5c8d      	ldrb	r5, [r1, r2]
C:\Users\lutz\source\Teensy\tttest/lib/TeensyTimerTool/src//Teensy/FTM/FTM.h:53
     a1a:	3301      	adds	r3, #1
C:\Users\lutz\source\Teensy\tttest/lib/TeensyTimerTool/src//Teensy/FTM/FTM.h:55
     a1c:	b125      	cbz	r5, a28 <TeensyTimerTool::FTM_t<0u>::getTimer()+0xa4>
C:\Users\lutz\source\Teensy\tttest/lib/TeensyTimerTool/src//Teensy/FTM/FTM.h:53 (discriminator 2)
     a1e:	2b08      	cmp	r3, #8
     a20:	d1f8      	bne.n	a14 <TeensyTimerTool::FTM_t<0u>::getTimer()+0x90>
C:\Users\lutz\source\Teensy\tttest/lib/TeensyTimerTool/src//Teensy/FTM/FTM.h:61
     a22:	2000      	movs	r0, #0
C:\Users\lutz\source\Teensy\tttest/lib/TeensyTimerTool/src//Teensy/FTM/FTM.h:62
     a24:	e8bd 83f8 	ldmia.w	sp!, {r3, r4, r5, r6, r7, r8, r9, pc}
C:\Users\lutz\source\Teensy\tttest/lib/TeensyTimerTool/src//Teensy/FTM/FTM.h:57
     a28:	2301      	movs	r3, #1
     a2a:	7023      	strb	r3, [r4, #0]
C:\Users\lutz\source\Teensy\tttest/lib/TeensyTimerTool/src//Teensy/FTM/FTM.h:58
     a2c:	2014      	movs	r0, #20
     a2e:	f001 fbd3 	bl	21d8 <operator new(unsigned int)>
_ZN15TeensyTimerTool11FTM_ChannelC4EPNS_7FTM_r_tEPNS_15FTM_ChannelInfoE():
C:\Users\lutz\source\Teensy\tttest/lib/TeensyTimerTool/src//Teensy/FTM/FTM_Channel.h:44
     a32:	4a0a      	ldr	r2, [pc, #40]	; (a5c <TeensyTimerTool::FTM_t<0u>::getTimer()+0xd8>)
C:\Users\lutz\source\Teensy\tttest/lib/TeensyTimerTool/src//Teensy/FTM/FTM_Channel.h:46
     a34:	4b03      	ldr	r3, [pc, #12]	; (a44 <TeensyTimerTool::FTM_t<0u>::getTimer()+0xc0>)
_ZN15TeensyTimerTool13ITimerChannelC4EPSt8functionIFvvEE():
C:\Users\lutz\source\Teensy\tttest/lib/TeensyTimerTool/src//Teensy/FTM/../../ITimerChannel.h:39
     a36:	6045      	str	r5, [r0, #4]
_ZN15TeensyTimerTool11FTM_ChannelC4EPNS_7FTM_r_tEPNS_15FTM_ChannelInfoE():
C:\Users\lutz\source\Teensy\tttest/lib/TeensyTimerTool/src//Teensy/FTM/FTM_Channel.h:44
     a38:	6105      	str	r5, [r0, #16]
C:\Users\lutz\source\Teensy\tttest/lib/TeensyTimerTool/src//Teensy/FTM/FTM_Channel.h:47
     a3a:	6084      	str	r4, [r0, #8]
C:\Users\lutz\source\Teensy\tttest/lib/TeensyTimerTool/src//Teensy/FTM/FTM_Channel.h:44
     a3c:	6002      	str	r2, [r0, #0]
C:\Users\lutz\source\Teensy\tttest/lib/TeensyTimerTool/src//Teensy/FTM/FTM_Channel.h:46
     a3e:	60c3      	str	r3, [r0, #12]
_ZN15TeensyTimerTool5FTM_tILj0EE8getTimerEv():
C:\Users\lutz\source\Teensy\tttest/lib/TeensyTimerTool/src//Teensy/FTM/FTM.h:58
     a40:	e8bd 83f8 	ldmia.w	sp!, {r3, r4, r5, r6, r7, r8, r9, pc}
     a44:	40038000 	.word	0x40038000
     a48:	1fff9194 	.word	0x1fff9194
     a4c:	4003800c 	.word	0x4003800c
     a50:	000005f1 	.word	0x000005f1
     a54:	e000e104 	.word	0xe000e104
     a58:	1fff9190 	.word	0x1fff9190
     a5c:	000033f8 	.word	0x000033f8
     a60:	1fff9103 	.word	0x1fff9103

00000a64 <TeensyTimerTool::FTM_t<1u>::getTimer()>:
_ZN15TeensyTimerTool5FTM_tILj1EE8getTimerEv():
C:\Users\lutz\source\Teensy\tttest/lib/TeensyTimerTool/src//Teensy/FTM/FTM.h:28
     a64:	e92d 43f8 	stmdb	sp!, {r3, r4, r5, r6, r7, r8, r9, lr}
C:\Users\lutz\source\Teensy\tttest/lib/TeensyTimerTool/src//Teensy/FTM/FTM.h:30
     a68:	f8df 80d4 	ldr.w	r8, [pc, #212]	; b40 <TeensyTimerTool::FTM_t<1u>::getTimer()+0xdc>
     a6c:	f898 3000 	ldrb.w	r3, [r8]
     a70:	2b00      	cmp	r3, #0
     a72:	d13c      	bne.n	aee <TeensyTimerTool::FTM_t<1u>::getTimer()+0x8a>
C:\Users\lutz\source\Teensy\tttest/lib/TeensyTimerTool/src//Teensy/FTM/FTM.h:32
     a74:	4a2b      	ldr	r2, [pc, #172]	; (b24 <TeensyTimerTool::FTM_t<1u>::getTimer()+0xc0>)
     a76:	4c2c      	ldr	r4, [pc, #176]	; (b28 <TeensyTimerTool::FTM_t<1u>::getTimer()+0xc4>)
C:\Users\lutz\source\Teensy\tttest/lib/TeensyTimerTool/src//Teensy/FTM/FTM.h:34
     a78:	4e2c      	ldr	r6, [pc, #176]	; (b2c <TeensyTimerTool::FTM_t<1u>::getTimer()+0xc8>)
C:\Users\lutz\source\Teensy\tttest/lib/TeensyTimerTool/src//Teensy/FTM/FTM.h:32
     a7a:	6013      	str	r3, [r2, #0]
C:\Users\lutz\source\Teensy\tttest/lib/TeensyTimerTool/src//Teensy/FTM/FTM.h:33
     a7c:	f64f 71ff 	movw	r1, #65535	; 0xffff
     a80:	6091      	str	r1, [r2, #8]
C:\Users\lutz\source\Teensy\tttest/lib/TeensyTimerTool/src//Teensy/FTM/FTM.h:41
     a82:	f04f 597f 	mov.w	r9, #1069547520	; 0x3fc00000
C:\Users\lutz\source\Teensy\tttest/lib/TeensyTimerTool/src//Teensy/FTM/FTM.h:36
     a86:	461d      	mov	r5, r3
C:\Users\lutz\source\Teensy\tttest/lib/TeensyTimerTool/src//Teensy/FTM/FTM.h:34
     a88:	6053      	str	r3, [r2, #4]
C:\Users\lutz\source\Teensy\tttest/lib/TeensyTimerTool/src//Teensy/FTM/FTM.h:38
     a8a:	461f      	mov	r7, r3
_ZNSt8functionIFvvEEaSEDn():
c:\toolchain\gcc\gcc-arm-none-eabi-5_4-2016q3-20160926-win32\arm-none-eabi\include\c++\5.4.1/functional:2103 (discriminator 2)
     a8c:	68a3      	ldr	r3, [r4, #8]
_ZN15TeensyTimerTool5FTM_tILj1EE8getTimerEv():
C:\Users\lutz\source\Teensy\tttest/lib/TeensyTimerTool/src//Teensy/FTM/FTM.h:38 (discriminator 2)
     a8e:	f804 7c04 	strb.w	r7, [r4, #-4]
_ZNSt8functionIFvvEEaSEDn():
c:\toolchain\gcc\gcc-arm-none-eabi-5_4-2016q3-20160926-win32\arm-none-eabi\include\c++\5.4.1/functional:2103 (discriminator 2)
     a92:	b12b      	cbz	r3, aa0 <TeensyTimerTool::FTM_t<1u>::getTimer()+0x3c>
c:\toolchain\gcc\gcc-arm-none-eabi-5_4-2016q3-20160926-win32\arm-none-eabi\include\c++\5.4.1/functional:2105
     a94:	2203      	movs	r2, #3
     a96:	4621      	mov	r1, r4
     a98:	4620      	mov	r0, r4
     a9a:	4798      	blx	r3
c:\toolchain\gcc\gcc-arm-none-eabi-5_4-2016q3-20160926-win32\arm-none-eabi\include\c++\5.4.1/functional:2106
     a9c:	60a7      	str	r7, [r4, #8]
c:\toolchain\gcc\gcc-arm-none-eabi-5_4-2016q3-20160926-win32\arm-none-eabi\include\c++\5.4.1/functional:2107
     a9e:	60e7      	str	r7, [r4, #12]
     aa0:	00eb      	lsls	r3, r5, #3
     aa2:	f103 4380 	add.w	r3, r3, #1073741824	; 0x40000000
     aa6:	f503 3364 	add.w	r3, r3, #233472	; 0x39000
_ZN15TeensyTimerTool5FTM_tILj1EE8getTimerEv():
C:\Users\lutz\source\Teensy\tttest/lib/TeensyTimerTool/src//Teensy/FTM/FTM.h:40
     aaa:	6166      	str	r6, [r4, #20]
C:\Users\lutz\source\Teensy\tttest/lib/TeensyTimerTool/src//Teensy/FTM/FTM.h:43
     aac:	68da      	ldr	r2, [r3, #12]
C:\Users\lutz\source\Teensy\tttest/lib/TeensyTimerTool/src//Teensy/FTM/FTM.h:41
     aae:	f8c4 9018 	str.w	r9, [r4, #24]
C:\Users\lutz\source\Teensy\tttest/lib/TeensyTimerTool/src//Teensy/FTM/FTM.h:43
     ab2:	f022 0280 	bic.w	r2, r2, #128	; 0x80
     ab6:	60da      	str	r2, [r3, #12]
C:\Users\lutz\source\Teensy\tttest/lib/TeensyTimerTool/src//Teensy/FTM/FTM.h:44
     ab8:	68da      	ldr	r2, [r3, #12]
C:\Users\lutz\source\Teensy\tttest/lib/TeensyTimerTool/src//Teensy/FTM/FTM.h:36
     aba:	3501      	adds	r5, #1
C:\Users\lutz\source\Teensy\tttest/lib/TeensyTimerTool/src//Teensy/FTM/FTM.h:44
     abc:	f022 0240 	bic.w	r2, r2, #64	; 0x40
C:\Users\lutz\source\Teensy\tttest/lib/TeensyTimerTool/src//Teensy/FTM/FTM.h:45
     ac0:	2110      	movs	r1, #16
C:\Users\lutz\source\Teensy\tttest/lib/TeensyTimerTool/src//Teensy/FTM/FTM.h:36
     ac2:	2d02      	cmp	r5, #2
C:\Users\lutz\source\Teensy\tttest/lib/TeensyTimerTool/src//Teensy/FTM/FTM.h:44
     ac4:	60da      	str	r2, [r3, #12]
     ac6:	f106 0608 	add.w	r6, r6, #8
     aca:	f104 0420 	add.w	r4, r4, #32
C:\Users\lutz\source\Teensy\tttest/lib/TeensyTimerTool/src//Teensy/FTM/FTM.h:45
     ace:	60d9      	str	r1, [r3, #12]
C:\Users\lutz\source\Teensy\tttest/lib/TeensyTimerTool/src//Teensy/FTM/FTM.h:36
     ad0:	d1dc      	bne.n	a8c <TeensyTimerTool::FTM_t<1u>::getTimer()+0x28>
C:\Users\lutz\source\Teensy\tttest/lib/TeensyTimerTool/src//Teensy/FTM/FTM.h:47
     ad2:	4b14      	ldr	r3, [pc, #80]	; (b24 <TeensyTimerTool::FTM_t<1u>::getTimer()+0xc0>)
C:\Users\lutz\source\Teensy\tttest/lib/TeensyTimerTool/src//Teensy/FTM/FTM.h:48
     ad4:	4916      	ldr	r1, [pc, #88]	; (b30 <TeensyTimerTool::FTM_t<1u>::getTimer()+0xcc>)
C:\Users\lutz\source\Teensy\tttest/lib/TeensyTimerTool/src//Teensy/FTM/FTM.h:47
     ad6:	220d      	movs	r2, #13
     ad8:	601a      	str	r2, [r3, #0]
C:\Users\lutz\source\Teensy\tttest/lib/TeensyTimerTool/src//Teensy/FTM/FTM.h:48
     ada:	203f      	movs	r0, #63	; 0x3f
     adc:	f000 fb14 	bl	1108 <attachInterruptVector>
C:\Users\lutz\source\Teensy\tttest/lib/TeensyTimerTool/src//Teensy/FTM/FTM.h:49
     ae0:	4a14      	ldr	r2, [pc, #80]	; (b34 <TeensyTimerTool::FTM_t<1u>::getTimer()+0xd0>)
     ae2:	f04f 4100 	mov.w	r1, #2147483648	; 0x80000000
C:\Users\lutz\source\Teensy\tttest/lib/TeensyTimerTool/src//Teensy/FTM/FTM.h:50
     ae6:	2301      	movs	r3, #1
C:\Users\lutz\source\Teensy\tttest/lib/TeensyTimerTool/src//Teensy/FTM/FTM.h:49
     ae8:	6011      	str	r1, [r2, #0]
C:\Users\lutz\source\Teensy\tttest/lib/TeensyTimerTool/src//Teensy/FTM/FTM.h:50
     aea:	f888 3000 	strb.w	r3, [r8]
C:\Users\lutz\source\Teensy\tttest/lib/TeensyTimerTool/src//Teensy/FTM/FTM.h:55
     aee:	4b12      	ldr	r3, [pc, #72]	; (b38 <TeensyTimerTool::FTM_t<1u>::getTimer()+0xd4>)
     af0:	781a      	ldrb	r2, [r3, #0]
     af2:	b132      	cbz	r2, b02 <TeensyTimerTool::FTM_t<1u>::getTimer()+0x9e>
     af4:	f893 2020 	ldrb.w	r2, [r3, #32]
     af8:	b112      	cbz	r2, b00 <TeensyTimerTool::FTM_t<1u>::getTimer()+0x9c>
C:\Users\lutz\source\Teensy\tttest/lib/TeensyTimerTool/src//Teensy/FTM/FTM.h:61
     afa:	2000      	movs	r0, #0
C:\Users\lutz\source\Teensy\tttest/lib/TeensyTimerTool/src//Teensy/FTM/FTM.h:62
     afc:	e8bd 83f8 	ldmia.w	sp!, {r3, r4, r5, r6, r7, r8, r9, pc}
C:\Users\lutz\source\Teensy\tttest/lib/TeensyTimerTool/src//Teensy/FTM/FTM.h:53
     b00:	2201      	movs	r2, #1
C:\Users\lutz\source\Teensy\tttest/lib/TeensyTimerTool/src//Teensy/FTM/FTM.h:57
     b02:	0152      	lsls	r2, r2, #5
     b04:	2101      	movs	r1, #1
     b06:	5499      	strb	r1, [r3, r2]
C:\Users\lutz\source\Teensy\tttest/lib/TeensyTimerTool/src//Teensy/FTM/FTM.h:58
     b08:	2014      	movs	r0, #20
C:\Users\lutz\source\Teensy\tttest/lib/TeensyTimerTool/src//Teensy/FTM/FTM.h:57
     b0a:	189c      	adds	r4, r3, r2
C:\Users\lutz\source\Teensy\tttest/lib/TeensyTimerTool/src//Teensy/FTM/FTM.h:58
     b0c:	f001 fb64 	bl	21d8 <operator new(unsigned int)>
_ZN15TeensyTimerTool13ITimerChannelC4EPSt8functionIFvvEE():
C:\Users\lutz\source\Teensy\tttest/lib/TeensyTimerTool/src//Teensy/FTM/../../ITimerChannel.h:39
     b10:	2300      	movs	r3, #0
_ZN15TeensyTimerTool11FTM_ChannelC4EPNS_7FTM_r_tEPNS_15FTM_ChannelInfoE():
C:\Users\lutz\source\Teensy\tttest/lib/TeensyTimerTool/src//Teensy/FTM/FTM_Channel.h:44
     b12:	490a      	ldr	r1, [pc, #40]	; (b3c <TeensyTimerTool::FTM_t<1u>::getTimer()+0xd8>)
C:\Users\lutz\source\Teensy\tttest/lib/TeensyTimerTool/src//Teensy/FTM/FTM_Channel.h:46
     b14:	4a03      	ldr	r2, [pc, #12]	; (b24 <TeensyTimerTool::FTM_t<1u>::getTimer()+0xc0>)
C:\Users\lutz\source\Teensy\tttest/lib/TeensyTimerTool/src//Teensy/FTM/FTM_Channel.h:47
     b16:	6084      	str	r4, [r0, #8]
C:\Users\lutz\source\Teensy\tttest/lib/TeensyTimerTool/src//Teensy/FTM/FTM_Channel.h:44
     b18:	6001      	str	r1, [r0, #0]
C:\Users\lutz\source\Teensy\tttest/lib/TeensyTimerTool/src//Teensy/FTM/FTM_Channel.h:46
     b1a:	60c2      	str	r2, [r0, #12]
_ZN15TeensyTimerTool13ITimerChannelC4EPSt8functionIFvvEE():
C:\Users\lutz\source\Teensy\tttest/lib/TeensyTimerTool/src//Teensy/FTM/../../ITimerChannel.h:39
     b1c:	6043      	str	r3, [r0, #4]
_ZN15TeensyTimerTool11FTM_ChannelC4EPNS_7FTM_r_tEPNS_15FTM_ChannelInfoE():
C:\Users\lutz\source\Teensy\tttest/lib/TeensyTimerTool/src//Teensy/FTM/FTM_Channel.h:44
     b1e:	6103      	str	r3, [r0, #16]
_ZN15TeensyTimerTool5FTM_tILj1EE8getTimerEv():
C:\Users\lutz\source\Teensy\tttest/lib/TeensyTimerTool/src//Teensy/FTM/FTM.h:58
     b20:	e8bd 83f8 	ldmia.w	sp!, {r3, r4, r5, r6, r7, r8, r9, pc}
     b24:	40039000 	.word	0x40039000
     b28:	1fff9154 	.word	0x1fff9154
     b2c:	4003900c 	.word	0x4003900c
     b30:	0000064d 	.word	0x0000064d
     b34:	e000e104 	.word	0xe000e104
     b38:	1fff9150 	.word	0x1fff9150
     b3c:	000033f8 	.word	0x000033f8
     b40:	1fff9102 	.word	0x1fff9102

00000b44 <TeensyTimerTool::FTM_t<2u>::getTimer()>:
_ZN15TeensyTimerTool5FTM_tILj2EE8getTimerEv():
C:\Users\lutz\source\Teensy\tttest/lib/TeensyTimerTool/src//Teensy/FTM/FTM.h:28
     b44:	e92d 43f8 	stmdb	sp!, {r3, r4, r5, r6, r7, r8, r9, lr}
C:\Users\lutz\source\Teensy\tttest/lib/TeensyTimerTool/src//Teensy/FTM/FTM.h:30
     b48:	f8df 80d0 	ldr.w	r8, [pc, #208]	; c1c <TeensyTimerTool::FTM_t<2u>::getTimer()+0xd8>
     b4c:	f898 3000 	ldrb.w	r3, [r8]
     b50:	2b00      	cmp	r3, #0
     b52:	d13a      	bne.n	bca <TeensyTimerTool::FTM_t<2u>::getTimer()+0x86>
C:\Users\lutz\source\Teensy\tttest/lib/TeensyTimerTool/src//Teensy/FTM/FTM.h:32
     b54:	4a2a      	ldr	r2, [pc, #168]	; (c00 <TeensyTimerTool::FTM_t<2u>::getTimer()+0xbc>)
     b56:	4c2b      	ldr	r4, [pc, #172]	; (c04 <TeensyTimerTool::FTM_t<2u>::getTimer()+0xc0>)
C:\Users\lutz\source\Teensy\tttest/lib/TeensyTimerTool/src//Teensy/FTM/FTM.h:34
     b58:	4e2b      	ldr	r6, [pc, #172]	; (c08 <TeensyTimerTool::FTM_t<2u>::getTimer()+0xc4>)
C:\Users\lutz\source\Teensy\tttest/lib/TeensyTimerTool/src//Teensy/FTM/FTM.h:32
     b5a:	6013      	str	r3, [r2, #0]
C:\Users\lutz\source\Teensy\tttest/lib/TeensyTimerTool/src//Teensy/FTM/FTM.h:33
     b5c:	f64f 71ff 	movw	r1, #65535	; 0xffff
     b60:	6091      	str	r1, [r2, #8]
C:\Users\lutz\source\Teensy\tttest/lib/TeensyTimerTool/src//Teensy/FTM/FTM.h:41
     b62:	f04f 597f 	mov.w	r9, #1069547520	; 0x3fc00000
C:\Users\lutz\source\Teensy\tttest/lib/TeensyTimerTool/src//Teensy/FTM/FTM.h:36
     b66:	461d      	mov	r5, r3
C:\Users\lutz\source\Teensy\tttest/lib/TeensyTimerTool/src//Teensy/FTM/FTM.h:34
     b68:	6053      	str	r3, [r2, #4]
C:\Users\lutz\source\Teensy\tttest/lib/TeensyTimerTool/src//Teensy/FTM/FTM.h:38
     b6a:	461f      	mov	r7, r3
_ZNSt8functionIFvvEEaSEDn():
c:\toolchain\gcc\gcc-arm-none-eabi-5_4-2016q3-20160926-win32\arm-none-eabi\include\c++\5.4.1/functional:2103 (discriminator 2)
     b6c:	68a3      	ldr	r3, [r4, #8]
_ZN15TeensyTimerTool5FTM_tILj2EE8getTimerEv():
C:\Users\lutz\source\Teensy\tttest/lib/TeensyTimerTool/src//Teensy/FTM/FTM.h:38 (discriminator 2)
     b6e:	f804 7c04 	strb.w	r7, [r4, #-4]
_ZNSt8functionIFvvEEaSEDn():
c:\toolchain\gcc\gcc-arm-none-eabi-5_4-2016q3-20160926-win32\arm-none-eabi\include\c++\5.4.1/functional:2103 (discriminator 2)
     b72:	b12b      	cbz	r3, b80 <TeensyTimerTool::FTM_t<2u>::getTimer()+0x3c>
c:\toolchain\gcc\gcc-arm-none-eabi-5_4-2016q3-20160926-win32\arm-none-eabi\include\c++\5.4.1/functional:2105
     b74:	2203      	movs	r2, #3
     b76:	4621      	mov	r1, r4
     b78:	4620      	mov	r0, r4
     b7a:	4798      	blx	r3
c:\toolchain\gcc\gcc-arm-none-eabi-5_4-2016q3-20160926-win32\arm-none-eabi\include\c++\5.4.1/functional:2106
     b7c:	60a7      	str	r7, [r4, #8]
c:\toolchain\gcc\gcc-arm-none-eabi-5_4-2016q3-20160926-win32\arm-none-eabi\include\c++\5.4.1/functional:2107
     b7e:	60e7      	str	r7, [r4, #12]
     b80:	00eb      	lsls	r3, r5, #3
     b82:	f103 4380 	add.w	r3, r3, #1073741824	; 0x40000000
     b86:	f503 2338 	add.w	r3, r3, #753664	; 0xb8000
_ZN15TeensyTimerTool5FTM_tILj2EE8getTimerEv():
C:\Users\lutz\source\Teensy\tttest/lib/TeensyTimerTool/src//Teensy/FTM/FTM.h:40
     b8a:	6166      	str	r6, [r4, #20]
C:\Users\lutz\source\Teensy\tttest/lib/TeensyTimerTool/src//Teensy/FTM/FTM.h:43
     b8c:	68da      	ldr	r2, [r3, #12]
C:\Users\lutz\source\Teensy\tttest/lib/TeensyTimerTool/src//Teensy/FTM/FTM.h:41
     b8e:	f8c4 9018 	str.w	r9, [r4, #24]
C:\Users\lutz\source\Teensy\tttest/lib/TeensyTimerTool/src//Teensy/FTM/FTM.h:43
     b92:	f022 0280 	bic.w	r2, r2, #128	; 0x80
     b96:	60da      	str	r2, [r3, #12]
C:\Users\lutz\source\Teensy\tttest/lib/TeensyTimerTool/src//Teensy/FTM/FTM.h:44
     b98:	68da      	ldr	r2, [r3, #12]
C:\Users\lutz\source\Teensy\tttest/lib/TeensyTimerTool/src//Teensy/FTM/FTM.h:36
     b9a:	3501      	adds	r5, #1
C:\Users\lutz\source\Teensy\tttest/lib/TeensyTimerTool/src//Teensy/FTM/FTM.h:44
     b9c:	f022 0240 	bic.w	r2, r2, #64	; 0x40
C:\Users\lutz\source\Teensy\tttest/lib/TeensyTimerTool/src//Teensy/FTM/FTM.h:45
     ba0:	2110      	movs	r1, #16
C:\Users\lutz\source\Teensy\tttest/lib/TeensyTimerTool/src//Teensy/FTM/FTM.h:36
     ba2:	2d02      	cmp	r5, #2
C:\Users\lutz\source\Teensy\tttest/lib/TeensyTimerTool/src//Teensy/FTM/FTM.h:44
     ba4:	60da      	str	r2, [r3, #12]
     ba6:	f106 0608 	add.w	r6, r6, #8
     baa:	f104 0420 	add.w	r4, r4, #32
C:\Users\lutz\source\Teensy\tttest/lib/TeensyTimerTool/src//Teensy/FTM/FTM.h:45
     bae:	60d9      	str	r1, [r3, #12]
C:\Users\lutz\source\Teensy\tttest/lib/TeensyTimerTool/src//Teensy/FTM/FTM.h:36
     bb0:	d1dc      	bne.n	b6c <TeensyTimerTool::FTM_t<2u>::getTimer()+0x28>
C:\Users\lutz\source\Teensy\tttest/lib/TeensyTimerTool/src//Teensy/FTM/FTM.h:47
     bb2:	4b13      	ldr	r3, [pc, #76]	; (c00 <TeensyTimerTool::FTM_t<2u>::getTimer()+0xbc>)
C:\Users\lutz\source\Teensy\tttest/lib/TeensyTimerTool/src//Teensy/FTM/FTM.h:48
     bb4:	4915      	ldr	r1, [pc, #84]	; (c0c <TeensyTimerTool::FTM_t<2u>::getTimer()+0xc8>)
C:\Users\lutz\source\Teensy\tttest/lib/TeensyTimerTool/src//Teensy/FTM/FTM.h:47
     bb6:	220d      	movs	r2, #13
     bb8:	601a      	str	r2, [r3, #0]
C:\Users\lutz\source\Teensy\tttest/lib/TeensyTimerTool/src//Teensy/FTM/FTM.h:48
     bba:	2040      	movs	r0, #64	; 0x40
     bbc:	f000 faa4 	bl	1108 <attachInterruptVector>
C:\Users\lutz\source\Teensy\tttest/lib/TeensyTimerTool/src//Teensy/FTM/FTM.h:49
     bc0:	4a13      	ldr	r2, [pc, #76]	; (c10 <TeensyTimerTool::FTM_t<2u>::getTimer()+0xcc>)
     bc2:	2301      	movs	r3, #1
     bc4:	6013      	str	r3, [r2, #0]
C:\Users\lutz\source\Teensy\tttest/lib/TeensyTimerTool/src//Teensy/FTM/FTM.h:50
     bc6:	f888 3000 	strb.w	r3, [r8]
C:\Users\lutz\source\Teensy\tttest/lib/TeensyTimerTool/src//Teensy/FTM/FTM.h:55
     bca:	4b12      	ldr	r3, [pc, #72]	; (c14 <TeensyTimerTool::FTM_t<2u>::getTimer()+0xd0>)
     bcc:	781a      	ldrb	r2, [r3, #0]
     bce:	b132      	cbz	r2, bde <TeensyTimerTool::FTM_t<2u>::getTimer()+0x9a>
     bd0:	f893 2020 	ldrb.w	r2, [r3, #32]
     bd4:	b112      	cbz	r2, bdc <TeensyTimerTool::FTM_t<2u>::getTimer()+0x98>
C:\Users\lutz\source\Teensy\tttest/lib/TeensyTimerTool/src//Teensy/FTM/FTM.h:61
     bd6:	2000      	movs	r0, #0
C:\Users\lutz\source\Teensy\tttest/lib/TeensyTimerTool/src//Teensy/FTM/FTM.h:62
     bd8:	e8bd 83f8 	ldmia.w	sp!, {r3, r4, r5, r6, r7, r8, r9, pc}
C:\Users\lutz\source\Teensy\tttest/lib/TeensyTimerTool/src//Teensy/FTM/FTM.h:53
     bdc:	2201      	movs	r2, #1
C:\Users\lutz\source\Teensy\tttest/lib/TeensyTimerTool/src//Teensy/FTM/FTM.h:57
     bde:	0152      	lsls	r2, r2, #5
     be0:	2101      	movs	r1, #1
     be2:	5499      	strb	r1, [r3, r2]
C:\Users\lutz\source\Teensy\tttest/lib/TeensyTimerTool/src//Teensy/FTM/FTM.h:58
     be4:	2014      	movs	r0, #20
C:\Users\lutz\source\Teensy\tttest/lib/TeensyTimerTool/src//Teensy/FTM/FTM.h:57
     be6:	189c      	adds	r4, r3, r2
C:\Users\lutz\source\Teensy\tttest/lib/TeensyTimerTool/src//Teensy/FTM/FTM.h:58
     be8:	f001 faf6 	bl	21d8 <operator new(unsigned int)>
_ZN15TeensyTimerTool13ITimerChannelC4EPSt8functionIFvvEE():
C:\Users\lutz\source\Teensy\tttest/lib/TeensyTimerTool/src//Teensy/FTM/../../ITimerChannel.h:39
     bec:	2300      	movs	r3, #0
_ZN15TeensyTimerTool11FTM_ChannelC4EPNS_7FTM_r_tEPNS_15FTM_ChannelInfoE():
C:\Users\lutz\source\Teensy\tttest/lib/TeensyTimerTool/src//Teensy/FTM/FTM_Channel.h:44
     bee:	490a      	ldr	r1, [pc, #40]	; (c18 <TeensyTimerTool::FTM_t<2u>::getTimer()+0xd4>)
C:\Users\lutz\source\Teensy\tttest/lib/TeensyTimerTool/src//Teensy/FTM/FTM_Channel.h:46
     bf0:	4a03      	ldr	r2, [pc, #12]	; (c00 <TeensyTimerTool::FTM_t<2u>::getTimer()+0xbc>)
C:\Users\lutz\source\Teensy\tttest/lib/TeensyTimerTool/src//Teensy/FTM/FTM_Channel.h:47
     bf2:	6084      	str	r4, [r0, #8]
C:\Users\lutz\source\Teensy\tttest/lib/TeensyTimerTool/src//Teensy/FTM/FTM_Channel.h:44
     bf4:	6001      	str	r1, [r0, #0]
C:\Users\lutz\source\Teensy\tttest/lib/TeensyTimerTool/src//Teensy/FTM/FTM_Channel.h:46
     bf6:	60c2      	str	r2, [r0, #12]
_ZN15TeensyTimerTool13ITimerChannelC4EPSt8functionIFvvEE():
C:\Users\lutz\source\Teensy\tttest/lib/TeensyTimerTool/src//Teensy/FTM/../../ITimerChannel.h:39
     bf8:	6043      	str	r3, [r0, #4]
_ZN15TeensyTimerTool11FTM_ChannelC4EPNS_7FTM_r_tEPNS_15FTM_ChannelInfoE():
C:\Users\lutz\source\Teensy\tttest/lib/TeensyTimerTool/src//Teensy/FTM/FTM_Channel.h:44
     bfa:	6103      	str	r3, [r0, #16]
_ZN15TeensyTimerTool5FTM_tILj2EE8getTimerEv():
C:\Users\lutz\source\Teensy\tttest/lib/TeensyTimerTool/src//Teensy/FTM/FTM.h:58
     bfc:	e8bd 83f8 	ldmia.w	sp!, {r3, r4, r5, r6, r7, r8, r9, pc}
     c00:	400b8000 	.word	0x400b8000
     c04:	1fff9114 	.word	0x1fff9114
     c08:	400b800c 	.word	0x400b800c
     c0c:	000006a1 	.word	0x000006a1
     c10:	e000e108 	.word	0xe000e108
     c14:	1fff9110 	.word	0x1fff9110
     c18:	000033f8 	.word	0x000033f8
     c1c:	1fff9101 	.word	0x1fff9101

00000c20 <TeensyTimerTool::FTM_Channel::begin(std::function<void ()>, float, bool)>:
_ZN15TeensyTimerTool11FTM_Channel5beginESt8functionIFvvEEfb():
C:\Users\lutz\source\Teensy\tttest/lib/TeensyTimerTool/src//Teensy/FTM/FTM_Channel.h:17
     c20:	e92d 41f0 	stmdb	sp!, {r4, r5, r6, r7, r8, lr}
     c24:	688d      	ldr	r5, [r1, #8]
     c26:	b08a      	sub	sp, #40	; 0x28
_ZNSt14_Function_baseC4Ev():
c:\toolchain\gcc\gcc-arm-none-eabi-5_4-2016q3-20160926-win32\arm-none-eabi\include\c++\5.4.1/functional:1825
     c28:	2600      	movs	r6, #0
     c2a:	9604      	str	r6, [sp, #16]
_ZN15TeensyTimerTool11FTM_Channel5beginESt8functionIFvvEEfb():
C:\Users\lutz\source\Teensy\tttest/lib/TeensyTimerTool/src//Teensy/FTM/FTM_Channel.h:17
     c2c:	4690      	mov	r8, r2
     c2e:	4606      	mov	r6, r0
     c30:	461f      	mov	r7, r3
_ZNSt8functionIFvvEEC4ERKS1_():
c:\toolchain\gcc\gcc-arm-none-eabi-5_4-2016q3-20160926-win32\arm-none-eabi\include\c++\5.4.1/functional:2236
     c32:	b13d      	cbz	r5, c44 <TeensyTimerTool::FTM_Channel::begin(std::function<void ()>, float, bool)+0x24>
     c34:	460c      	mov	r4, r1
c:\toolchain\gcc\gcc-arm-none-eabi-5_4-2016q3-20160926-win32\arm-none-eabi\include\c++\5.4.1/functional:2238
     c36:	2202      	movs	r2, #2
     c38:	a802      	add	r0, sp, #8
     c3a:	47a8      	blx	r5
c:\toolchain\gcc\gcc-arm-none-eabi-5_4-2016q3-20160926-win32\arm-none-eabi\include\c++\5.4.1/functional:2239
     c3c:	68e2      	ldr	r2, [r4, #12]
c:\toolchain\gcc\gcc-arm-none-eabi-5_4-2016q3-20160926-win32\arm-none-eabi\include\c++\5.4.1/functional:2240
     c3e:	68a3      	ldr	r3, [r4, #8]
c:\toolchain\gcc\gcc-arm-none-eabi-5_4-2016q3-20160926-win32\arm-none-eabi\include\c++\5.4.1/functional:2239
     c40:	9205      	str	r2, [sp, #20]
c:\toolchain\gcc\gcc-arm-none-eabi-5_4-2016q3-20160926-win32\arm-none-eabi\include\c++\5.4.1/functional:2240
     c42:	9304      	str	r3, [sp, #16]
_ZN15TeensyTimerTool11FTM_Channel5beginESt8functionIFvvEEmb():
C:\Users\lutz\source\Teensy\tttest/lib/TeensyTimerTool/src//Teensy/FTM/FTM_Channel.h:52
     c44:	68b4      	ldr	r4, [r6, #8]
_ZN15TeensyTimerTool11FTM_Channel15ticksFromMicrosEf():
C:\Users\lutz\source\Teensy\tttest/lib/TeensyTimerTool/src//Teensy/FTM/FTM_Channel.h:107
     c46:	4640      	mov	r0, r8
_ZN15TeensyTimerTool11FTM_Channel5beginESt8functionIFvvEEmb():
C:\Users\lutz\source\Teensy\tttest/lib/TeensyTimerTool/src//Teensy/FTM/FTM_Channel.h:52
     c48:	7067      	strb	r7, [r4, #1]
_ZN15TeensyTimerTool11FTM_Channel15ticksFromMicrosEf():
C:\Users\lutz\source\Teensy\tttest/lib/TeensyTimerTool/src//Teensy/FTM/FTM_Channel.h:107
     c4a:	f001 feed 	bl	2a28 <__aeabi_f2uiz>
     c4e:	f001 fccd 	bl	25ec <__aeabi_ui2f>
     c52:	69e1      	ldr	r1, [r4, #28]
     c54:	f001 fd22 	bl	269c <__aeabi_fmul>
     c58:	f001 fee6 	bl	2a28 <__aeabi_f2uiz>
C:\Users\lutz\source\Teensy\tttest/lib/TeensyTimerTool/src//Teensy/FTM/FTM_Channel.h:108
     c5c:	f5b0 3f80 	cmp.w	r0, #65536	; 0x10000
     c60:	d232      	bcs.n	cc8 <TeensyTimerTool::FTM_Channel::begin(std::function<void ()>, float, bool)+0xa8>
     c62:	4625      	mov	r5, r4
     c64:	9b04      	ldr	r3, [sp, #16]
_ZN15TeensyTimerTool11FTM_Channel5beginESt8functionIFvvEEmb():
C:\Users\lutz\source\Teensy\tttest/lib/TeensyTimerTool/src//Teensy/FTM/FTM_Channel.h:53
     c66:	6160      	str	r0, [r4, #20]
_ZNSt14_Function_baseC4Ev():
c:\toolchain\gcc\gcc-arm-none-eabi-5_4-2016q3-20160926-win32\arm-none-eabi\include\c++\5.4.1/functional:1825
     c68:	2200      	movs	r2, #0
     c6a:	9208      	str	r2, [sp, #32]
_ZNSt8functionIFvvEEC4ERKS1_():
c:\toolchain\gcc\gcc-arm-none-eabi-5_4-2016q3-20160926-win32\arm-none-eabi\include\c++\5.4.1/functional:2238
     c6c:	ac06      	add	r4, sp, #24
c:\toolchain\gcc\gcc-arm-none-eabi-5_4-2016q3-20160926-win32\arm-none-eabi\include\c++\5.4.1/functional:2236
     c6e:	b13b      	cbz	r3, c80 <TeensyTimerTool::FTM_Channel::begin(std::function<void ()>, float, bool)+0x60>
c:\toolchain\gcc\gcc-arm-none-eabi-5_4-2016q3-20160926-win32\arm-none-eabi\include\c++\5.4.1/functional:2238
     c70:	2202      	movs	r2, #2
     c72:	4620      	mov	r0, r4
     c74:	a902      	add	r1, sp, #8
     c76:	4798      	blx	r3
c:\toolchain\gcc\gcc-arm-none-eabi-5_4-2016q3-20160926-win32\arm-none-eabi\include\c++\5.4.1/functional:2239
     c78:	9a05      	ldr	r2, [sp, #20]
c:\toolchain\gcc\gcc-arm-none-eabi-5_4-2016q3-20160926-win32\arm-none-eabi\include\c++\5.4.1/functional:2240
     c7a:	9b04      	ldr	r3, [sp, #16]
c:\toolchain\gcc\gcc-arm-none-eabi-5_4-2016q3-20160926-win32\arm-none-eabi\include\c++\5.4.1/functional:2239
     c7c:	9209      	str	r2, [sp, #36]	; 0x24
c:\toolchain\gcc\gcc-arm-none-eabi-5_4-2016q3-20160926-win32\arm-none-eabi\include\c++\5.4.1/functional:2240
     c7e:	9308      	str	r3, [sp, #32]
_ZSt4swapISt9_Any_dataEvRT_S2_():
c:\toolchain\gcc\gcc-arm-none-eabi-5_4-2016q3-20160926-win32\arm-none-eabi\include\c++\5.4.1\bits/move.h:185
     c80:	e894 0003 	ldmia.w	r4, {r0, r1}
c:\toolchain\gcc\gcc-arm-none-eabi-5_4-2016q3-20160926-win32\arm-none-eabi\include\c++\5.4.1\bits/move.h:186
     c84:	1d2b      	adds	r3, r5, #4
c:\toolchain\gcc\gcc-arm-none-eabi-5_4-2016q3-20160926-win32\arm-none-eabi\include\c++\5.4.1\bits/move.h:185
     c86:	e88d 0003 	stmia.w	sp, {r0, r1}
c:\toolchain\gcc\gcc-arm-none-eabi-5_4-2016q3-20160926-win32\arm-none-eabi\include\c++\5.4.1\bits/move.h:186
     c8a:	e893 0003 	ldmia.w	r3, {r0, r1}
     c8e:	e884 0003 	stmia.w	r4, {r0, r1}
c:\toolchain\gcc\gcc-arm-none-eabi-5_4-2016q3-20160926-win32\arm-none-eabi\include\c++\5.4.1\bits/move.h:187
     c92:	e89d 0003 	ldmia.w	sp, {r0, r1}
     c96:	e883 0003 	stmia.w	r3, {r0, r1}
_ZSt4swapIPFbRSt9_Any_dataRKS0_St18_Manager_operationEEvRT_S8_():
c:\toolchain\gcc\gcc-arm-none-eabi-5_4-2016q3-20160926-win32\arm-none-eabi\include\c++\5.4.1\bits/move.h:185
     c9a:	9a08      	ldr	r2, [sp, #32]
c:\toolchain\gcc\gcc-arm-none-eabi-5_4-2016q3-20160926-win32\arm-none-eabi\include\c++\5.4.1\bits/move.h:186
     c9c:	68eb      	ldr	r3, [r5, #12]
c:\toolchain\gcc\gcc-arm-none-eabi-5_4-2016q3-20160926-win32\arm-none-eabi\include\c++\5.4.1\bits/move.h:187
     c9e:	60ea      	str	r2, [r5, #12]
_ZSt4swapIPFvRKSt9_Any_dataEEvRT_S6_():
c:\toolchain\gcc\gcc-arm-none-eabi-5_4-2016q3-20160926-win32\arm-none-eabi\include\c++\5.4.1\bits/move.h:185
     ca0:	9909      	ldr	r1, [sp, #36]	; 0x24
c:\toolchain\gcc\gcc-arm-none-eabi-5_4-2016q3-20160926-win32\arm-none-eabi\include\c++\5.4.1\bits/move.h:186
     ca2:	692a      	ldr	r2, [r5, #16]
_ZSt4swapIPFbRSt9_Any_dataRKS0_St18_Manager_operationEEvRT_S8_():
c:\toolchain\gcc\gcc-arm-none-eabi-5_4-2016q3-20160926-win32\arm-none-eabi\include\c++\5.4.1\bits/move.h:186
     ca4:	9308      	str	r3, [sp, #32]
_ZSt4swapIPFvRKSt9_Any_dataEEvRT_S6_():
c:\toolchain\gcc\gcc-arm-none-eabi-5_4-2016q3-20160926-win32\arm-none-eabi\include\c++\5.4.1\bits/move.h:187
     ca6:	6129      	str	r1, [r5, #16]
c:\toolchain\gcc\gcc-arm-none-eabi-5_4-2016q3-20160926-win32\arm-none-eabi\include\c++\5.4.1\bits/move.h:186
     ca8:	9209      	str	r2, [sp, #36]	; 0x24
_ZNSt14_Function_baseD4Ev():
c:\toolchain\gcc\gcc-arm-none-eabi-5_4-2016q3-20160926-win32\arm-none-eabi\include\c++\5.4.1/functional:1829
     caa:	b11b      	cbz	r3, cb4 <TeensyTimerTool::FTM_Channel::begin(std::function<void ()>, float, bool)+0x94>
c:\toolchain\gcc\gcc-arm-none-eabi-5_4-2016q3-20160926-win32\arm-none-eabi\include\c++\5.4.1/functional:1830
     cac:	2203      	movs	r2, #3
     cae:	4621      	mov	r1, r4
     cb0:	4620      	mov	r0, r4
     cb2:	4798      	blx	r3
c:\toolchain\gcc\gcc-arm-none-eabi-5_4-2016q3-20160926-win32\arm-none-eabi\include\c++\5.4.1/functional:1829
     cb4:	9b04      	ldr	r3, [sp, #16]
     cb6:	b11b      	cbz	r3, cc0 <TeensyTimerTool::FTM_Channel::begin(std::function<void ()>, float, bool)+0xa0>
c:\toolchain\gcc\gcc-arm-none-eabi-5_4-2016q3-20160926-win32\arm-none-eabi\include\c++\5.4.1/functional:1830
     cb8:	a902      	add	r1, sp, #8
     cba:	4608      	mov	r0, r1
     cbc:	2203      	movs	r2, #3
     cbe:	4798      	blx	r3
_ZN15TeensyTimerTool11FTM_Channel5beginESt8functionIFvvEEfb():
C:\Users\lutz\source\Teensy\tttest/lib/TeensyTimerTool/src//Teensy/FTM/FTM_Channel.h:21
     cc0:	2000      	movs	r0, #0
     cc2:	b00a      	add	sp, #40	; 0x28
     cc4:	e8bd 81f0 	ldmia.w	sp!, {r4, r5, r6, r7, r8, pc}
_ZN15TeensyTimerTool11FTM_Channel15ticksFromMicrosEf():
C:\Users\lutz\source\Teensy\tttest/lib/TeensyTimerTool/src//Teensy/FTM/FTM_Channel.h:110
     cc8:	f06f 0063 	mvn.w	r0, #99	; 0x63
     ccc:	f000 f8f2 	bl	eb4 <TeensyTimerTool::postError(TeensyTimerTool::errorCode)>
     cd0:	68b5      	ldr	r5, [r6, #8]
C:\Users\lutz\source\Teensy\tttest/lib/TeensyTimerTool/src//Teensy/FTM/FTM_Channel.h:111
     cd2:	f64f 70ff 	movw	r0, #65535	; 0xffff
     cd6:	e7c5      	b.n	c64 <TeensyTimerTool::FTM_Channel::begin(std::function<void ()>, float, bool)+0x44>

00000cd8 <TeensyTimerTool::TckChannel<unsigned long>::trigger(float)>:
_ZN15TeensyTimerTool10TckChannelImE7triggerEf():
C:\Users\lutz\source\Teensy\tttest/lib/TeensyTimerTool/src//Teensy/TCK/TckChannel.h:118
     cd8:	e92d 41f0 	stmdb	sp!, {r4, r5, r6, r7, r8, lr}
     cdc:	6b06      	ldr	r6, [r0, #48]	; 0x30
C:\Users\lutz\source\Teensy\tttest/lib/TeensyTimerTool/src//Teensy/TCK/TckChannel.h:120
     cde:	6803      	ldr	r3, [r0, #0]
C:\Users\lutz\source\Teensy\tttest/lib/TeensyTimerTool/src//Teensy/TCK/TckChannel.h:118
     ce0:	460d      	mov	r5, r1
     ce2:	4604      	mov	r4, r0
_ZNK15TeensyTimerTool10TckChannelImE12getMaxMicrosEv():
C:\Users\lutz\source\Teensy\tttest/lib/TeensyTimerTool/src//Teensy/TCK/TckChannel.h:166
     ce4:	4631      	mov	r1, r6
     ce6:	4815      	ldr	r0, [pc, #84]	; (d3c <TeensyTimerTool::TckChannel<unsigned long>::trigger(float)+0x64>)
_ZN15TeensyTimerTool10TckChannelImE7triggerEf():
C:\Users\lutz\source\Teensy\tttest/lib/TeensyTimerTool/src//Teensy/TCK/TckChannel.h:120
     ce8:	f8d3 8008 	ldr.w	r8, [r3, #8]
_ZNK15TeensyTimerTool10TckChannelImE12getMaxMicrosEv():
C:\Users\lutz\source\Teensy\tttest/lib/TeensyTimerTool/src//Teensy/TCK/TckChannel.h:166
     cec:	f001 fd8a 	bl	2804 <__aeabi_fdiv>
     cf0:	4607      	mov	r7, r0
_ZNK15TeensyTimerTool10TckChannelImE19microsecondToCyclesEf():
C:\Users\lutz\source\Teensy\tttest/lib/TeensyTimerTool/src//Teensy/TCK/TckChannel.h:146
     cf2:	4601      	mov	r1, r0
     cf4:	4628      	mov	r0, r5
     cf6:	f001 fe8d 	bl	2a14 <__aeabi_fcmpgt>
     cfa:	b128      	cbz	r0, d08 <TeensyTimerTool::TckChannel<unsigned long>::trigger(float)+0x30>
C:\Users\lutz\source\Teensy\tttest/lib/TeensyTimerTool/src//Teensy/TCK/TckChannel.h:149
     cfc:	f06f 0063 	mvn.w	r0, #99	; 0x63
     d00:	f000 f8d8 	bl	eb4 <TeensyTimerTool::postError(TeensyTimerTool::errorCode)>
     d04:	6b26      	ldr	r6, [r4, #48]	; 0x30
C:\Users\lutz\source\Teensy\tttest/lib/TeensyTimerTool/src//Teensy/TCK/TckChannel.h:148
     d06:	463d      	mov	r5, r7
C:\Users\lutz\source\Teensy\tttest/lib/TeensyTimerTool/src//Teensy/TCK/TckChannel.h:151
     d08:	4631      	mov	r1, r6
     d0a:	4628      	mov	r0, r5
     d0c:	f001 fcc6 	bl	269c <__aeabi_fmul>
     d10:	f001 fe8a 	bl	2a28 <__aeabi_f2uiz>
     d14:	4b0a      	ldr	r3, [pc, #40]	; (d40 <TeensyTimerTool::TckChannel<unsigned long>::trigger(float)+0x68>)
     d16:	4598      	cmp	r8, r3
     d18:	d109      	bne.n	d2e <TeensyTimerTool::TckChannel<unsigned long>::trigger(float)+0x56>
_ZN15TeensyTimerTool10TckChannelImE15getCycleCounterEv():
C:\Users\lutz\source\Teensy\tttest/lib/TeensyTimerTool/src//Teensy/TCK/TckChannel.h:160
     d1a:	4a0a      	ldr	r2, [pc, #40]	; (d44 <TeensyTimerTool::TckChannel<unsigned long>::trigger(float)+0x6c>)
_ZN15TeensyTimerTool10TckChannelImE13triggerDirectEm():
C:\Users\lutz\source\Teensy\tttest/lib/TeensyTimerTool/src//Teensy/TCK/TckChannel.h:113
     d1c:	2301      	movs	r3, #1
_ZN15TeensyTimerTool10TckChannelImE15getCycleCounterEv():
C:\Users\lutz\source\Teensy\tttest/lib/TeensyTimerTool/src//Teensy/TCK/TckChannel.h:160
     d1e:	6812      	ldr	r2, [r2, #0]
_ZN15TeensyTimerTool10TckChannelImE13triggerDirectEm():
C:\Users\lutz\source\Teensy\tttest/lib/TeensyTimerTool/src//Teensy/TCK/TckChannel.h:110
     d20:	61e2      	str	r2, [r4, #28]
C:\Users\lutz\source\Teensy\tttest/lib/TeensyTimerTool/src//Teensy/TCK/TckChannel.h:111
     d22:	6260      	str	r0, [r4, #36]	; 0x24
C:\Users\lutz\source\Teensy\tttest/lib/TeensyTimerTool/src//Teensy/TCK/TckChannel.h:112
     d24:	6220      	str	r0, [r4, #32]
C:\Users\lutz\source\Teensy\tttest/lib/TeensyTimerTool/src//Teensy/TCK/TckChannel.h:113
     d26:	7663      	strb	r3, [r4, #25]
_ZN15TeensyTimerTool10TckChannelImE7triggerEf():
C:\Users\lutz\source\Teensy\tttest/lib/TeensyTimerTool/src//Teensy/TCK/TckChannel.h:121
     d28:	2000      	movs	r0, #0
     d2a:	e8bd 81f0 	ldmia.w	sp!, {r4, r5, r6, r7, r8, pc}
C:\Users\lutz\source\Teensy\tttest/lib/TeensyTimerTool/src//Teensy/TCK/TckChannel.h:120
     d2e:	4601      	mov	r1, r0
     d30:	4643      	mov	r3, r8
     d32:	4620      	mov	r0, r4
C:\Users\lutz\source\Teensy\tttest/lib/TeensyTimerTool/src//Teensy/TCK/TckChannel.h:121
     d34:	e8bd 41f0 	ldmia.w	sp!, {r4, r5, r6, r7, r8, lr}
C:\Users\lutz\source\Teensy\tttest/lib/TeensyTimerTool/src//Teensy/TCK/TckChannel.h:120
     d38:	4718      	bx	r3
     d3a:	bf00      	nop
     d3c:	4f700000 	.word	0x4f700000
     d40:	0000076d 	.word	0x0000076d
     d44:	e0001004 	.word	0xe0001004

00000d48 <TeensyTimerTool::TckChannel<unsigned long>::begin(std::function<void ()>, float, bool)>:
_ZN15TeensyTimerTool10TckChannelImE5beginESt8functionIFvvEEfb():
C:\Users\lutz\source\Teensy\tttest/lib/TeensyTimerTool/src//Teensy/TCK/TckChannel.h:77
     d48:	e92d 41f0 	stmdb	sp!, {r4, r5, r6, r7, r8, lr}
     d4c:	4604      	mov	r4, r0
C:\Users\lutz\source\Teensy\tttest/lib/TeensyTimerTool/src//Teensy/TCK/TckChannel.h:79
     d4e:	2000      	movs	r0, #0
C:\Users\lutz\source\Teensy\tttest/lib/TeensyTimerTool/src//Teensy/TCK/TckChannel.h:77
     d50:	b086      	sub	sp, #24
C:\Users\lutz\source\Teensy\tttest/lib/TeensyTimerTool/src//Teensy/TCK/TckChannel.h:81
     d52:	7623      	strb	r3, [r4, #24]
C:\Users\lutz\source\Teensy\tttest/lib/TeensyTimerTool/src//Teensy/TCK/TckChannel.h:77
     d54:	460e      	mov	r6, r1
C:\Users\lutz\source\Teensy\tttest/lib/TeensyTimerTool/src//Teensy/TCK/TckChannel.h:79
     d56:	7660      	strb	r0, [r4, #25]
C:\Users\lutz\source\Teensy\tttest/lib/TeensyTimerTool/src//Teensy/TCK/TckChannel.h:82
     d58:	b1a3      	cbz	r3, d84 <TeensyTimerTool::TckChannel<unsigned long>::begin(std::function<void ()>, float, bool)+0x3c>
     d5a:	6b27      	ldr	r7, [r4, #48]	; 0x30
_ZNK15TeensyTimerTool10TckChannelImE12getMaxMicrosEv():
C:\Users\lutz\source\Teensy\tttest/lib/TeensyTimerTool/src//Teensy/TCK/TckChannel.h:166
     d5c:	4823      	ldr	r0, [pc, #140]	; (dec <TeensyTimerTool::TckChannel<unsigned long>::begin(std::function<void ()>, float, bool)+0xa4>)
     d5e:	4639      	mov	r1, r7
     d60:	4615      	mov	r5, r2
     d62:	f001 fd4f 	bl	2804 <__aeabi_fdiv>
     d66:	4680      	mov	r8, r0
_ZNK15TeensyTimerTool10TckChannelImE19microsecondToCyclesEf():
C:\Users\lutz\source\Teensy\tttest/lib/TeensyTimerTool/src//Teensy/TCK/TckChannel.h:146
     d68:	4601      	mov	r1, r0
     d6a:	4628      	mov	r0, r5
     d6c:	f001 fe52 	bl	2a14 <__aeabi_fcmpgt>
     d70:	2800      	cmp	r0, #0
     d72:	d133      	bne.n	ddc <TeensyTimerTool::TckChannel<unsigned long>::begin(std::function<void ()>, float, bool)+0x94>
C:\Users\lutz\source\Teensy\tttest/lib/TeensyTimerTool/src//Teensy/TCK/TckChannel.h:151
     d74:	4639      	mov	r1, r7
     d76:	4628      	mov	r0, r5
     d78:	f001 fc90 	bl	269c <__aeabi_fmul>
     d7c:	f001 fe54 	bl	2a28 <__aeabi_f2uiz>
_ZN15TeensyTimerTool10TckChannelImE5beginESt8functionIFvvEEfb():
C:\Users\lutz\source\Teensy\tttest/lib/TeensyTimerTool/src//Teensy/TCK/TckChannel.h:84
     d80:	6220      	str	r0, [r4, #32]
C:\Users\lutz\source\Teensy\tttest/lib/TeensyTimerTool/src//Teensy/TCK/TckChannel.h:85
     d82:	6260      	str	r0, [r4, #36]	; 0x24
     d84:	68b3      	ldr	r3, [r6, #8]
_ZNSt14_Function_baseC4Ev():
c:\toolchain\gcc\gcc-arm-none-eabi-5_4-2016q3-20160926-win32\arm-none-eabi\include\c++\5.4.1/functional:1825
     d86:	2200      	movs	r2, #0
     d88:	9204      	str	r2, [sp, #16]
_ZNSt8functionIFvvEEC4ERKS1_():
c:\toolchain\gcc\gcc-arm-none-eabi-5_4-2016q3-20160926-win32\arm-none-eabi\include\c++\5.4.1/functional:2236
     d8a:	b31b      	cbz	r3, dd4 <TeensyTimerTool::TckChannel<unsigned long>::begin(std::function<void ()>, float, bool)+0x8c>
c:\toolchain\gcc\gcc-arm-none-eabi-5_4-2016q3-20160926-win32\arm-none-eabi\include\c++\5.4.1/functional:2238
     d8c:	ad02      	add	r5, sp, #8
     d8e:	4631      	mov	r1, r6
     d90:	4628      	mov	r0, r5
     d92:	2202      	movs	r2, #2
     d94:	4798      	blx	r3
c:\toolchain\gcc\gcc-arm-none-eabi-5_4-2016q3-20160926-win32\arm-none-eabi\include\c++\5.4.1/functional:2239
     d96:	68f7      	ldr	r7, [r6, #12]
c:\toolchain\gcc\gcc-arm-none-eabi-5_4-2016q3-20160926-win32\arm-none-eabi\include\c++\5.4.1/functional:2240
     d98:	68b6      	ldr	r6, [r6, #8]
_ZSt4swapISt9_Any_dataEvRT_S2_():
c:\toolchain\gcc\gcc-arm-none-eabi-5_4-2016q3-20160926-win32\arm-none-eabi\include\c++\5.4.1\bits/move.h:185
     d9a:	e895 0003 	ldmia.w	r5, {r0, r1}
c:\toolchain\gcc\gcc-arm-none-eabi-5_4-2016q3-20160926-win32\arm-none-eabi\include\c++\5.4.1\bits/move.h:186
     d9e:	f104 0308 	add.w	r3, r4, #8
c:\toolchain\gcc\gcc-arm-none-eabi-5_4-2016q3-20160926-win32\arm-none-eabi\include\c++\5.4.1\bits/move.h:185
     da2:	e88d 0003 	stmia.w	sp, {r0, r1}
c:\toolchain\gcc\gcc-arm-none-eabi-5_4-2016q3-20160926-win32\arm-none-eabi\include\c++\5.4.1\bits/move.h:186
     da6:	e893 0003 	ldmia.w	r3, {r0, r1}
     daa:	e885 0003 	stmia.w	r5, {r0, r1}
c:\toolchain\gcc\gcc-arm-none-eabi-5_4-2016q3-20160926-win32\arm-none-eabi\include\c++\5.4.1\bits/move.h:187
     dae:	e89d 0003 	ldmia.w	sp, {r0, r1}
     db2:	e883 0003 	stmia.w	r3, {r0, r1}
_ZSt4swapIPFbRSt9_Any_dataRKS0_St18_Manager_operationEEvRT_S8_():
c:\toolchain\gcc\gcc-arm-none-eabi-5_4-2016q3-20160926-win32\arm-none-eabi\include\c++\5.4.1\bits/move.h:186
     db6:	6923      	ldr	r3, [r4, #16]
_ZSt4swapIPFvRKSt9_Any_dataEEvRT_S6_():
c:\toolchain\gcc\gcc-arm-none-eabi-5_4-2016q3-20160926-win32\arm-none-eabi\include\c++\5.4.1\bits/move.h:186
     db8:	6962      	ldr	r2, [r4, #20]
_ZSt4swapIPFbRSt9_Any_dataRKS0_St18_Manager_operationEEvRT_S8_():
c:\toolchain\gcc\gcc-arm-none-eabi-5_4-2016q3-20160926-win32\arm-none-eabi\include\c++\5.4.1\bits/move.h:186
     dba:	9304      	str	r3, [sp, #16]
c:\toolchain\gcc\gcc-arm-none-eabi-5_4-2016q3-20160926-win32\arm-none-eabi\include\c++\5.4.1\bits/move.h:187
     dbc:	6126      	str	r6, [r4, #16]
_ZSt4swapIPFvRKSt9_Any_dataEEvRT_S6_():
c:\toolchain\gcc\gcc-arm-none-eabi-5_4-2016q3-20160926-win32\arm-none-eabi\include\c++\5.4.1\bits/move.h:186
     dbe:	9205      	str	r2, [sp, #20]
c:\toolchain\gcc\gcc-arm-none-eabi-5_4-2016q3-20160926-win32\arm-none-eabi\include\c++\5.4.1\bits/move.h:187
     dc0:	6167      	str	r7, [r4, #20]
_ZNSt14_Function_baseD4Ev():
c:\toolchain\gcc\gcc-arm-none-eabi-5_4-2016q3-20160926-win32\arm-none-eabi\include\c++\5.4.1/functional:1829
     dc2:	b11b      	cbz	r3, dcc <TeensyTimerTool::TckChannel<unsigned long>::begin(std::function<void ()>, float, bool)+0x84>
c:\toolchain\gcc\gcc-arm-none-eabi-5_4-2016q3-20160926-win32\arm-none-eabi\include\c++\5.4.1/functional:1830
     dc4:	2203      	movs	r2, #3
     dc6:	4629      	mov	r1, r5
     dc8:	4628      	mov	r0, r5
     dca:	4798      	blx	r3
_ZN15TeensyTimerTool10TckChannelImE5beginESt8functionIFvvEEfb():
C:\Users\lutz\source\Teensy\tttest/lib/TeensyTimerTool/src//Teensy/TCK/TckChannel.h:90
     dcc:	2000      	movs	r0, #0
     dce:	b006      	add	sp, #24
     dd0:	e8bd 81f0 	ldmia.w	sp!, {r4, r5, r6, r7, r8, pc}
_ZNSt8functionIFvvEEC4ERKS1_():
c:\toolchain\gcc\gcc-arm-none-eabi-5_4-2016q3-20160926-win32\arm-none-eabi\include\c++\5.4.1/functional:2236
     dd4:	461e      	mov	r6, r3
     dd6:	9f05      	ldr	r7, [sp, #20]
     dd8:	ad02      	add	r5, sp, #8
     dda:	e7de      	b.n	d9a <TeensyTimerTool::TckChannel<unsigned long>::begin(std::function<void ()>, float, bool)+0x52>
_ZNK15TeensyTimerTool10TckChannelImE19microsecondToCyclesEf():
C:\Users\lutz\source\Teensy\tttest/lib/TeensyTimerTool/src//Teensy/TCK/TckChannel.h:149
     ddc:	f06f 0063 	mvn.w	r0, #99	; 0x63
     de0:	f000 f868 	bl	eb4 <TeensyTimerTool::postError(TeensyTimerTool::errorCode)>
C:\Users\lutz\source\Teensy\tttest/lib/TeensyTimerTool/src//Teensy/TCK/TckChannel.h:148
     de4:	4645      	mov	r5, r8
     de6:	6b27      	ldr	r7, [r4, #48]	; 0x30
     de8:	e7c4      	b.n	d74 <TeensyTimerTool::TckChannel<unsigned long>::begin(std::function<void ()>, float, bool)+0x2c>
     dea:	bf00      	nop
     dec:	4f700000 	.word	0x4f700000

00000df0 <_GLOBAL__sub_I__ZN15TeensyTimerTool3TCKE>:
_GLOBAL__sub_I__ZN15TeensyTimerTool3TCKE():
C:\Users\lutz\source\Teensy\tttest/lib/TeensyTimerTool/src//config.cpp:64
     df0:	b570      	push	{r4, r5, r6, lr}
__static_initialization_and_destruction_0():
C:\Users\lutz\source\Teensy\tttest/lib/TeensyTimerTool/src//Teensy/FTM/FTM.h:87
     df2:	4d1d      	ldr	r5, [pc, #116]	; (e68 <_GLOBAL__sub_I__ZN15TeensyTimerTool3TCKE+0x78>)
     df4:	682b      	ldr	r3, [r5, #0]
     df6:	f013 0301 	ands.w	r3, r3, #1
     dfa:	d113      	bne.n	e24 <_GLOBAL__sub_I__ZN15TeensyTimerTool3TCKE+0x34>
_ZNSt14_Function_baseC4Ev():
c:\toolchain\gcc\gcc-arm-none-eabi-5_4-2016q3-20160926-win32\arm-none-eabi\include\c++\5.4.1/functional:1825
     dfc:	4c1b      	ldr	r4, [pc, #108]	; (e6c <_GLOBAL__sub_I__ZN15TeensyTimerTool3TCKE+0x7c>)
__static_initialization_and_destruction_0():
C:\Users\lutz\source\Teensy\tttest/lib/TeensyTimerTool/src//Teensy/FTM/FTM.h:87
     dfe:	4a1c      	ldr	r2, [pc, #112]	; (e70 <_GLOBAL__sub_I__ZN15TeensyTimerTool3TCKE+0x80>)
     e00:	491c      	ldr	r1, [pc, #112]	; (e74 <_GLOBAL__sub_I__ZN15TeensyTimerTool3TCKE+0x84>)
_ZNSt14_Function_baseC4Ev():
c:\toolchain\gcc\gcc-arm-none-eabi-5_4-2016q3-20160926-win32\arm-none-eabi\include\c++\5.4.1/functional:1825
     e02:	60e3      	str	r3, [r4, #12]
__static_initialization_and_destruction_0():
C:\Users\lutz\source\Teensy\tttest/lib/TeensyTimerTool/src//Teensy/FTM/FTM.h:87
     e04:	2601      	movs	r6, #1
     e06:	4618      	mov	r0, r3
_ZNSt14_Function_baseC4Ev():
c:\toolchain\gcc\gcc-arm-none-eabi-5_4-2016q3-20160926-win32\arm-none-eabi\include\c++\5.4.1/functional:1825
     e08:	62e3      	str	r3, [r4, #44]	; 0x2c
     e0a:	64e3      	str	r3, [r4, #76]	; 0x4c
     e0c:	66e3      	str	r3, [r4, #108]	; 0x6c
     e0e:	f8c4 308c 	str.w	r3, [r4, #140]	; 0x8c
     e12:	f8c4 30ac 	str.w	r3, [r4, #172]	; 0xac
     e16:	f8c4 30cc 	str.w	r3, [r4, #204]	; 0xcc
     e1a:	f8c4 30ec 	str.w	r3, [r4, #236]	; 0xec
__static_initialization_and_destruction_0():
C:\Users\lutz\source\Teensy\tttest/lib/TeensyTimerTool/src//Teensy/FTM/FTM.h:87
     e1e:	602e      	str	r6, [r5, #0]
     e20:	f001 fe22 	bl	2a68 <__aeabi_atexit>
     e24:	4c14      	ldr	r4, [pc, #80]	; (e78 <_GLOBAL__sub_I__ZN15TeensyTimerTool3TCKE+0x88>)
     e26:	6820      	ldr	r0, [r4, #0]
     e28:	f010 0301 	ands.w	r3, r0, #1
     e2c:	d109      	bne.n	e42 <_GLOBAL__sub_I__ZN15TeensyTimerTool3TCKE+0x52>
_ZNSt14_Function_baseC4Ev():
c:\toolchain\gcc\gcc-arm-none-eabi-5_4-2016q3-20160926-win32\arm-none-eabi\include\c++\5.4.1/functional:1825
     e2e:	4d13      	ldr	r5, [pc, #76]	; (e7c <_GLOBAL__sub_I__ZN15TeensyTimerTool3TCKE+0x8c>)
__static_initialization_and_destruction_0():
C:\Users\lutz\source\Teensy\tttest/lib/TeensyTimerTool/src//Teensy/FTM/FTM.h:87
     e30:	4a0f      	ldr	r2, [pc, #60]	; (e70 <_GLOBAL__sub_I__ZN15TeensyTimerTool3TCKE+0x80>)
     e32:	4913      	ldr	r1, [pc, #76]	; (e80 <_GLOBAL__sub_I__ZN15TeensyTimerTool3TCKE+0x90>)
_ZNSt14_Function_baseC4Ev():
c:\toolchain\gcc\gcc-arm-none-eabi-5_4-2016q3-20160926-win32\arm-none-eabi\include\c++\5.4.1/functional:1825
     e34:	60eb      	str	r3, [r5, #12]
__static_initialization_and_destruction_0():
C:\Users\lutz\source\Teensy\tttest/lib/TeensyTimerTool/src//Teensy/FTM/FTM.h:87
     e36:	2601      	movs	r6, #1
     e38:	4618      	mov	r0, r3
_ZNSt14_Function_baseC4Ev():
c:\toolchain\gcc\gcc-arm-none-eabi-5_4-2016q3-20160926-win32\arm-none-eabi\include\c++\5.4.1/functional:1825
     e3a:	62eb      	str	r3, [r5, #44]	; 0x2c
__static_initialization_and_destruction_0():
C:\Users\lutz\source\Teensy\tttest/lib/TeensyTimerTool/src//Teensy/FTM/FTM.h:87
     e3c:	6026      	str	r6, [r4, #0]
     e3e:	f001 fe13 	bl	2a68 <__aeabi_atexit>
     e42:	4c10      	ldr	r4, [pc, #64]	; (e84 <_GLOBAL__sub_I__ZN15TeensyTimerTool3TCKE+0x94>)
     e44:	6820      	ldr	r0, [r4, #0]
     e46:	f010 0301 	ands.w	r3, r0, #1
     e4a:	d10b      	bne.n	e64 <_GLOBAL__sub_I__ZN15TeensyTimerTool3TCKE+0x74>
_ZNSt14_Function_baseC4Ev():
c:\toolchain\gcc\gcc-arm-none-eabi-5_4-2016q3-20160926-win32\arm-none-eabi\include\c++\5.4.1/functional:1825
     e4c:	4d0e      	ldr	r5, [pc, #56]	; (e88 <_GLOBAL__sub_I__ZN15TeensyTimerTool3TCKE+0x98>)
__static_initialization_and_destruction_0():
C:\Users\lutz\source\Teensy\tttest/lib/TeensyTimerTool/src//Teensy/FTM/FTM.h:87
     e4e:	4a08      	ldr	r2, [pc, #32]	; (e70 <_GLOBAL__sub_I__ZN15TeensyTimerTool3TCKE+0x80>)
_ZNSt14_Function_baseC4Ev():
c:\toolchain\gcc\gcc-arm-none-eabi-5_4-2016q3-20160926-win32\arm-none-eabi\include\c++\5.4.1/functional:1825
     e50:	60eb      	str	r3, [r5, #12]
__static_initialization_and_destruction_0():
C:\Users\lutz\source\Teensy\tttest/lib/TeensyTimerTool/src//Teensy/FTM/FTM.h:87
     e52:	2601      	movs	r6, #1
_ZNSt14_Function_baseC4Ev():
c:\toolchain\gcc\gcc-arm-none-eabi-5_4-2016q3-20160926-win32\arm-none-eabi\include\c++\5.4.1/functional:1825
     e54:	62eb      	str	r3, [r5, #44]	; 0x2c
__static_initialization_and_destruction_0():
C:\Users\lutz\source\Teensy\tttest/lib/TeensyTimerTool/src//Teensy/FTM/FTM.h:87
     e56:	6026      	str	r6, [r4, #0]
     e58:	490c      	ldr	r1, [pc, #48]	; (e8c <_GLOBAL__sub_I__ZN15TeensyTimerTool3TCKE+0x9c>)
     e5a:	4618      	mov	r0, r3
_GLOBAL__sub_I__ZN15TeensyTimerTool3TCKE():
C:\Users\lutz\source\Teensy\tttest/lib/TeensyTimerTool/src//config.cpp:64
     e5c:	e8bd 4070 	ldmia.w	sp!, {r4, r5, r6, lr}
__static_initialization_and_destruction_0():
C:\Users\lutz\source\Teensy\tttest/lib/TeensyTimerTool/src//Teensy/FTM/FTM.h:87
     e60:	f001 be02 	b.w	2a68 <__aeabi_atexit>
     e64:	bd70      	pop	{r4, r5, r6, pc}
     e66:	bf00      	nop
     e68:	1fff910c 	.word	0x1fff910c
     e6c:	1fff9190 	.word	0x1fff9190
     e70:	1fff87b0 	.word	0x1fff87b0
     e74:	000006f5 	.word	0x000006f5
     e78:	1fff9108 	.word	0x1fff9108
     e7c:	1fff9150 	.word	0x1fff9150
     e80:	00000715 	.word	0x00000715
     e84:	1fff9104 	.word	0x1fff9104
     e88:	1fff9110 	.word	0x1fff9110
     e8c:	00000741 	.word	0x00000741

00000e90 <TeensyTimerTool::BaseTimer::BaseTimer(TeensyTimerTool::ITimerChannel* (*)(), bool)>:
_ZN15TeensyTimerTool9BaseTimerC2EPFPNS_13ITimerChannelEvEb():
C:\Users\lutz\source\Teensy\tttest/lib/TeensyTimerTool/src//baseTimer.cpp:8
     e90:	b410      	push	{r4}
C:\Users\lutz\source\Teensy\tttest/lib/TeensyTimerTool/src//baseTimer.cpp:9
     e92:	2400      	movs	r4, #0
     e94:	60c4      	str	r4, [r0, #12]
C:\Users\lutz\source\Teensy\tttest/lib/TeensyTimerTool/src//baseTimer.cpp:12
     e96:	6044      	str	r4, [r0, #4]
C:\Users\lutz\source\Teensy\tttest/lib/TeensyTimerTool/src//baseTimer.cpp:9
     e98:	6001      	str	r1, [r0, #0]
C:\Users\lutz\source\Teensy\tttest/lib/TeensyTimerTool/src//baseTimer.cpp:13
     e9a:	7202      	strb	r2, [r0, #8]
C:\Users\lutz\source\Teensy\tttest/lib/TeensyTimerTool/src//baseTimer.cpp:14
     e9c:	bc10      	pop	{r4}
     e9e:	4770      	bx	lr

00000ea0 <std::function<void (TeensyTimerTool::errorCode)>::~function()>:
_ZNSt14_Function_baseD4Ev():
c:\toolchain\gcc\gcc-arm-none-eabi-5_4-2016q3-20160926-win32\arm-none-eabi\include\c++\5.4.1/functional:1829
     ea0:	6883      	ldr	r3, [r0, #8]
_ZNSt8functionIFvN15TeensyTimerTool9errorCodeEEED2Ev():
c:\toolchain\gcc\gcc-arm-none-eabi-5_4-2016q3-20160926-win32\arm-none-eabi\include\c++\5.4.1/functional:1974
     ea2:	b510      	push	{r4, lr}
     ea4:	4604      	mov	r4, r0
_ZNSt14_Function_baseD4Ev():
c:\toolchain\gcc\gcc-arm-none-eabi-5_4-2016q3-20160926-win32\arm-none-eabi\include\c++\5.4.1/functional:1829
     ea6:	b113      	cbz	r3, eae <std::function<void (TeensyTimerTool::errorCode)>::~function()+0xe>
c:\toolchain\gcc\gcc-arm-none-eabi-5_4-2016q3-20160926-win32\arm-none-eabi\include\c++\5.4.1/functional:1830
     ea8:	2203      	movs	r2, #3
     eaa:	4601      	mov	r1, r0
     eac:	4798      	blx	r3
_ZNSt8functionIFvN15TeensyTimerTool9errorCodeEEED2Ev():
c:\toolchain\gcc\gcc-arm-none-eabi-5_4-2016q3-20160926-win32\arm-none-eabi\include\c++\5.4.1/functional:1974
     eae:	4620      	mov	r0, r4
     eb0:	bd10      	pop	{r4, pc}
     eb2:	bf00      	nop

00000eb4 <TeensyTimerTool::postError(TeensyTimerTool::errorCode)>:
_ZN15TeensyTimerTool9postErrorENS_9errorCodeE():
C:\Users\lutz\source\Teensy\tttest/lib/TeensyTimerTool/src/ErrorHandling//error_handler.cpp:69
     eb4:	b510      	push	{r4, lr}
     eb6:	4b07      	ldr	r3, [pc, #28]	; (ed4 <TeensyTimerTool::postError(TeensyTimerTool::errorCode)+0x20>)
C:\Users\lutz\source\Teensy\tttest/lib/TeensyTimerTool/src/ErrorHandling//error_handler.cpp:70
     eb8:	689a      	ldr	r2, [r3, #8]
C:\Users\lutz\source\Teensy\tttest/lib/TeensyTimerTool/src/ErrorHandling//error_handler.cpp:69
     eba:	b082      	sub	sp, #8
     ebc:	4604      	mov	r4, r0
C:\Users\lutz\source\Teensy\tttest/lib/TeensyTimerTool/src/ErrorHandling//error_handler.cpp:70
     ebe:	b132      	cbz	r2, ece <TeensyTimerTool::postError(TeensyTimerTool::errorCode)+0x1a>
C:\Users\lutz\source\Teensy\tttest/lib/TeensyTimerTool/src/ErrorHandling//error_handler.cpp:70 (discriminator 1)
     ec0:	b128      	cbz	r0, ece <TeensyTimerTool::postError(TeensyTimerTool::errorCode)+0x1a>
     ec2:	a902      	add	r1, sp, #8
_ZNKSt8functionIFvN15TeensyTimerTool9errorCodeEEEclES1_():
c:\toolchain\gcc\gcc-arm-none-eabi-5_4-2016q3-20160926-win32\arm-none-eabi\include\c++\5.4.1/functional:2267
     ec4:	68da      	ldr	r2, [r3, #12]
     ec6:	f841 0d04 	str.w	r0, [r1, #-4]!
     eca:	4618      	mov	r0, r3
     ecc:	4790      	blx	r2
_ZN15TeensyTimerTool9postErrorENS_9errorCodeE():
C:\Users\lutz\source\Teensy\tttest/lib/TeensyTimerTool/src/ErrorHandling//error_handler.cpp:72
     ece:	4620      	mov	r0, r4
     ed0:	b002      	add	sp, #8
     ed2:	bd10      	pop	{r4, pc}
     ed4:	1fff9290 	.word	0x1fff9290

00000ed8 <_GLOBAL__sub_I__ZN15TeensyTimerTool12ErrorHandlerC2ER6Stream>:
_ZNSt14_Function_baseC4Ev():
c:\toolchain\gcc\gcc-arm-none-eabi-5_4-2016q3-20160926-win32\arm-none-eabi\include\c++\5.4.1/functional:1825
     ed8:	4b04      	ldr	r3, [pc, #16]	; (eec <_GLOBAL__sub_I__ZN15TeensyTimerTool12ErrorHandlerC2ER6Stream+0x14>)
_GLOBAL__sub_I__ZN15TeensyTimerTool12ErrorHandlerC2ER6Stream():
C:\Users\lutz\source\Teensy\tttest/lib/TeensyTimerTool/src/ErrorHandling//error_handler.cpp:66
     eda:	4a05      	ldr	r2, [pc, #20]	; (ef0 <_GLOBAL__sub_I__ZN15TeensyTimerTool12ErrorHandlerC2ER6Stream+0x18>)
     edc:	4905      	ldr	r1, [pc, #20]	; (ef4 <_GLOBAL__sub_I__ZN15TeensyTimerTool12ErrorHandlerC2ER6Stream+0x1c>)
C:\Users\lutz\source\Teensy\tttest/lib/TeensyTimerTool/src/ErrorHandling//error_handler.cpp:79
     ede:	b410      	push	{r4}
_ZNSt14_Function_baseC4Ev():
c:\toolchain\gcc\gcc-arm-none-eabi-5_4-2016q3-20160926-win32\arm-none-eabi\include\c++\5.4.1/functional:1825
     ee0:	2400      	movs	r4, #0
     ee2:	609c      	str	r4, [r3, #8]
_GLOBAL__sub_I__ZN15TeensyTimerTool12ErrorHandlerC2ER6Stream():
C:\Users\lutz\source\Teensy\tttest/lib/TeensyTimerTool/src/ErrorHandling//error_handler.cpp:66
     ee4:	4618      	mov	r0, r3
C:\Users\lutz\source\Teensy\tttest/lib/TeensyTimerTool/src/ErrorHandling//error_handler.cpp:79
     ee6:	bc10      	pop	{r4}
C:\Users\lutz\source\Teensy\tttest/lib/TeensyTimerTool/src/ErrorHandling//error_handler.cpp:66
     ee8:	f001 bdbe 	b.w	2a68 <__aeabi_atexit>
     eec:	1fff9290 	.word	0x1fff9290
     ef0:	1fff87b0 	.word	0x1fff87b0
     ef4:	00000ea1 	.word	0x00000ea1

00000ef8 <EventResponder::~EventResponder()>:
_ZN14EventResponderD2Ev():
C:\toolchain\Teensyduino\current_fork\cores\teensy3/EventResponder.h:72
     ef8:	b538      	push	{r3, r4, r5, lr}
     efa:	4b06      	ldr	r3, [pc, #24]	; (f14 <EventResponder::~EventResponder()+0x1c>)
     efc:	6003      	str	r3, [r0, #0]
     efe:	4605      	mov	r5, r0
_ZN14EventResponder17disableInterruptsEv():
C:\toolchain\Teensyduino\current_fork\cores\teensy3/EventResponder.h:231
     f00:	f3ef 8410 	mrs	r4, PRIMASK
C:\toolchain\Teensyduino\current_fork\cores\teensy3/EventResponder.h:232
     f04:	b672      	cpsid	i
_ZN14EventResponder6detachEv():
C:\toolchain\Teensyduino\current_fork\cores\teensy3/EventResponder.h:132
     f06:	f001 f91f 	bl	2148 <EventResponder::detachNoInterrupts()>
_ZN14EventResponder16enableInterruptsEb():
C:\toolchain\Teensyduino\current_fork\cores\teensy3/EventResponder.h:236
     f0a:	b904      	cbnz	r4, f0e <EventResponder::~EventResponder()+0x16>
     f0c:	b662      	cpsie	i
_ZN14EventResponderD2Ev():
C:\toolchain\Teensyduino\current_fork\cores\teensy3/EventResponder.h:74
     f0e:	4628      	mov	r0, r5
     f10:	bd38      	pop	{r3, r4, r5, pc}
     f12:	bf00      	nop
     f14:	0000349c 	.word	0x0000349c

00000f18 <EventResponder::triggerEvent(int, void*)>:
_ZN14EventResponder12triggerEventEiPv():
C:\toolchain\Teensyduino\current_fork\cores\teensy3/EventResponder.h:139
     f18:	b410      	push	{r4}
C:\toolchain\Teensyduino\current_fork\cores\teensy3/EventResponder.h:142
     f1a:	7f04      	ldrb	r4, [r0, #28]
C:\toolchain\Teensyduino\current_fork\cores\teensy3/EventResponder.h:140
     f1c:	6041      	str	r1, [r0, #4]
C:\toolchain\Teensyduino\current_fork\cores\teensy3/EventResponder.h:142
     f1e:	2c02      	cmp	r4, #2
C:\toolchain\Teensyduino\current_fork\cores\teensy3/EventResponder.h:141
     f20:	60c2      	str	r2, [r0, #12]
C:\toolchain\Teensyduino\current_fork\cores\teensy3/EventResponder.h:142
     f22:	d002      	beq.n	f2a <EventResponder::triggerEvent(int, void*)+0x12>
C:\toolchain\Teensyduino\current_fork\cores\teensy3/EventResponder.h:147
     f24:	bc10      	pop	{r4}
C:\toolchain\Teensyduino\current_fork\cores\teensy3/EventResponder.h:145
     f26:	f001 b8ab 	b.w	2080 <EventResponder::triggerEventNotImmediate()>
C:\toolchain\Teensyduino\current_fork\cores\teensy3/EventResponder.h:143
     f2a:	6883      	ldr	r3, [r0, #8]
C:\toolchain\Teensyduino\current_fork\cores\teensy3/EventResponder.h:147
     f2c:	bc10      	pop	{r4}
C:\toolchain\Teensyduino\current_fork\cores\teensy3/EventResponder.h:143
     f2e:	4718      	bx	r3

00000f30 <TeensyTimerTool::initYieldHook()::{lambda(EventResponder&)#1}::_FUN(EventResponder&)>:
_ZZN15TeensyTimerTool13initYieldHookEvENUlR14EventResponderE_4_FUNES1_():
C:\Users\lutz\source\Teensy\tttest/lib/TeensyTimerTool/src/Teensy/TCK//TCK.cpp:31
     f30:	b570      	push	{r4, r5, r6, lr}
     f32:	4c14      	ldr	r4, [pc, #80]	; (f84 <TeensyTimerTool::initYieldHook()::{lambda(EventResponder&)#1}::_FUN(EventResponder&)+0x54>)
     f34:	4606      	mov	r6, r0
     f36:	f104 0550 	add.w	r5, r4, #80	; 0x50
_ZN15TeensyTimerTool5TCK_t4tickEv():
C:\Users\lutz\source\Teensy\tttest/lib/TeensyTimerTool/src/Teensy/TCK//TCK.h:76
     f3a:	f854 3f04 	ldr.w	r3, [r4, #4]!
C:\Users\lutz\source\Teensy\tttest/lib/TeensyTimerTool/src/Teensy/TCK//TCK.h:78
     f3e:	4618      	mov	r0, r3
C:\Users\lutz\source\Teensy\tttest/lib/TeensyTimerTool/src/Teensy/TCK//TCK.h:76
     f40:	b113      	cbz	r3, f48 <TeensyTimerTool::initYieldHook()::{lambda(EventResponder&)#1}::_FUN(EventResponder&)+0x18>
C:\Users\lutz\source\Teensy\tttest/lib/TeensyTimerTool/src/Teensy/TCK//TCK.h:78
     f42:	681b      	ldr	r3, [r3, #0]
     f44:	6b9b      	ldr	r3, [r3, #56]	; 0x38
     f46:	4798      	blx	r3
C:\Users\lutz\source\Teensy\tttest/lib/TeensyTimerTool/src/Teensy/TCK//TCK.h:74
     f48:	42ac      	cmp	r4, r5
     f4a:	d1f6      	bne.n	f3a <TeensyTimerTool::initYieldHook()::{lambda(EventResponder&)#1}::_FUN(EventResponder&)+0xa>
operator()():
C:\Users\lutz\source\Teensy\tttest/lib/TeensyTimerTool/src/Teensy/TCK//TCK.cpp:34
     f4c:	6833      	ldr	r3, [r6, #0]
     f4e:	4a0e      	ldr	r2, [pc, #56]	; (f88 <TeensyTimerTool::initYieldHook()::{lambda(EventResponder&)#1}::_FUN(EventResponder&)+0x58>)
     f50:	681b      	ldr	r3, [r3, #0]
     f52:	4293      	cmp	r3, r2
     f54:	d10a      	bne.n	f6c <TeensyTimerTool::initYieldHook()::{lambda(EventResponder&)#1}::_FUN(EventResponder&)+0x3c>
_ZN14EventResponder12triggerEventEiPv():
C:\toolchain\Teensyduino\current_fork\cores\teensy3/EventResponder.h:142
     f56:	7f32      	ldrb	r2, [r6, #28]
C:\toolchain\Teensyduino\current_fork\cores\teensy3/EventResponder.h:140
     f58:	2300      	movs	r3, #0
C:\toolchain\Teensyduino\current_fork\cores\teensy3/EventResponder.h:142
     f5a:	2a02      	cmp	r2, #2
C:\toolchain\Teensyduino\current_fork\cores\teensy3/EventResponder.h:140
     f5c:	6073      	str	r3, [r6, #4]
C:\toolchain\Teensyduino\current_fork\cores\teensy3/EventResponder.h:141
     f5e:	60f3      	str	r3, [r6, #12]
C:\toolchain\Teensyduino\current_fork\cores\teensy3/EventResponder.h:142
     f60:	d00a      	beq.n	f78 <TeensyTimerTool::initYieldHook()::{lambda(EventResponder&)#1}::_FUN(EventResponder&)+0x48>
C:\toolchain\Teensyduino\current_fork\cores\teensy3/EventResponder.h:145
     f62:	4630      	mov	r0, r6
_ZZN15TeensyTimerTool13initYieldHookEvENUlR14EventResponderE_4_FUNES1_():
C:\Users\lutz\source\Teensy\tttest/lib/TeensyTimerTool/src/Teensy/TCK//TCK.cpp:35
     f64:	e8bd 4070 	ldmia.w	sp!, {r4, r5, r6, lr}
_ZN14EventResponder12triggerEventEiPv():
C:\toolchain\Teensyduino\current_fork\cores\teensy3/EventResponder.h:145
     f68:	f001 b88a 	b.w	2080 <EventResponder::triggerEventNotImmediate()>
operator()():
C:\Users\lutz\source\Teensy\tttest/lib/TeensyTimerTool/src/Teensy/TCK//TCK.cpp:34
     f6c:	2200      	movs	r2, #0
     f6e:	4630      	mov	r0, r6
     f70:	4611      	mov	r1, r2
_ZZN15TeensyTimerTool13initYieldHookEvENUlR14EventResponderE_4_FUNES1_():
C:\Users\lutz\source\Teensy\tttest/lib/TeensyTimerTool/src/Teensy/TCK//TCK.cpp:35
     f72:	e8bd 4070 	ldmia.w	sp!, {r4, r5, r6, lr}
operator()():
C:\Users\lutz\source\Teensy\tttest/lib/TeensyTimerTool/src/Teensy/TCK//TCK.cpp:34
     f76:	4718      	bx	r3
_ZN14EventResponder12triggerEventEiPv():
C:\toolchain\Teensyduino\current_fork\cores\teensy3/EventResponder.h:143
     f78:	68b3      	ldr	r3, [r6, #8]
     f7a:	4630      	mov	r0, r6
_ZZN15TeensyTimerTool13initYieldHookEvENUlR14EventResponderE_4_FUNES1_():
C:\Users\lutz\source\Teensy\tttest/lib/TeensyTimerTool/src/Teensy/TCK//TCK.cpp:35
     f7c:	e8bd 4070 	ldmia.w	sp!, {r4, r5, r6, lr}
_ZN14EventResponder12triggerEventEiPv():
C:\toolchain\Teensyduino\current_fork\cores\teensy3/EventResponder.h:143
     f80:	4718      	bx	r3
     f82:	bf00      	nop
     f84:	1fff929c 	.word	0x1fff929c
     f88:	00000f19 	.word	0x00000f19

00000f8c <TeensyTimerTool::initYieldHook()>:
_ZN15TeensyTimerTool13initYieldHookEv():
C:\Users\lutz\source\Teensy\tttest/lib/TeensyTimerTool/src/Teensy/TCK//TCK.cpp:30
     f8c:	b570      	push	{r4, r5, r6, lr}
_ZN14EventResponder17disableInterruptsEv():
C:\toolchain\Teensyduino\current_fork\cores\teensy3/EventResponder.h:231
     f8e:	f3ef 8510 	mrs	r5, PRIMASK
C:\toolchain\Teensyduino\current_fork\cores\teensy3/EventResponder.h:232
     f92:	b672      	cpsid	i
_ZN14EventResponder6attachEPFvRS_Eh():
C:\toolchain\Teensyduino\current_fork\cores\teensy3/EventResponder.h:88
     f94:	4c12      	ldr	r4, [pc, #72]	; (fe0 <TeensyTimerTool::initYieldHook()+0x54>)
     f96:	4620      	mov	r0, r4
     f98:	f001 f8d6 	bl	2148 <EventResponder::detachNoInterrupts()>
C:\toolchain\Teensyduino\current_fork\cores\teensy3/EventResponder.h:91
     f9c:	4a11      	ldr	r2, [pc, #68]	; (fe4 <TeensyTimerTool::initYieldHook()+0x58>)
C:\toolchain\Teensyduino\current_fork\cores\teensy3/EventResponder.h:89
     f9e:	4912      	ldr	r1, [pc, #72]	; (fe8 <TeensyTimerTool::initYieldHook()+0x5c>)
C:\toolchain\Teensyduino\current_fork\cores\teensy3/EventResponder.h:91
     fa0:	7813      	ldrb	r3, [r2, #0]
C:\toolchain\Teensyduino\current_fork\cores\teensy3/EventResponder.h:89
     fa2:	60a1      	str	r1, [r4, #8]
C:\toolchain\Teensyduino\current_fork\cores\teensy3/EventResponder.h:91
     fa4:	f043 0304 	orr.w	r3, r3, #4
C:\toolchain\Teensyduino\current_fork\cores\teensy3/EventResponder.h:90
     fa8:	2101      	movs	r1, #1
     faa:	7721      	strb	r1, [r4, #28]
C:\toolchain\Teensyduino\current_fork\cores\teensy3/EventResponder.h:91
     fac:	7013      	strb	r3, [r2, #0]
_ZN14EventResponder16enableInterruptsEb():
C:\toolchain\Teensyduino\current_fork\cores\teensy3/EventResponder.h:236
     fae:	b955      	cbnz	r5, fc6 <TeensyTimerTool::initYieldHook()+0x3a>
     fb0:	b662      	cpsie	i
     fb2:	7f23      	ldrb	r3, [r4, #28]
_ZN14EventResponder12triggerEventEiPv():
C:\toolchain\Teensyduino\current_fork\cores\teensy3/EventResponder.h:140
     fb4:	6065      	str	r5, [r4, #4]
C:\toolchain\Teensyduino\current_fork\cores\teensy3/EventResponder.h:142
     fb6:	2b02      	cmp	r3, #2
C:\toolchain\Teensyduino\current_fork\cores\teensy3/EventResponder.h:141
     fb8:	60e5      	str	r5, [r4, #12]
C:\toolchain\Teensyduino\current_fork\cores\teensy3/EventResponder.h:142
     fba:	d00c      	beq.n	fd6 <TeensyTimerTool::initYieldHook()+0x4a>
C:\toolchain\Teensyduino\current_fork\cores\teensy3/EventResponder.h:145
     fbc:	4808      	ldr	r0, [pc, #32]	; (fe0 <TeensyTimerTool::initYieldHook()+0x54>)
_ZN15TeensyTimerTool13initYieldHookEv():
C:\Users\lutz\source\Teensy\tttest/lib/TeensyTimerTool/src/Teensy/TCK//TCK.cpp:37
     fbe:	e8bd 4070 	ldmia.w	sp!, {r4, r5, r6, lr}
_ZN14EventResponder12triggerEventEiPv():
C:\toolchain\Teensyduino\current_fork\cores\teensy3/EventResponder.h:145
     fc2:	f001 b85d 	b.w	2080 <EventResponder::triggerEventNotImmediate()>
C:\toolchain\Teensyduino\current_fork\cores\teensy3/EventResponder.h:140
     fc6:	2300      	movs	r3, #0
     fc8:	6063      	str	r3, [r4, #4]
C:\toolchain\Teensyduino\current_fork\cores\teensy3/EventResponder.h:141
     fca:	60e3      	str	r3, [r4, #12]
C:\toolchain\Teensyduino\current_fork\cores\teensy3/EventResponder.h:145
     fcc:	4804      	ldr	r0, [pc, #16]	; (fe0 <TeensyTimerTool::initYieldHook()+0x54>)
_ZN15TeensyTimerTool13initYieldHookEv():
C:\Users\lutz\source\Teensy\tttest/lib/TeensyTimerTool/src/Teensy/TCK//TCK.cpp:37
     fce:	e8bd 4070 	ldmia.w	sp!, {r4, r5, r6, lr}
_ZN14EventResponder12triggerEventEiPv():
C:\toolchain\Teensyduino\current_fork\cores\teensy3/EventResponder.h:145
     fd2:	f001 b855 	b.w	2080 <EventResponder::triggerEventNotImmediate()>
C:\toolchain\Teensyduino\current_fork\cores\teensy3/EventResponder.h:143
     fd6:	68a3      	ldr	r3, [r4, #8]
     fd8:	4620      	mov	r0, r4
_ZN15TeensyTimerTool13initYieldHookEv():
C:\Users\lutz\source\Teensy\tttest/lib/TeensyTimerTool/src/Teensy/TCK//TCK.cpp:37
     fda:	e8bd 4070 	ldmia.w	sp!, {r4, r5, r6, lr}
_ZN14EventResponder12triggerEventEiPv():
C:\toolchain\Teensyduino\current_fork\cores\teensy3/EventResponder.h:143
     fde:	4718      	bx	r3
     fe0:	1fff87b4 	.word	0x1fff87b4
     fe4:	1fff87d8 	.word	0x1fff87d8
     fe8:	00000f31 	.word	0x00000f31

00000fec <_GLOBAL__sub_I__ZN15TeensyTimerTool5TCK_t13isInitializedE>:
_GLOBAL__sub_I__ZN15TeensyTimerTool5TCK_t13isInitializedE():
C:\Users\lutz\source\Teensy\tttest/lib/TeensyTimerTool/src/Teensy/TCK//TCK.cpp:27
     fec:	4a02      	ldr	r2, [pc, #8]	; (ff8 <_GLOBAL__sub_I__ZN15TeensyTimerTool5TCK_t13isInitializedE+0xc>)
     fee:	4903      	ldr	r1, [pc, #12]	; (ffc <_GLOBAL__sub_I__ZN15TeensyTimerTool5TCK_t13isInitializedE+0x10>)
     ff0:	4803      	ldr	r0, [pc, #12]	; (1000 <_GLOBAL__sub_I__ZN15TeensyTimerTool5TCK_t13isInitializedE+0x14>)
     ff2:	f001 bd39 	b.w	2a68 <__aeabi_atexit>
     ff6:	bf00      	nop
     ff8:	1fff87b0 	.word	0x1fff87b0
     ffc:	00000ef9 	.word	0x00000ef9
    1000:	1fff87b4 	.word	0x1fff87b4

00001004 <fault_isr>:
fault_isr():
C:\toolchain\Teensyduino\current_fork\cores\teensy3/mk20dx128.c:74
    1004:	b508      	push	{r3, lr}
C:\toolchain\Teensyduino\current_fork\cores\teensy3/mk20dx128.c:128
    1006:	4c10      	ldr	r4, [pc, #64]	; (1048 <fault_isr+0x44>)
    1008:	e008      	b.n	101c <fault_isr+0x18>
C:\toolchain\Teensyduino\current_fork\cores\teensy3/mk20dx128.c:129
    100a:	6823      	ldr	r3, [r4, #0]
    100c:	0559      	lsls	r1, r3, #21
    100e:	d40d      	bmi.n	102c <fault_isr+0x28>
C:\toolchain\Teensyduino\current_fork\cores\teensy3/mk20dx128.c:130
    1010:	6823      	ldr	r3, [r4, #0]
    1012:	051a      	lsls	r2, r3, #20
    1014:	d40f      	bmi.n	1036 <fault_isr+0x32>
C:\toolchain\Teensyduino\current_fork\cores\teensy3/mk20dx128.c:131
    1016:	6823      	ldr	r3, [r4, #0]
    1018:	04db      	lsls	r3, r3, #19
    101a:	d411      	bmi.n	1040 <fault_isr+0x3c>
C:\toolchain\Teensyduino\current_fork\cores\teensy3/mk20dx128.c:128
    101c:	6823      	ldr	r3, [r4, #0]
    101e:	0358      	lsls	r0, r3, #13
    1020:	d5f3      	bpl.n	100a <fault_isr+0x6>
C:\toolchain\Teensyduino\current_fork\cores\teensy3/mk20dx128.c:128 (discriminator 1)
    1022:	f000 f9f5 	bl	1410 <usb_isr>
C:\toolchain\Teensyduino\current_fork\cores\teensy3/mk20dx128.c:129 (discriminator 1)
    1026:	6823      	ldr	r3, [r4, #0]
    1028:	0559      	lsls	r1, r3, #21
    102a:	d5f1      	bpl.n	1010 <fault_isr+0xc>
    102c:	f000 f80e 	bl	104c <unused_isr>
C:\toolchain\Teensyduino\current_fork\cores\teensy3/mk20dx128.c:130 (discriminator 1)
    1030:	6823      	ldr	r3, [r4, #0]
    1032:	051a      	lsls	r2, r3, #20
    1034:	d5ef      	bpl.n	1016 <fault_isr+0x12>
    1036:	f000 f809 	bl	104c <unused_isr>
C:\toolchain\Teensyduino\current_fork\cores\teensy3/mk20dx128.c:131 (discriminator 1)
    103a:	6823      	ldr	r3, [r4, #0]
    103c:	04db      	lsls	r3, r3, #19
    103e:	d5ed      	bpl.n	101c <fault_isr+0x18>
    1040:	f000 f804 	bl	104c <unused_isr>
    1044:	e7ea      	b.n	101c <fault_isr+0x18>
    1046:	bf00      	nop
    1048:	40048034 	.word	0x40048034

0000104c <unused_isr>:
unused_isr():
C:\toolchain\Teensyduino\current_fork\cores\teensy3/mk20dx128.c:136
    104c:	b508      	push	{r3, lr}
C:\toolchain\Teensyduino\current_fork\cores\teensy3/mk20dx128.c:137
    104e:	f7ff ffd9 	bl	1004 <fault_isr>
enet_tx_isr():
    1052:	bf00      	nop

00001054 <startup_early_hook>:
startup_default_early_hook():
C:\toolchain\Teensyduino\current_fork\cores\teensy3/mk20dx128.c:673
    1054:	4b01      	ldr	r3, [pc, #4]	; (105c <startup_early_hook+0x8>)
    1056:	2210      	movs	r2, #16
    1058:	801a      	strh	r2, [r3, #0]
    105a:	4770      	bx	lr
    105c:	40052000 	.word	0x40052000

00001060 <startup_late_hook>:
startup_default_late_hook():
C:\toolchain\Teensyduino\current_fork\cores\teensy3/mk20dx128.c:678
    1060:	4770      	bx	lr
startup_late_hook():
    1062:	bf00      	nop

00001064 <_sbrk>:
_sbrk():
C:\toolchain\Teensyduino\current_fork\cores\teensy3/mk20dx128.c:1186
    1064:	4909      	ldr	r1, [pc, #36]	; (108c <_sbrk+0x28>)
C:\toolchain\Teensyduino\current_fork\cores\teensy3/mk20dx128.c:1183
    1066:	b508      	push	{r3, lr}
C:\toolchain\Teensyduino\current_fork\cores\teensy3/mk20dx128.c:1186
    1068:	680b      	ldr	r3, [r1, #0]
C:\toolchain\Teensyduino\current_fork\cores\teensy3/mk20dx128.c:1187
    106a:	b130      	cbz	r0, 107a <_sbrk+0x16>
C:\toolchain\Teensyduino\current_fork\cores\teensy3/mk20dx128.c:1188
    106c:	466a      	mov	r2, sp
C:\toolchain\Teensyduino\current_fork\cores\teensy3/mk20dx128.c:1189
    106e:	4418      	add	r0, r3
    1070:	f5a2 5280 	sub.w	r2, r2, #4096	; 0x1000
    1074:	4290      	cmp	r0, r2
    1076:	d202      	bcs.n	107e <_sbrk+0x1a>
C:\toolchain\Teensyduino\current_fork\cores\teensy3/mk20dx128.c:1193
    1078:	6008      	str	r0, [r1, #0]
C:\toolchain\Teensyduino\current_fork\cores\teensy3/mk20dx128.c:1195
    107a:	4618      	mov	r0, r3
C:\toolchain\Teensyduino\current_fork\cores\teensy3/mk20dx128.c:1196
    107c:	bd08      	pop	{r3, pc}
C:\toolchain\Teensyduino\current_fork\cores\teensy3/mk20dx128.c:1190
    107e:	f001 fcff 	bl	2a80 <__errno>
    1082:	230c      	movs	r3, #12
    1084:	6003      	str	r3, [r0, #0]
C:\toolchain\Teensyduino\current_fork\cores\teensy3/mk20dx128.c:1191
    1086:	f04f 30ff 	mov.w	r0, #4294967295
    108a:	bd08      	pop	{r3, pc}
    108c:	1fff87d4 	.word	0x1fff87d4

00001090 <pinMode.part.2>:
pinMode():
C:\toolchain\Teensyduino\current_fork\cores\teensy3/pins_teensy.c:1095
    1090:	4a1c      	ldr	r2, [pc, #112]	; (1104 <pinMode.part.2+0x74>)
    1092:	eb02 03c0 	add.w	r3, r2, r0, lsl #3
C:\toolchain\Teensyduino\current_fork\cores\teensy3/pins_teensy.c:1097
    1096:	2901      	cmp	r1, #1
C:\toolchain\Teensyduino\current_fork\cores\teensy3/pins_teensy.c:1095
    1098:	685b      	ldr	r3, [r3, #4]
C:\toolchain\Teensyduino\current_fork\cores\teensy3/pins_teensy.c:1097
    109a:	d011      	beq.n	10c0 <pinMode.part.2+0x30>
    109c:	2904      	cmp	r1, #4
    109e:	d01b      	beq.n	10d8 <pinMode.part.2+0x48>
C:\toolchain\Teensyduino\current_fork\cores\teensy3/pins_teensy.c:1111
    10a0:	f852 0030 	ldr.w	r0, [r2, r0, lsl #3]
    10a4:	2200      	movs	r2, #0
    10a6:	f880 2280 	strb.w	r2, [r0, #640]	; 0x280
C:\toolchain\Teensyduino\current_fork\cores\teensy3/pins_teensy.c:1115
    10aa:	b129      	cbz	r1, 10b8 <pinMode.part.2+0x28>
C:\toolchain\Teensyduino\current_fork\cores\teensy3/pins_teensy.c:1117
    10ac:	2902      	cmp	r1, #2
    10ae:	d020      	beq.n	10f2 <pinMode.part.2+0x62>
C:\toolchain\Teensyduino\current_fork\cores\teensy3/pins_teensy.c:1119
    10b0:	2903      	cmp	r1, #3
    10b2:	d022      	beq.n	10fa <pinMode.part.2+0x6a>
C:\toolchain\Teensyduino\current_fork\cores\teensy3/pins_teensy.c:1107
    10b4:	601a      	str	r2, [r3, #0]
    10b6:	4770      	bx	lr
C:\toolchain\Teensyduino\current_fork\cores\teensy3/pins_teensy.c:1116
    10b8:	f44f 7280 	mov.w	r2, #256	; 0x100
    10bc:	601a      	str	r2, [r3, #0]
    10be:	4770      	bx	lr
C:\toolchain\Teensyduino\current_fork\cores\teensy3/pins_teensy.c:1099
    10c0:	f852 0030 	ldr.w	r0, [r2, r0, lsl #3]
C:\toolchain\Teensyduino\current_fork\cores\teensy3/pins_teensy.c:1103
    10c4:	f44f 72a2 	mov.w	r2, #324	; 0x144
C:\toolchain\Teensyduino\current_fork\cores\teensy3/pins_teensy.c:1099
    10c8:	f880 1280 	strb.w	r1, [r0, #640]	; 0x280
C:\toolchain\Teensyduino\current_fork\cores\teensy3/pins_teensy.c:1103
    10cc:	601a      	str	r2, [r3, #0]
C:\toolchain\Teensyduino\current_fork\cores\teensy3/pins_teensy.c:1107
    10ce:	681a      	ldr	r2, [r3, #0]
    10d0:	f022 0220 	bic.w	r2, r2, #32
    10d4:	601a      	str	r2, [r3, #0]
    10d6:	4770      	bx	lr
C:\toolchain\Teensyduino\current_fork\cores\teensy3/pins_teensy.c:1099
    10d8:	f852 1030 	ldr.w	r1, [r2, r0, lsl #3]
C:\toolchain\Teensyduino\current_fork\cores\teensy3/pins_teensy.c:1103
    10dc:	f44f 72a2 	mov.w	r2, #324	; 0x144
C:\toolchain\Teensyduino\current_fork\cores\teensy3/pins_teensy.c:1099
    10e0:	2001      	movs	r0, #1
    10e2:	f881 0280 	strb.w	r0, [r1, #640]	; 0x280
C:\toolchain\Teensyduino\current_fork\cores\teensy3/pins_teensy.c:1103
    10e6:	601a      	str	r2, [r3, #0]
C:\toolchain\Teensyduino\current_fork\cores\teensy3/pins_teensy.c:1105
    10e8:	681a      	ldr	r2, [r3, #0]
    10ea:	f042 0220 	orr.w	r2, r2, #32
    10ee:	601a      	str	r2, [r3, #0]
    10f0:	4770      	bx	lr
C:\toolchain\Teensyduino\current_fork\cores\teensy3/pins_teensy.c:1118
    10f2:	f240 1203 	movw	r2, #259	; 0x103
    10f6:	601a      	str	r2, [r3, #0]
    10f8:	4770      	bx	lr
C:\toolchain\Teensyduino\current_fork\cores\teensy3/pins_teensy.c:1120
    10fa:	f44f 7281 	mov.w	r2, #258	; 0x102
    10fe:	601a      	str	r2, [r3, #0]
    1100:	4770      	bx	lr
    1102:	bf00      	nop
    1104:	000034a0 	.word	0x000034a0

00001108 <attachInterruptVector>:
attachInterruptVector():
C:\toolchain\Teensyduino\current_fork\cores\teensy3/pins_teensy.c:193
    1108:	3010      	adds	r0, #16
    110a:	4b02      	ldr	r3, [pc, #8]	; (1114 <attachInterruptVector+0xc>)
    110c:	f843 1020 	str.w	r1, [r3, r0, lsl #2]
    1110:	4770      	bx	lr
    1112:	bf00      	nop
    1114:	1fff8200 	.word	0x1fff8200

00001118 <rtc_set>:
rtc_set():
C:\toolchain\Teensyduino\current_fork\cores\teensy3/pins_teensy.c:346
    1118:	b430      	push	{r4, r5}
C:\toolchain\Teensyduino\current_fork\cores\teensy3/pins_teensy.c:347
    111a:	4b05      	ldr	r3, [pc, #20]	; (1130 <rtc_set+0x18>)
C:\toolchain\Teensyduino\current_fork\cores\teensy3/pins_teensy.c:348
    111c:	4d05      	ldr	r5, [pc, #20]	; (1134 <rtc_set+0x1c>)
C:\toolchain\Teensyduino\current_fork\cores\teensy3/pins_teensy.c:349
    111e:	4c06      	ldr	r4, [pc, #24]	; (1138 <rtc_set+0x20>)
C:\toolchain\Teensyduino\current_fork\cores\teensy3/pins_teensy.c:347
    1120:	2200      	movs	r2, #0
C:\toolchain\Teensyduino\current_fork\cores\teensy3/pins_teensy.c:350
    1122:	2110      	movs	r1, #16
C:\toolchain\Teensyduino\current_fork\cores\teensy3/pins_teensy.c:347
    1124:	601a      	str	r2, [r3, #0]
C:\toolchain\Teensyduino\current_fork\cores\teensy3/pins_teensy.c:348
    1126:	602a      	str	r2, [r5, #0]
C:\toolchain\Teensyduino\current_fork\cores\teensy3/pins_teensy.c:349
    1128:	6020      	str	r0, [r4, #0]
C:\toolchain\Teensyduino\current_fork\cores\teensy3/pins_teensy.c:350
    112a:	6019      	str	r1, [r3, #0]
C:\toolchain\Teensyduino\current_fork\cores\teensy3/pins_teensy.c:351
    112c:	bc30      	pop	{r4, r5}
    112e:	4770      	bx	lr
    1130:	4003d014 	.word	0x4003d014
    1134:	4003d004 	.word	0x4003d004
    1138:	4003d000 	.word	0x4003d000

0000113c <pinMode>:
pinMode():
C:\toolchain\Teensyduino\current_fork\cores\teensy3/pins_teensy.c:1094
    113c:	2821      	cmp	r0, #33	; 0x21
    113e:	d801      	bhi.n	1144 <pinMode+0x8>
    1140:	f7ff bfa6 	b.w	1090 <pinMode.part.2>
    1144:	4770      	bx	lr
    1146:	bf00      	nop

00001148 <delay>:
delay():
C:\toolchain\Teensyduino\current_fork\cores\teensy3/pins_teensy.c:1218
    1148:	e92d 43f8 	stmdb	sp!, {r3, r4, r5, r6, r7, r8, r9, lr}
    114c:	4605      	mov	r5, r0
micros():
C:\toolchain\Teensyduino\current_fork\cores\teensy3/pins_teensy.c:1199
    114e:	b672      	cpsid	i
C:\toolchain\Teensyduino\current_fork\cores\teensy3/pins_teensy.c:1201
    1150:	4f20      	ldr	r7, [pc, #128]	; (11d4 <delay+0x8c>)
C:\toolchain\Teensyduino\current_fork\cores\teensy3/pins_teensy.c:1200
    1152:	4b21      	ldr	r3, [pc, #132]	; (11d8 <delay+0x90>)
C:\toolchain\Teensyduino\current_fork\cores\teensy3/pins_teensy.c:1202
    1154:	4a21      	ldr	r2, [pc, #132]	; (11dc <delay+0x94>)
C:\toolchain\Teensyduino\current_fork\cores\teensy3/pins_teensy.c:1200
    1156:	681b      	ldr	r3, [r3, #0]
C:\toolchain\Teensyduino\current_fork\cores\teensy3/pins_teensy.c:1201
    1158:	683c      	ldr	r4, [r7, #0]
C:\toolchain\Teensyduino\current_fork\cores\teensy3/pins_teensy.c:1202
    115a:	6812      	ldr	r2, [r2, #0]
C:\toolchain\Teensyduino\current_fork\cores\teensy3/pins_teensy.c:1203
    115c:	b662      	cpsie	i
C:\toolchain\Teensyduino\current_fork\cores\teensy3/pins_teensy.c:1207
    115e:	0152      	lsls	r2, r2, #5
    1160:	d502      	bpl.n	1168 <delay+0x20>
    1162:	2b32      	cmp	r3, #50	; 0x32
    1164:	bf88      	it	hi
    1166:	3401      	addhi	r4, #1
delay():
C:\toolchain\Teensyduino\current_fork\cores\teensy3/pins_teensy.c:1221
    1168:	b395      	cbz	r5, 11d0 <delay+0x88>
micros():
C:\toolchain\Teensyduino\current_fork\cores\teensy3/pins_teensy.c:1214
    116a:	f5c3 33bb 	rsb	r3, r3, #95744	; 0x17600
    116e:	4e1c      	ldr	r6, [pc, #112]	; (11e0 <delay+0x98>)
C:\toolchain\Teensyduino\current_fork\cores\teensy3/pins_teensy.c:1200
    1170:	f8df 9064 	ldr.w	r9, [pc, #100]	; 11d8 <delay+0x90>
C:\toolchain\Teensyduino\current_fork\cores\teensy3/pins_teensy.c:1202
    1174:	f8df 8064 	ldr.w	r8, [pc, #100]	; 11dc <delay+0x94>
C:\toolchain\Teensyduino\current_fork\cores\teensy3/pins_teensy.c:1214
    1178:	33ff      	adds	r3, #255	; 0xff
    117a:	f44f 727a 	mov.w	r2, #1000	; 0x3e8
    117e:	fba6 1303 	umull	r1, r3, r6, r3
    1182:	fb02 f404 	mul.w	r4, r2, r4
    1186:	eb04 1493 	add.w	r4, r4, r3, lsr #6
C:\toolchain\Teensyduino\current_fork\cores\teensy3/pins_teensy.c:1199
    118a:	b672      	cpsid	i
C:\toolchain\Teensyduino\current_fork\cores\teensy3/pins_teensy.c:1200
    118c:	f8d9 1000 	ldr.w	r1, [r9]
C:\toolchain\Teensyduino\current_fork\cores\teensy3/pins_teensy.c:1201
    1190:	683a      	ldr	r2, [r7, #0]
C:\toolchain\Teensyduino\current_fork\cores\teensy3/pins_teensy.c:1202
    1192:	f8d8 e000 	ldr.w	lr, [r8]
C:\toolchain\Teensyduino\current_fork\cores\teensy3/pins_teensy.c:1203
    1196:	b662      	cpsie	i
delay():
C:\toolchain\Teensyduino\current_fork\cores\teensy3/pins_teensy.c:1223
    1198:	f5c1 33bb 	rsb	r3, r1, #95744	; 0x17600
    119c:	33ff      	adds	r3, #255	; 0xff
    119e:	fba6 0303 	umull	r0, r3, r6, r3
micros():
C:\toolchain\Teensyduino\current_fork\cores\teensy3/pins_teensy.c:1207
    11a2:	f01e 6f80 	tst.w	lr, #67108864	; 0x4000000
delay():
C:\toolchain\Teensyduino\current_fork\cores\teensy3/pins_teensy.c:1223
    11a6:	ebc4 1393 	rsb	r3, r4, r3, lsr #6
    11aa:	f44f 707a 	mov.w	r0, #1000	; 0x3e8
micros():
C:\toolchain\Teensyduino\current_fork\cores\teensy3/pins_teensy.c:1207
    11ae:	d002      	beq.n	11b6 <delay+0x6e>
    11b0:	2932      	cmp	r1, #50	; 0x32
    11b2:	bf88      	it	hi
    11b4:	3201      	addhi	r2, #1
delay():
C:\toolchain\Teensyduino\current_fork\cores\teensy3/pins_teensy.c:1223
    11b6:	fb00 3302 	mla	r3, r0, r2, r3
    11ba:	f5b3 7f7a 	cmp.w	r3, #1000	; 0x3e8
    11be:	d304      	bcc.n	11ca <delay+0x82>
C:\toolchain\Teensyduino\current_fork\cores\teensy3/pins_teensy.c:1225
    11c0:	3d01      	subs	r5, #1
    11c2:	d005      	beq.n	11d0 <delay+0x88>
C:\toolchain\Teensyduino\current_fork\cores\teensy3/pins_teensy.c:1226
    11c4:	f504 747a 	add.w	r4, r4, #1000	; 0x3e8
    11c8:	e7df      	b.n	118a <delay+0x42>
C:\toolchain\Teensyduino\current_fork\cores\teensy3/pins_teensy.c:1228
    11ca:	f000 fee3 	bl	1f94 <yield>
C:\toolchain\Teensyduino\current_fork\cores\teensy3/pins_teensy.c:1229
    11ce:	e7dc      	b.n	118a <delay+0x42>
    11d0:	e8bd 83f8 	ldmia.w	sp!, {r3, r4, r5, r6, r7, r8, r9, pc}
    11d4:	1fff92f4 	.word	0x1fff92f4
    11d8:	e000e018 	.word	0xe000e018
    11dc:	e000ed04 	.word	0xe000ed04
    11e0:	aaaaaaab 	.word	0xaaaaaaab

000011e4 <_init_Teensyduino_internal_>:
_init_Teensyduino_internal_():
C:\toolchain\Teensyduino\current_fork\cores\teensy3/pins_teensy.c:521
    11e4:	b5f8      	push	{r3, r4, r5, r6, r7, lr}
C:\toolchain\Teensyduino\current_fork\cores\teensy3/pins_teensy.c:523
    11e6:	4b2d      	ldr	r3, [pc, #180]	; (129c <_init_Teensyduino_internal_+0xb8>)
C:\toolchain\Teensyduino\current_fork\cores\teensy3/pins_teensy.c:534
    11e8:	492d      	ldr	r1, [pc, #180]	; (12a0 <_init_Teensyduino_internal_+0xbc>)
C:\toolchain\Teensyduino\current_fork\cores\teensy3/pins_teensy.c:536
    11ea:	f8df e0d0 	ldr.w	lr, [pc, #208]	; 12bc <_init_Teensyduino_internal_+0xd8>
C:\toolchain\Teensyduino\current_fork\cores\teensy3/pins_teensy.c:535
    11ee:	f8df c0d0 	ldr.w	ip, [pc, #208]	; 12c0 <_init_Teensyduino_internal_+0xdc>
C:\toolchain\Teensyduino\current_fork\cores\teensy3/pins_teensy.c:537
    11f2:	4e2c      	ldr	r6, [pc, #176]	; (12a4 <_init_Teensyduino_internal_+0xc0>)
C:\toolchain\Teensyduino\current_fork\cores\teensy3/pins_teensy.c:539
    11f4:	4d2c      	ldr	r5, [pc, #176]	; (12a8 <_init_Teensyduino_internal_+0xc4>)
C:\toolchain\Teensyduino\current_fork\cores\teensy3/pins_teensy.c:540
    11f6:	4c2d      	ldr	r4, [pc, #180]	; (12ac <_init_Teensyduino_internal_+0xc8>)
C:\toolchain\Teensyduino\current_fork\cores\teensy3/pins_teensy.c:538
    11f8:	4a2d      	ldr	r2, [pc, #180]	; (12b0 <_init_Teensyduino_internal_+0xcc>)
C:\toolchain\Teensyduino\current_fork\cores\teensy3/pins_teensy.c:541
    11fa:	4f2e      	ldr	r7, [pc, #184]	; (12b4 <_init_Teensyduino_internal_+0xd0>)
C:\toolchain\Teensyduino\current_fork\cores\teensy3/pins_teensy.c:523
    11fc:	f44f 0000 	mov.w	r0, #8388608	; 0x800000
    1200:	6018      	str	r0, [r3, #0]
C:\toolchain\Teensyduino\current_fork\cores\teensy3/pins_teensy.c:524
    1202:	f04f 7080 	mov.w	r0, #16777216	; 0x1000000
    1206:	6018      	str	r0, [r3, #0]
C:\toolchain\Teensyduino\current_fork\cores\teensy3/pins_teensy.c:525
    1208:	f04f 7000 	mov.w	r0, #33554432	; 0x2000000
    120c:	6018      	str	r0, [r3, #0]
C:\toolchain\Teensyduino\current_fork\cores\teensy3/pins_teensy.c:526
    120e:	f04f 6080 	mov.w	r0, #67108864	; 0x4000000
    1212:	6018      	str	r0, [r3, #0]
C:\toolchain\Teensyduino\current_fork\cores\teensy3/pins_teensy.c:527
    1214:	f04f 6000 	mov.w	r0, #134217728	; 0x8000000
    1218:	6018      	str	r0, [r3, #0]
C:\toolchain\Teensyduino\current_fork\cores\teensy3/pins_teensy.c:534
    121a:	2000      	movs	r0, #0
    121c:	6008      	str	r0, [r1, #0]
C:\toolchain\Teensyduino\current_fork\cores\teensy3/pins_teensy.c:536
    121e:	2328      	movs	r3, #40	; 0x28
C:\toolchain\Teensyduino\current_fork\cores\teensy3/pins_teensy.c:535
    1220:	f64b 71ff 	movw	r1, #49151	; 0xbfff
    1224:	f8cc 1000 	str.w	r1, [ip]
C:\toolchain\Teensyduino\current_fork\cores\teensy3/pins_teensy.c:536
    1228:	f8ce 3000 	str.w	r3, [lr]
C:\toolchain\Teensyduino\current_fork\cores\teensy3/pins_teensy.c:537
    122c:	6033      	str	r3, [r6, #0]
C:\toolchain\Teensyduino\current_fork\cores\teensy3/pins_teensy.c:538
    122e:	6013      	str	r3, [r2, #0]
C:\toolchain\Teensyduino\current_fork\cores\teensy3/pins_teensy.c:539
    1230:	602b      	str	r3, [r5, #0]
C:\toolchain\Teensyduino\current_fork\cores\teensy3/pins_teensy.c:540
    1232:	6023      	str	r3, [r4, #0]
C:\toolchain\Teensyduino\current_fork\cores\teensy3/pins_teensy.c:541
    1234:	603b      	str	r3, [r7, #0]
C:\toolchain\Teensyduino\current_fork\cores\teensy3/pins_teensy.c:543
    1236:	62b3      	str	r3, [r6, #40]	; 0x28
C:\toolchain\Teensyduino\current_fork\cores\teensy3/pins_teensy.c:544
    1238:	6293      	str	r3, [r2, #40]	; 0x28
C:\toolchain\Teensyduino\current_fork\cores\teensy3/pins_teensy.c:556
    123a:	2209      	movs	r2, #9
    123c:	f845 2c24 	str.w	r2, [r5, #-36]
C:\toolchain\Teensyduino\current_fork\cores\teensy3/pins_teensy.c:557
    1240:	f8c4 0fd8 	str.w	r0, [r4, #4056]	; 0xfd8
C:\toolchain\Teensyduino\current_fork\cores\teensy3/pins_teensy.c:560
    1244:	f505 657f 	add.w	r5, r5, #4080	; 0xff0
C:\toolchain\Teensyduino\current_fork\cores\teensy3/pins_teensy.c:558
    1248:	f8c7 1fd4 	str.w	r1, [r7, #4052]	; 0xfd4
C:\toolchain\Teensyduino\current_fork\cores\teensy3/pins_teensy.c:563
    124c:	f507 27ff 	add.w	r7, r7, #522240	; 0x7f800
    1250:	f507 67fa 	add.w	r7, r7, #2000	; 0x7d0
C:\toolchain\Teensyduino\current_fork\cores\teensy3/pins_teensy.c:559
    1254:	f8c6 3ff8 	str.w	r3, [r6, #4088]	; 0xff8
C:\toolchain\Teensyduino\current_fork\cores\teensy3/pins_teensy.c:560
    1258:	602b      	str	r3, [r5, #0]
C:\toolchain\Teensyduino\current_fork\cores\teensy3/pins_teensy.c:564
    125a:	f506 26ff 	add.w	r6, r6, #522240	; 0x7f800
C:\toolchain\Teensyduino\current_fork\cores\teensy3/pins_teensy.c:561
    125e:	f8c4 2fd4 	str.w	r2, [r4, #4052]	; 0xfd4
C:\toolchain\Teensyduino\current_fork\cores\teensy3/pins_teensy.c:565
    1262:	f505 25fd 	add.w	r5, r5, #518144	; 0x7e800
C:\toolchain\Teensyduino\current_fork\cores\teensy3/pins_teensy.c:566
    1266:	f504 24ff 	add.w	r4, r4, #522240	; 0x7f800
C:\toolchain\Teensyduino\current_fork\cores\teensy3/pins_teensy.c:563
    126a:	6038      	str	r0, [r7, #0]
C:\toolchain\Teensyduino\current_fork\cores\teensy3/pins_teensy.c:564
    126c:	f206 76f4 	addw	r6, r6, #2036	; 0x7f4
C:\toolchain\Teensyduino\current_fork\cores\teensy3/pins_teensy.c:567
    1270:	4811      	ldr	r0, [pc, #68]	; (12b8 <_init_Teensyduino_internal_+0xd4>)
C:\toolchain\Teensyduino\current_fork\cores\teensy3/pins_teensy.c:564
    1272:	6031      	str	r1, [r6, #0]
C:\toolchain\Teensyduino\current_fork\cores\teensy3/pins_teensy.c:565
    1274:	f505 65ff 	add.w	r5, r5, #2040	; 0x7f8
C:\toolchain\Teensyduino\current_fork\cores\teensy3/pins_teensy.c:566
    1278:	f504 64fd 	add.w	r4, r4, #2024	; 0x7e8
C:\toolchain\Teensyduino\current_fork\cores\teensy3/pins_teensy.c:565
    127c:	602b      	str	r3, [r5, #0]
C:\toolchain\Teensyduino\current_fork\cores\teensy3/pins_teensy.c:566
    127e:	6023      	str	r3, [r4, #0]
C:\toolchain\Teensyduino\current_fork\cores\teensy3/pins_teensy.c:567
    1280:	6002      	str	r2, [r0, #0]
C:\toolchain\Teensyduino\current_fork\cores\teensy3/pins_teensy.c:585
    1282:	f000 ffdf 	bl	2244 <analog_init>
C:\toolchain\Teensyduino\current_fork\cores\teensy3/pins_teensy.c:607
    1286:	2019      	movs	r0, #25
    1288:	f7ff ff5e 	bl	1148 <delay>
C:\toolchain\Teensyduino\current_fork\cores\teensy3/pins_teensy.c:608
    128c:	f000 fe26 	bl	1edc <usb_init>
C:\toolchain\Teensyduino\current_fork\cores\teensy3/pins_teensy.c:609
    1290:	f240 1013 	movw	r0, #275	; 0x113
C:\toolchain\Teensyduino\current_fork\cores\teensy3/pins_teensy.c:610
    1294:	e8bd 40f8 	ldmia.w	sp!, {r3, r4, r5, r6, r7, lr}
C:\toolchain\Teensyduino\current_fork\cores\teensy3/pins_teensy.c:609
    1298:	f7ff bf56 	b.w	1148 <delay>
    129c:	e000e108 	.word	0xe000e108
    12a0:	40038004 	.word	0x40038004
    12a4:	40038014 	.word	0x40038014
    12a8:	40038024 	.word	0x40038024
    12ac:	4003802c 	.word	0x4003802c
    12b0:	4003801c 	.word	0x4003801c
    12b4:	40038034 	.word	0x40038034
    12b8:	400b8000 	.word	0x400b8000
    12bc:	4003800c 	.word	0x4003800c
    12c0:	40038008 	.word	0x40038008

000012c4 <usb_rx_memory>:
usb_rx_memory():
C:\toolchain\Teensyduino\current_fork\cores\teensy3/usb_dev.c:784
    12c4:	b430      	push	{r4, r5}
C:\toolchain\Teensyduino\current_fork\cores\teensy3/usb_dev.c:790
    12c6:	b672      	cpsid	i
C:\toolchain\Teensyduino\current_fork\cores\teensy3/usb_dev.c:795
    12c8:	4a2b      	ldr	r2, [pc, #172]	; (1378 <usb_rx_memory+0xb4>)
    12ca:	7813      	ldrb	r3, [r2, #0]
    12cc:	071d      	lsls	r5, r3, #28
    12ce:	d506      	bpl.n	12de <usb_rx_memory+0x1a>
C:\toolchain\Teensyduino\current_fork\cores\teensy3/usb_dev.c:796
    12d0:	4b2a      	ldr	r3, [pc, #168]	; (137c <usb_rx_memory+0xb8>)
    12d2:	6a19      	ldr	r1, [r3, #32]
    12d4:	2900      	cmp	r1, #0
    12d6:	d036      	beq.n	1346 <usb_rx_memory+0x82>
C:\toolchain\Teensyduino\current_fork\cores\teensy3/usb_dev.c:805
    12d8:	6a99      	ldr	r1, [r3, #40]	; 0x28
    12da:	2900      	cmp	r1, #0
    12dc:	d041      	beq.n	1362 <usb_rx_memory+0x9e>
C:\toolchain\Teensyduino\current_fork\cores\teensy3/usb_dev.c:795
    12de:	7853      	ldrb	r3, [r2, #1]
    12e0:	071c      	lsls	r4, r3, #28
    12e2:	d506      	bpl.n	12f2 <usb_rx_memory+0x2e>
C:\toolchain\Teensyduino\current_fork\cores\teensy3/usb_dev.c:796
    12e4:	4b25      	ldr	r3, [pc, #148]	; (137c <usb_rx_memory+0xb8>)
    12e6:	6c19      	ldr	r1, [r3, #64]	; 0x40
    12e8:	2900      	cmp	r1, #0
    12ea:	d03e      	beq.n	136a <usb_rx_memory+0xa6>
C:\toolchain\Teensyduino\current_fork\cores\teensy3/usb_dev.c:805
    12ec:	6c99      	ldr	r1, [r3, #72]	; 0x48
    12ee:	2900      	cmp	r1, #0
    12f0:	d039      	beq.n	1366 <usb_rx_memory+0xa2>
C:\toolchain\Teensyduino\current_fork\cores\teensy3/usb_dev.c:795
    12f2:	7893      	ldrb	r3, [r2, #2]
    12f4:	0719      	lsls	r1, r3, #28
    12f6:	d505      	bpl.n	1304 <usb_rx_memory+0x40>
C:\toolchain\Teensyduino\current_fork\cores\teensy3/usb_dev.c:796
    12f8:	4b20      	ldr	r3, [pc, #128]	; (137c <usb_rx_memory+0xb8>)
    12fa:	6e19      	ldr	r1, [r3, #96]	; 0x60
    12fc:	2900      	cmp	r1, #0
    12fe:	d036      	beq.n	136e <usb_rx_memory+0xaa>
C:\toolchain\Teensyduino\current_fork\cores\teensy3/usb_dev.c:805
    1300:	6e99      	ldr	r1, [r3, #104]	; 0x68
    1302:	b189      	cbz	r1, 1328 <usb_rx_memory+0x64>
C:\toolchain\Teensyduino\current_fork\cores\teensy3/usb_dev.c:795
    1304:	78d3      	ldrb	r3, [r2, #3]
    1306:	071b      	lsls	r3, r3, #28
    1308:	d507      	bpl.n	131a <usb_rx_memory+0x56>
C:\toolchain\Teensyduino\current_fork\cores\teensy3/usb_dev.c:796
    130a:	4b1c      	ldr	r3, [pc, #112]	; (137c <usb_rx_memory+0xb8>)
    130c:	f8d3 2080 	ldr.w	r2, [r3, #128]	; 0x80
    1310:	b37a      	cbz	r2, 1372 <usb_rx_memory+0xae>
C:\toolchain\Teensyduino\current_fork\cores\teensy3/usb_dev.c:805
    1312:	f8d3 2088 	ldr.w	r2, [r3, #136]	; 0x88
    1316:	2111      	movs	r1, #17
    1318:	b13a      	cbz	r2, 132a <usb_rx_memory+0x66>
C:\toolchain\Teensyduino\current_fork\cores\teensy3/usb_dev.c:816 (discriminator 2)
    131a:	b662      	cpsie	i
C:\toolchain\Teensyduino\current_fork\cores\teensy3/usb_dev.c:820 (discriminator 2)
    131c:	4b18      	ldr	r3, [pc, #96]	; (1380 <usb_rx_memory+0xbc>)
    131e:	2200      	movs	r2, #0
    1320:	701a      	strb	r2, [r3, #0]
C:\toolchain\Teensyduino\current_fork\cores\teensy3/usb_dev.c:823 (discriminator 2)
    1322:	bc30      	pop	{r4, r5}
C:\toolchain\Teensyduino\current_fork\cores\teensy3/usb_dev.c:821 (discriminator 2)
    1324:	f001 b886 	b.w	2434 <usb_free>
C:\toolchain\Teensyduino\current_fork\cores\teensy3/usb_dev.c:805
    1328:	210d      	movs	r1, #13
C:\toolchain\Teensyduino\current_fork\cores\teensy3/usb_dev.c:808
    132a:	4c15      	ldr	r4, [pc, #84]	; (1380 <usb_rx_memory+0xbc>)
C:\toolchain\Teensyduino\current_fork\cores\teensy3/usb_dev.c:807
    132c:	4d15      	ldr	r5, [pc, #84]	; (1384 <usb_rx_memory+0xc0>)
C:\toolchain\Teensyduino\current_fork\cores\teensy3/usb_dev.c:808
    132e:	7822      	ldrb	r2, [r4, #0]
C:\toolchain\Teensyduino\current_fork\cores\teensy3/usb_dev.c:807
    1330:	f843 5031 	str.w	r5, [r3, r1, lsl #3]
C:\toolchain\Teensyduino\current_fork\cores\teensy3/usb_dev.c:806
    1334:	eb03 03c1 	add.w	r3, r3, r1, lsl #3
    1338:	3008      	adds	r0, #8
C:\toolchain\Teensyduino\current_fork\cores\teensy3/usb_dev.c:808
    133a:	3a01      	subs	r2, #1
C:\toolchain\Teensyduino\current_fork\cores\teensy3/usb_dev.c:806
    133c:	6058      	str	r0, [r3, #4]
C:\toolchain\Teensyduino\current_fork\cores\teensy3/usb_dev.c:808
    133e:	7022      	strb	r2, [r4, #0]
C:\toolchain\Teensyduino\current_fork\cores\teensy3/usb_dev.c:809
    1340:	b662      	cpsie	i
C:\toolchain\Teensyduino\current_fork\cores\teensy3/usb_dev.c:823
    1342:	bc30      	pop	{r4, r5}
    1344:	4770      	bx	lr
C:\toolchain\Teensyduino\current_fork\cores\teensy3/usb_dev.c:796
    1346:	2204      	movs	r2, #4
C:\toolchain\Teensyduino\current_fork\cores\teensy3/usb_dev.c:799
    1348:	4c0d      	ldr	r4, [pc, #52]	; (1380 <usb_rx_memory+0xbc>)
C:\toolchain\Teensyduino\current_fork\cores\teensy3/usb_dev.c:798
    134a:	4d0f      	ldr	r5, [pc, #60]	; (1388 <usb_rx_memory+0xc4>)
C:\toolchain\Teensyduino\current_fork\cores\teensy3/usb_dev.c:799
    134c:	7821      	ldrb	r1, [r4, #0]
C:\toolchain\Teensyduino\current_fork\cores\teensy3/usb_dev.c:798
    134e:	f843 5032 	str.w	r5, [r3, r2, lsl #3]
C:\toolchain\Teensyduino\current_fork\cores\teensy3/usb_dev.c:797
    1352:	eb03 03c2 	add.w	r3, r3, r2, lsl #3
    1356:	3008      	adds	r0, #8
C:\toolchain\Teensyduino\current_fork\cores\teensy3/usb_dev.c:799
    1358:	1e4a      	subs	r2, r1, #1
C:\toolchain\Teensyduino\current_fork\cores\teensy3/usb_dev.c:797
    135a:	6058      	str	r0, [r3, #4]
C:\toolchain\Teensyduino\current_fork\cores\teensy3/usb_dev.c:799
    135c:	7022      	strb	r2, [r4, #0]
C:\toolchain\Teensyduino\current_fork\cores\teensy3/usb_dev.c:800
    135e:	b662      	cpsie	i
C:\toolchain\Teensyduino\current_fork\cores\teensy3/usb_dev.c:803
    1360:	e7ef      	b.n	1342 <usb_rx_memory+0x7e>
C:\toolchain\Teensyduino\current_fork\cores\teensy3/usb_dev.c:805
    1362:	2105      	movs	r1, #5
    1364:	e7e1      	b.n	132a <usb_rx_memory+0x66>
    1366:	2109      	movs	r1, #9
    1368:	e7df      	b.n	132a <usb_rx_memory+0x66>
C:\toolchain\Teensyduino\current_fork\cores\teensy3/usb_dev.c:796
    136a:	2208      	movs	r2, #8
    136c:	e7ec      	b.n	1348 <usb_rx_memory+0x84>
    136e:	220c      	movs	r2, #12
    1370:	e7ea      	b.n	1348 <usb_rx_memory+0x84>
    1372:	2210      	movs	r2, #16
    1374:	e7e8      	b.n	1348 <usb_rx_memory+0x84>
    1376:	bf00      	nop
    1378:	000035b0 	.word	0x000035b0
    137c:	1fff8000 	.word	0x1fff8000
    1380:	1fff93cd 	.word	0x1fff93cd
    1384:	004000c8 	.word	0x004000c8
    1388:	00400088 	.word	0x00400088

0000138c <usb_tx>:
usb_tx():
C:\toolchain\Teensyduino\current_fork\cores\teensy3/usb_dev.c:833
    138c:	1e43      	subs	r3, r0, #1
C:\toolchain\Teensyduino\current_fork\cores\teensy3/usb_dev.c:834
    138e:	2b03      	cmp	r3, #3
    1390:	d81d      	bhi.n	13ce <usb_tx+0x42>
C:\toolchain\Teensyduino\current_fork\cores\teensy3/usb_dev.c:830
    1392:	4a1b      	ldr	r2, [pc, #108]	; (1400 <usb_tx+0x74>)
    1394:	0140      	lsls	r0, r0, #5
    1396:	f040 0010 	orr.w	r0, r0, #16
C:\toolchain\Teensyduino\current_fork\cores\teensy3/usb_dev.c:829
    139a:	b430      	push	{r4, r5}
C:\toolchain\Teensyduino\current_fork\cores\teensy3/usb_dev.c:830
    139c:	4410      	add	r0, r2
C:\toolchain\Teensyduino\current_fork\cores\teensy3/usb_dev.c:835
    139e:	b672      	cpsid	i
C:\toolchain\Teensyduino\current_fork\cores\teensy3/usb_dev.c:839
    13a0:	4c18      	ldr	r4, [pc, #96]	; (1404 <usb_tx+0x78>)
    13a2:	5ce2      	ldrb	r2, [r4, r3]
    13a4:	2a03      	cmp	r2, #3
    13a6:	d81b      	bhi.n	13e0 <usb_tx+0x54>
    13a8:	e8df f002 	tbb	[pc, r2]
    13ac:	17151202 	.word	0x17151202
C:\toolchain\Teensyduino\current_fork\cores\teensy3/usb_dev.c:841
    13b0:	2203      	movs	r2, #3
C:\toolchain\Teensyduino\current_fork\cores\teensy3/usb_dev.c:866
    13b2:	880d      	ldrh	r5, [r1, #0]
C:\toolchain\Teensyduino\current_fork\cores\teensy3/usb_dev.c:864
    13b4:	54e2      	strb	r2, [r4, r3]
C:\toolchain\Teensyduino\current_fork\cores\teensy3/usb_dev.c:866
    13b6:	f010 0f08 	tst.w	r0, #8
    13ba:	bf14      	ite	ne
    13bc:	23c8      	movne	r3, #200	; 0xc8
    13be:	2388      	moveq	r3, #136	; 0x88
    13c0:	ea43 4305 	orr.w	r3, r3, r5, lsl #16
C:\toolchain\Teensyduino\current_fork\cores\teensy3/usb_dev.c:865
    13c4:	3108      	adds	r1, #8
C:\toolchain\Teensyduino\current_fork\cores\teensy3/usb_dev.c:866
    13c6:	6003      	str	r3, [r0, #0]
C:\toolchain\Teensyduino\current_fork\cores\teensy3/usb_dev.c:865
    13c8:	6041      	str	r1, [r0, #4]
C:\toolchain\Teensyduino\current_fork\cores\teensy3/usb_dev.c:867
    13ca:	b662      	cpsie	i
C:\toolchain\Teensyduino\current_fork\cores\teensy3/usb_dev.c:868
    13cc:	bc30      	pop	{r4, r5}
    13ce:	4770      	bx	lr
C:\toolchain\Teensyduino\current_fork\cores\teensy3/usb_dev.c:844
    13d0:	3008      	adds	r0, #8
C:\toolchain\Teensyduino\current_fork\cores\teensy3/usb_dev.c:845
    13d2:	2202      	movs	r2, #2
C:\toolchain\Teensyduino\current_fork\cores\teensy3/usb_dev.c:846
    13d4:	e7ed      	b.n	13b2 <usb_tx+0x26>
C:\toolchain\Teensyduino\current_fork\cores\teensy3/usb_dev.c:848
    13d6:	2205      	movs	r2, #5
    13d8:	e7eb      	b.n	13b2 <usb_tx+0x26>
C:\toolchain\Teensyduino\current_fork\cores\teensy3/usb_dev.c:851
    13da:	3008      	adds	r0, #8
C:\toolchain\Teensyduino\current_fork\cores\teensy3/usb_dev.c:852
    13dc:	2204      	movs	r2, #4
C:\toolchain\Teensyduino\current_fork\cores\teensy3/usb_dev.c:853
    13de:	e7e8      	b.n	13b2 <usb_tx+0x26>
C:\toolchain\Teensyduino\current_fork\cores\teensy3/usb_dev.c:855
    13e0:	4a09      	ldr	r2, [pc, #36]	; (1408 <usb_tx+0x7c>)
    13e2:	f852 0023 	ldr.w	r0, [r2, r3, lsl #2]
    13e6:	b138      	cbz	r0, 13f8 <usb_tx+0x6c>
C:\toolchain\Teensyduino\current_fork\cores\teensy3/usb_dev.c:858
    13e8:	4a08      	ldr	r2, [pc, #32]	; (140c <usb_tx+0x80>)
    13ea:	f852 0023 	ldr.w	r0, [r2, r3, lsl #2]
    13ee:	6041      	str	r1, [r0, #4]
C:\toolchain\Teensyduino\current_fork\cores\teensy3/usb_dev.c:860
    13f0:	f842 1023 	str.w	r1, [r2, r3, lsl #2]
C:\toolchain\Teensyduino\current_fork\cores\teensy3/usb_dev.c:861
    13f4:	b662      	cpsie	i
C:\toolchain\Teensyduino\current_fork\cores\teensy3/usb_dev.c:862
    13f6:	e7e9      	b.n	13cc <usb_tx+0x40>
C:\toolchain\Teensyduino\current_fork\cores\teensy3/usb_dev.c:856
    13f8:	f842 1023 	str.w	r1, [r2, r3, lsl #2]
    13fc:	4a03      	ldr	r2, [pc, #12]	; (140c <usb_tx+0x80>)
    13fe:	e7f7      	b.n	13f0 <usb_tx+0x64>
    1400:	1fff8000 	.word	0x1fff8000
    1404:	1fff93dc 	.word	0x1fff93dc
    1408:	1fff93a4 	.word	0x1fff93a4
    140c:	1fff93b4 	.word	0x1fff93b4

00001410 <usb_isr>:
usb_isr():
C:\toolchain\Teensyduino\current_fork\cores\teensy3/usb_dev.c:904
    1410:	e92d 4ff0 	stmdb	sp!, {r4, r5, r6, r7, r8, r9, sl, fp, lr}
C:\toolchain\Teensyduino\current_fork\cores\teensy3/usb_dev.c:912
    1414:	f8df b318 	ldr.w	fp, [pc, #792]	; 1730 <usb_isr+0x320>
C:\toolchain\Teensyduino\current_fork\cores\teensy3/usb_dev.c:964
    1418:	f8df a318 	ldr.w	sl, [pc, #792]	; 1734 <usb_isr+0x324>
C:\toolchain\Teensyduino\current_fork\cores\teensy3/usb_dev.c:904
    141c:	b087      	sub	sp, #28
    141e:	e044      	b.n	14aa <usb_isr+0x9a>
C:\toolchain\Teensyduino\current_fork\cores\teensy3/usb_dev.c:973
    1420:	4fae      	ldr	r7, [pc, #696]	; (16dc <usb_isr+0x2cc>)
    1422:	ea4f 0893 	mov.w	r8, r3, lsr #2
    1426:	eb07 09c8 	add.w	r9, r7, r8, lsl #3
C:\toolchain\Teensyduino\current_fork\cores\teensy3/usb_dev.c:985
    142a:	3e01      	subs	r6, #1
C:\toolchain\Teensyduino\current_fork\cores\teensy3/usb_dev.c:974
    142c:	f8d9 2004 	ldr.w	r2, [r9, #4]
C:\toolchain\Teensyduino\current_fork\cores\teensy3/usb_dev.c:1008
    1430:	f003 0308 	and.w	r3, r3, #8
C:\toolchain\Teensyduino\current_fork\cores\teensy3/usb_dev.c:985
    1434:	b2f6      	uxtb	r6, r6
C:\toolchain\Teensyduino\current_fork\cores\teensy3/usb_dev.c:974
    1436:	f1a2 0008 	sub.w	r0, r2, #8
C:\toolchain\Teensyduino\current_fork\cores\teensy3/usb_dev.c:1008
    143a:	f003 04ff 	and.w	r4, r3, #255	; 0xff
    143e:	2b00      	cmp	r3, #0
    1440:	f040 8104 	bne.w	164c <usb_isr+0x23c>
C:\toolchain\Teensyduino\current_fork\cores\teensy3/usb_dev.c:1052
    1444:	f857 3038 	ldr.w	r3, [r7, r8, lsl #3]
    1448:	0c1b      	lsrs	r3, r3, #16
    144a:	b299      	uxth	r1, r3
    144c:	f822 1c08 	strh.w	r1, [r2, #-8]
C:\toolchain\Teensyduino\current_fork\cores\teensy3/usb_dev.c:1053
    1450:	2b00      	cmp	r3, #0
    1452:	f000 80f2 	beq.w	163a <usb_isr+0x22a>
C:\toolchain\Teensyduino\current_fork\cores\teensy3/usb_dev.c:1056
    1456:	4ba2      	ldr	r3, [pc, #648]	; (16e0 <usb_isr+0x2d0>)
C:\toolchain\Teensyduino\current_fork\cores\teensy3/usb_dev.c:1054
    1458:	f822 4c06 	strh.w	r4, [r2, #-6]
C:\toolchain\Teensyduino\current_fork\cores\teensy3/usb_dev.c:1055
    145c:	f842 4c04 	str.w	r4, [r2, #-4]
C:\toolchain\Teensyduino\current_fork\cores\teensy3/usb_dev.c:1056
    1460:	f853 2026 	ldr.w	r2, [r3, r6, lsl #2]
    1464:	2a00      	cmp	r2, #0
    1466:	f000 816e 	beq.w	1746 <usb_isr+0x336>
C:\toolchain\Teensyduino\current_fork\cores\teensy3/usb_dev.c:1069
    146a:	4d9e      	ldr	r5, [pc, #632]	; (16e4 <usb_isr+0x2d4>)
    146c:	f855 3026 	ldr.w	r3, [r5, r6, lsl #2]
    1470:	6058      	str	r0, [r3, #4]
C:\toolchain\Teensyduino\current_fork\cores\teensy3/usb_dev.c:1072
    1472:	4c9d      	ldr	r4, [pc, #628]	; (16e8 <usb_isr+0x2d8>)
C:\toolchain\Teensyduino\current_fork\cores\teensy3/usb_dev.c:1071
    1474:	f845 0026 	str.w	r0, [r5, r6, lsl #2]
C:\toolchain\Teensyduino\current_fork\cores\teensy3/usb_dev.c:1072
    1478:	f834 3016 	ldrh.w	r3, [r4, r6, lsl #1]
    147c:	4419      	add	r1, r3
    147e:	f824 1016 	strh.w	r1, [r4, r6, lsl #1]
C:\toolchain\Teensyduino\current_fork\cores\teensy3/usb_dev.c:1077
    1482:	f000 ffb7 	bl	23f4 <usb_malloc>
C:\toolchain\Teensyduino\current_fork\cores\teensy3/usb_dev.c:1078
    1486:	2800      	cmp	r0, #0
    1488:	f000 8156 	beq.w	1738 <usb_isr+0x328>
C:\toolchain\Teensyduino\current_fork\cores\teensy3/usb_dev.c:1080
    148c:	4a97      	ldr	r2, [pc, #604]	; (16ec <usb_isr+0x2dc>)
    148e:	4b98      	ldr	r3, [pc, #608]	; (16f0 <usb_isr+0x2e0>)
    1490:	f019 0f08 	tst.w	r9, #8
C:\toolchain\Teensyduino\current_fork\cores\teensy3/usb_dev.c:1079
    1494:	f100 0008 	add.w	r0, r0, #8
C:\toolchain\Teensyduino\current_fork\cores\teensy3/usb_dev.c:1080
    1498:	bf18      	it	ne
    149a:	4613      	movne	r3, r2
C:\toolchain\Teensyduino\current_fork\cores\teensy3/usb_dev.c:1079
    149c:	f8c9 0004 	str.w	r0, [r9, #4]
C:\toolchain\Teensyduino\current_fork\cores\teensy3/usb_dev.c:1080
    14a0:	f847 3038 	str.w	r3, [r7, r8, lsl #3]
C:\toolchain\Teensyduino\current_fork\cores\teensy3/usb_dev.c:1094
    14a4:	2308      	movs	r3, #8
    14a6:	f88b 3000 	strb.w	r3, [fp]
C:\toolchain\Teensyduino\current_fork\cores\teensy3/usb_dev.c:912
    14aa:	f89b 4000 	ldrb.w	r4, [fp]
    14ae:	b2e4      	uxtb	r4, r4
C:\toolchain\Teensyduino\current_fork\cores\teensy3/usb_dev.c:914
    14b0:	0761      	lsls	r1, r4, #29
    14b2:	d51b      	bpl.n	14ec <usb_isr+0xdc>
C:\toolchain\Teensyduino\current_fork\cores\teensy3/usb_dev.c:915
    14b4:	4b8f      	ldr	r3, [pc, #572]	; (16f4 <usb_isr+0x2e4>)
    14b6:	781b      	ldrb	r3, [r3, #0]
    14b8:	b1ab      	cbz	r3, 14e6 <usb_isr+0xd6>
C:\toolchain\Teensyduino\current_fork\cores\teensy3/usb_dev.c:916
    14ba:	498f      	ldr	r1, [pc, #572]	; (16f8 <usb_isr+0x2e8>)
    14bc:	780a      	ldrb	r2, [r1, #0]
C:\toolchain\Teensyduino\current_fork\cores\teensy3/usb_dev.c:917
    14be:	f002 03ff 	and.w	r3, r2, #255	; 0xff
    14c2:	b12a      	cbz	r2, 14d0 <usb_isr+0xc0>
C:\toolchain\Teensyduino\current_fork\cores\teensy3/usb_dev.c:918
    14c4:	3b01      	subs	r3, #1
    14c6:	b2db      	uxtb	r3, r3
    14c8:	700b      	strb	r3, [r1, #0]
C:\toolchain\Teensyduino\current_fork\cores\teensy3/usb_dev.c:919
    14ca:	2b00      	cmp	r3, #0
    14cc:	f000 84ef 	beq.w	1eae <usb_isr+0xa9e>
C:\toolchain\Teensyduino\current_fork\cores\teensy3/usb_dev.c:922
    14d0:	498a      	ldr	r1, [pc, #552]	; (16fc <usb_isr+0x2ec>)
    14d2:	780a      	ldrb	r2, [r1, #0]
C:\toolchain\Teensyduino\current_fork\cores\teensy3/usb_dev.c:923
    14d4:	f002 03ff 	and.w	r3, r2, #255	; 0xff
    14d8:	b12a      	cbz	r2, 14e6 <usb_isr+0xd6>
C:\toolchain\Teensyduino\current_fork\cores\teensy3/usb_dev.c:924
    14da:	3b01      	subs	r3, #1
    14dc:	b2db      	uxtb	r3, r3
    14de:	700b      	strb	r3, [r1, #0]
C:\toolchain\Teensyduino\current_fork\cores\teensy3/usb_dev.c:925
    14e0:	2b00      	cmp	r3, #0
    14e2:	f000 80f7 	beq.w	16d4 <usb_isr+0x2c4>
C:\toolchain\Teensyduino\current_fork\cores\teensy3/usb_dev.c:959
    14e6:	2304      	movs	r3, #4
    14e8:	f88b 3000 	strb.w	r3, [fp]
C:\toolchain\Teensyduino\current_fork\cores\teensy3/usb_dev.c:962
    14ec:	f004 0308 	and.w	r3, r4, #8
    14f0:	f003 02ff 	and.w	r2, r3, #255	; 0xff
    14f4:	2b00      	cmp	r3, #0
    14f6:	f000 80d6 	beq.w	16a6 <usb_isr+0x296>
C:\toolchain\Teensyduino\current_fork\cores\teensy3/usb_dev.c:964
    14fa:	f89a 3000 	ldrb.w	r3, [sl]
    14fe:	b2db      	uxtb	r3, r3
C:\toolchain\Teensyduino\current_fork\cores\teensy3/usb_dev.c:970
    1500:	091e      	lsrs	r6, r3, #4
    1502:	d18d      	bne.n	1420 <usb_isr+0x10>
usb_control():
C:\toolchain\Teensyduino\current_fork\cores\teensy3/usb_dev.c:556
    1504:	089c      	lsrs	r4, r3, #2
    1506:	f8df 91d4 	ldr.w	r9, [pc, #468]	; 16dc <usb_isr+0x2cc>
C:\toolchain\Teensyduino\current_fork\cores\teensy3/usb_dev.c:566
    150a:	f859 2034 	ldr.w	r2, [r9, r4, lsl #3]
C:\toolchain\Teensyduino\current_fork\cores\teensy3/usb_dev.c:556
    150e:	eb09 01c4 	add.w	r1, r9, r4, lsl #3
C:\toolchain\Teensyduino\current_fork\cores\teensy3/usb_dev.c:566
    1512:	f3c2 0283 	ubfx	r2, r2, #2, #4
    1516:	3a01      	subs	r2, #1
C:\toolchain\Teensyduino\current_fork\cores\teensy3/usb_dev.c:559
    1518:	6849      	ldr	r1, [r1, #4]
C:\toolchain\Teensyduino\current_fork\cores\teensy3/usb_dev.c:566
    151a:	2a0c      	cmp	r2, #12
    151c:	d87e      	bhi.n	161c <usb_isr+0x20c>
    151e:	e8df f002 	tbb	[pc, r2]
    1522:	8181      	.short	0x8181
    1524:	7d7d7d7d 	.word	0x7d7d7d7d
    1528:	7d477d7d 	.word	0x7d477d7d
    152c:	7d7d      	.short	0x7d7d
    152e:	07          	.byte	0x07
    152f:	00          	.byte	0x00
C:\toolchain\Teensyduino\current_fork\cores\teensy3/usb_dev.c:571
    1530:	6808      	ldr	r0, [r1, #0]
    1532:	4d73      	ldr	r5, [pc, #460]	; (1700 <usb_isr+0x2f0>)
C:\toolchain\Teensyduino\current_fork\cores\teensy3/usb_dev.c:572
    1534:	684a      	ldr	r2, [r1, #4]
C:\toolchain\Teensyduino\current_fork\cores\teensy3/usb_dev.c:580
    1536:	4f73      	ldr	r7, [pc, #460]	; (1704 <usb_isr+0x2f4>)
C:\toolchain\Teensyduino\current_fork\cores\teensy3/usb_dev.c:592
    1538:	4e73      	ldr	r6, [pc, #460]	; (1708 <usb_isr+0x2f8>)
C:\toolchain\Teensyduino\current_fork\cores\teensy3/usb_dev.c:571
    153a:	6028      	str	r0, [r5, #0]
usb_setup():
C:\toolchain\Teensyduino\current_fork\cores\teensy3/usb_dev.c:184
    153c:	b281      	uxth	r1, r0
    153e:	f240 6081 	movw	r0, #1665	; 0x681
usb_control():
C:\toolchain\Teensyduino\current_fork\cores\teensy3/usb_dev.c:575
    1542:	4b6a      	ldr	r3, [pc, #424]	; (16ec <usb_isr+0x2dc>)
C:\toolchain\Teensyduino\current_fork\cores\teensy3/usb_dev.c:572
    1544:	606a      	str	r2, [r5, #4]
C:\toolchain\Teensyduino\current_fork\cores\teensy3/usb_dev.c:592
    1546:	f04f 0e01 	mov.w	lr, #1
C:\toolchain\Teensyduino\current_fork\cores\teensy3/usb_dev.c:580
    154a:	2200      	movs	r2, #0
usb_setup():
C:\toolchain\Teensyduino\current_fork\cores\teensy3/usb_dev.c:184
    154c:	4281      	cmp	r1, r0
usb_control():
C:\toolchain\Teensyduino\current_fork\cores\teensy3/usb_dev.c:575
    154e:	f849 3034 	str.w	r3, [r9, r4, lsl #3]
C:\toolchain\Teensyduino\current_fork\cores\teensy3/usb_dev.c:580
    1552:	603a      	str	r2, [r7, #0]
C:\toolchain\Teensyduino\current_fork\cores\teensy3/usb_dev.c:589
    1554:	f8c9 2010 	str.w	r2, [r9, #16]
C:\toolchain\Teensyduino\current_fork\cores\teensy3/usb_dev.c:590
    1558:	f8c9 2018 	str.w	r2, [r9, #24]
C:\toolchain\Teensyduino\current_fork\cores\teensy3/usb_dev.c:592
    155c:	f886 e000 	strb.w	lr, [r6]
C:\toolchain\Teensyduino\current_fork\cores\teensy3/usb_dev.c:589
    1560:	4c5e      	ldr	r4, [pc, #376]	; (16dc <usb_isr+0x2cc>)
usb_setup():
C:\toolchain\Teensyduino\current_fork\cores\teensy3/usb_dev.c:184
    1562:	f200 80f4 	bhi.w	174e <usb_isr+0x33e>
    1566:	f5b1 6fd0 	cmp.w	r1, #1664	; 0x680
    156a:	f080 8378 	bcs.w	1c5e <usb_isr+0x84e>
    156e:	f5b1 7f81 	cmp.w	r1, #258	; 0x102
    1572:	f000 8362 	beq.w	1c3a <usb_isr+0x82a>
    1576:	f200 8287 	bhi.w	1a88 <usb_isr+0x678>
    157a:	2980      	cmp	r1, #128	; 0x80
    157c:	f000 82ec 	beq.w	1b58 <usb_isr+0x748>
    1580:	2982      	cmp	r1, #130	; 0x82
    1582:	f040 831e 	bne.w	1bc2 <usb_isr+0x7b2>
    1586:	88a9      	ldrh	r1, [r5, #4]
    1588:	f001 017f 	and.w	r1, r1, #127	; 0x7f
C:\toolchain\Teensyduino\current_fork\cores\teensy3/usb_dev.c:286
    158c:	2904      	cmp	r1, #4
    158e:	f200 8318 	bhi.w	1bc2 <usb_isr+0x7b2>
C:\toolchain\Teensyduino\current_fork\cores\teensy3/usb_dev.c:293
    1592:	485e      	ldr	r0, [pc, #376]	; (170c <usb_isr+0x2fc>)
C:\toolchain\Teensyduino\current_fork\cores\teensy3/usb_dev.c:291
    1594:	4c5e      	ldr	r4, [pc, #376]	; (1710 <usb_isr+0x300>)
C:\toolchain\Teensyduino\current_fork\cores\teensy3/usb_dev.c:293
    1596:	0089      	lsls	r1, r1, #2
    1598:	4408      	add	r0, r1
C:\toolchain\Teensyduino\current_fork\cores\teensy3/usb_dev.c:291
    159a:	7022      	strb	r2, [r4, #0]
C:\toolchain\Teensyduino\current_fork\cores\teensy3/usb_dev.c:292
    159c:	7062      	strb	r2, [r4, #1]
C:\toolchain\Teensyduino\current_fork\cores\teensy3/usb_dev.c:293
    159e:	7802      	ldrb	r2, [r0, #0]
    15a0:	0793      	lsls	r3, r2, #30
    15a2:	f140 8379 	bpl.w	1c98 <usb_isr+0x888>
    15a6:	f884 e000 	strb.w	lr, [r4]
C:\toolchain\Teensyduino\current_fork\cores\teensy3/usb_dev.c:295
    15aa:	f04f 0e02 	mov.w	lr, #2
    15ae:	e2d8      	b.n	1b62 <usb_isr+0x752>
usb_control():
C:\toolchain\Teensyduino\current_fork\cores\teensy3/usb_dev.c:676
    15b0:	4f54      	ldr	r7, [pc, #336]	; (1704 <usb_isr+0x2f4>)
    15b2:	683a      	ldr	r2, [r7, #0]
C:\toolchain\Teensyduino\current_fork\cores\teensy3/usb_dev.c:677
    15b4:	b342      	cbz	r2, 1608 <usb_isr+0x1f8>
C:\toolchain\Teensyduino\current_fork\cores\teensy3/usb_dev.c:678
    15b6:	4b57      	ldr	r3, [pc, #348]	; (1714 <usb_isr+0x304>)
endpoint0_transmit():
C:\toolchain\Teensyduino\current_fork\cores\teensy3/usb_dev.c:166
    15b8:	4e53      	ldr	r6, [pc, #332]	; (1708 <usb_isr+0x2f8>)
C:\toolchain\Teensyduino\current_fork\cores\teensy3/usb_dev.c:165
    15ba:	4957      	ldr	r1, [pc, #348]	; (1718 <usb_isr+0x308>)
usb_control():
C:\toolchain\Teensyduino\current_fork\cores\teensy3/usb_dev.c:678
    15bc:	8818      	ldrh	r0, [r3, #0]
endpoint0_transmit():
C:\toolchain\Teensyduino\current_fork\cores\teensy3/usb_dev.c:166
    15be:	7834      	ldrb	r4, [r6, #0]
C:\toolchain\Teensyduino\current_fork\cores\teensy3/usb_dev.c:165
    15c0:	780d      	ldrb	r5, [r1, #0]
    15c2:	2840      	cmp	r0, #64	; 0x40
    15c4:	4686      	mov	lr, r0
    15c6:	f045 0802 	orr.w	r8, r5, #2
    15ca:	bf28      	it	cs
    15cc:	f04f 0e40 	movcs.w	lr, #64	; 0x40
C:\toolchain\Teensyduino\current_fork\cores\teensy3/usb_dev.c:166
    15d0:	2c00      	cmp	r4, #0
C:\toolchain\Teensyduino\current_fork\cores\teensy3/usb_dev.c:167
    15d2:	f084 0401 	eor.w	r4, r4, #1
    15d6:	7034      	strb	r4, [r6, #0]
usb_control():
C:\toolchain\Teensyduino\current_fork\cores\teensy3/usb_dev.c:682
    15d8:	ebce 0000 	rsb	r0, lr, r0
endpoint0_transmit():
C:\toolchain\Teensyduino\current_fork\cores\teensy3/usb_dev.c:166
    15dc:	bf0c      	ite	eq
    15de:	2488      	moveq	r4, #136	; 0x88
    15e0:	24c8      	movne	r4, #200	; 0xc8
C:\toolchain\Teensyduino\current_fork\cores\teensy3/usb_dev.c:165
    15e2:	eb09 06c8 	add.w	r6, r9, r8, lsl #3
usb_control():
C:\toolchain\Teensyduino\current_fork\cores\teensy3/usb_dev.c:682
    15e6:	b280      	uxth	r0, r0
endpoint0_transmit():
C:\toolchain\Teensyduino\current_fork\cores\teensy3/usb_dev.c:168
    15e8:	f085 0501 	eor.w	r5, r5, #1
C:\toolchain\Teensyduino\current_fork\cores\teensy3/usb_dev.c:166
    15ec:	ea44 440e 	orr.w	r4, r4, lr, lsl #16
C:\toolchain\Teensyduino\current_fork\cores\teensy3/usb_dev.c:165
    15f0:	6072      	str	r2, [r6, #4]
usb_control():
C:\toolchain\Teensyduino\current_fork\cores\teensy3/usb_dev.c:682
    15f2:	8018      	strh	r0, [r3, #0]
endpoint0_transmit():
C:\toolchain\Teensyduino\current_fork\cores\teensy3/usb_dev.c:166
    15f4:	f849 4038 	str.w	r4, [r9, r8, lsl #3]
usb_control():
C:\toolchain\Teensyduino\current_fork\cores\teensy3/usb_dev.c:681
    15f8:	4472      	add	r2, lr
endpoint0_transmit():
C:\toolchain\Teensyduino\current_fork\cores\teensy3/usb_dev.c:168
    15fa:	700d      	strb	r5, [r1, #0]
usb_control():
C:\toolchain\Teensyduino\current_fork\cores\teensy3/usb_dev.c:683
    15fc:	b918      	cbnz	r0, 1606 <usb_isr+0x1f6>
    15fe:	f1be 0f40 	cmp.w	lr, #64	; 0x40
    1602:	bf18      	it	ne
    1604:	2200      	movne	r2, #0
    1606:	603a      	str	r2, [r7, #0]
C:\toolchain\Teensyduino\current_fork\cores\teensy3/usb_dev.c:686
    1608:	4b3d      	ldr	r3, [pc, #244]	; (1700 <usb_isr+0x2f0>)
    160a:	881a      	ldrh	r2, [r3, #0]
    160c:	f5b2 6fa0 	cmp.w	r2, #1280	; 0x500
    1610:	d104      	bne.n	161c <usb_isr+0x20c>
C:\toolchain\Teensyduino\current_fork\cores\teensy3/usb_dev.c:687
    1612:	2100      	movs	r1, #0
C:\toolchain\Teensyduino\current_fork\cores\teensy3/usb_dev.c:691
    1614:	789a      	ldrb	r2, [r3, #2]
C:\toolchain\Teensyduino\current_fork\cores\teensy3/usb_dev.c:687
    1616:	7059      	strb	r1, [r3, #1]
C:\toolchain\Teensyduino\current_fork\cores\teensy3/usb_dev.c:691
    1618:	4b40      	ldr	r3, [pc, #256]	; (171c <usb_isr+0x30c>)
    161a:	701a      	strb	r2, [r3, #0]
C:\toolchain\Teensyduino\current_fork\cores\teensy3/usb_dev.c:700
    161c:	4a40      	ldr	r2, [pc, #256]	; (1720 <usb_isr+0x310>)
    161e:	2301      	movs	r3, #1
    1620:	7013      	strb	r3, [r2, #0]
    1622:	e73f      	b.n	14a4 <usb_isr+0x94>
C:\toolchain\Teensyduino\current_fork\cores\teensy3/usb_dev.c:615
    1624:	4a36      	ldr	r2, [pc, #216]	; (1700 <usb_isr+0x2f0>)
    1626:	8815      	ldrh	r5, [r2, #0]
    1628:	f242 0021 	movw	r0, #8225	; 0x2021
    162c:	4285      	cmp	r5, r0
    162e:	f000 81ff 	beq.w	1a30 <usb_isr+0x620>
C:\toolchain\Teensyduino\current_fork\cores\teensy3/usb_dev.c:667
    1632:	4a2e      	ldr	r2, [pc, #184]	; (16ec <usb_isr+0x2dc>)
    1634:	f849 2034 	str.w	r2, [r9, r4, lsl #3]
    1638:	e7f0      	b.n	161c <usb_isr+0x20c>
usb_isr():
C:\toolchain\Teensyduino\current_fork\cores\teensy3/usb_dev.c:1089
    163a:	4a2c      	ldr	r2, [pc, #176]	; (16ec <usb_isr+0x2dc>)
    163c:	4b2c      	ldr	r3, [pc, #176]	; (16f0 <usb_isr+0x2e0>)
    163e:	f019 0f08 	tst.w	r9, #8
    1642:	bf18      	it	ne
    1644:	4613      	movne	r3, r2
    1646:	f847 3038 	str.w	r3, [r7, r8, lsl #3]
    164a:	e72b      	b.n	14a4 <usb_isr+0x94>
C:\toolchain\Teensyduino\current_fork\cores\teensy3/usb_dev.c:1009
    164c:	f000 fef2 	bl	2434 <usb_free>
C:\toolchain\Teensyduino\current_fork\cores\teensy3/usb_dev.c:1010
    1650:	4a34      	ldr	r2, [pc, #208]	; (1724 <usb_isr+0x314>)
C:\toolchain\Teensyduino\current_fork\cores\teensy3/usb_dev.c:1015
    1652:	4935      	ldr	r1, [pc, #212]	; (1728 <usb_isr+0x318>)
C:\toolchain\Teensyduino\current_fork\cores\teensy3/usb_dev.c:1010
    1654:	f852 3026 	ldr.w	r3, [r2, r6, lsl #2]
C:\toolchain\Teensyduino\current_fork\cores\teensy3/usb_dev.c:1011
    1658:	2b00      	cmp	r3, #0
    165a:	f000 81b6 	beq.w	19ca <usb_isr+0x5ba>
C:\toolchain\Teensyduino\current_fork\cores\teensy3/usb_dev.c:1013
    165e:	6858      	ldr	r0, [r3, #4]
C:\toolchain\Teensyduino\current_fork\cores\teensy3/usb_dev.c:1015
    1660:	5d8c      	ldrb	r4, [r1, r6]
C:\toolchain\Teensyduino\current_fork\cores\teensy3/usb_dev.c:1013
    1662:	f842 0026 	str.w	r0, [r2, r6, lsl #2]
C:\toolchain\Teensyduino\current_fork\cores\teensy3/usb_dev.c:1014
    1666:	f103 0208 	add.w	r2, r3, #8
    166a:	f8c9 2004 	str.w	r2, [r9, #4]
C:\toolchain\Teensyduino\current_fork\cores\teensy3/usb_dev.c:1015
    166e:	2c03      	cmp	r4, #3
    1670:	d805      	bhi.n	167e <usb_isr+0x26e>
    1672:	e8df f004 	tbb	[pc, r4]
    1676:	0f12      	.short	0x0f12
    1678:	0215      	.short	0x0215
C:\toolchain\Teensyduino\current_fork\cores\teensy3/usb_dev.c:1026
    167a:	2204      	movs	r2, #4
    167c:	558a      	strb	r2, [r1, r6]
C:\toolchain\Teensyduino\current_fork\cores\teensy3/usb_dev.c:1031
    167e:	881a      	ldrh	r2, [r3, #0]
    1680:	f019 0f08 	tst.w	r9, #8
    1684:	bf0c      	ite	eq
    1686:	2388      	moveq	r3, #136	; 0x88
    1688:	23c8      	movne	r3, #200	; 0xc8
    168a:	ea43 4302 	orr.w	r3, r3, r2, lsl #16
    168e:	f847 3038 	str.w	r3, [r7, r8, lsl #3]
    1692:	e707      	b.n	14a4 <usb_isr+0x94>
C:\toolchain\Teensyduino\current_fork\cores\teensy3/usb_dev.c:1020
    1694:	2202      	movs	r2, #2
    1696:	558a      	strb	r2, [r1, r6]
C:\toolchain\Teensyduino\current_fork\cores\teensy3/usb_dev.c:1021
    1698:	e7f1      	b.n	167e <usb_isr+0x26e>
C:\toolchain\Teensyduino\current_fork\cores\teensy3/usb_dev.c:1017
    169a:	2203      	movs	r2, #3
    169c:	558a      	strb	r2, [r1, r6]
C:\toolchain\Teensyduino\current_fork\cores\teensy3/usb_dev.c:1018
    169e:	e7ee      	b.n	167e <usb_isr+0x26e>
C:\toolchain\Teensyduino\current_fork\cores\teensy3/usb_dev.c:1023
    16a0:	2205      	movs	r2, #5
    16a2:	558a      	strb	r2, [r1, r6]
C:\toolchain\Teensyduino\current_fork\cores\teensy3/usb_dev.c:1024
    16a4:	e7eb      	b.n	167e <usb_isr+0x26e>
C:\toolchain\Teensyduino\current_fork\cores\teensy3/usb_dev.c:1100
    16a6:	07e0      	lsls	r0, r4, #31
    16a8:	f100 821a 	bmi.w	1ae0 <usb_isr+0x6d0>
C:\toolchain\Teensyduino\current_fork\cores\teensy3/usb_dev.c:1140
    16ac:	0621      	lsls	r1, r4, #24
    16ae:	f100 8249 	bmi.w	1b44 <usb_isr+0x734>
C:\toolchain\Teensyduino\current_fork\cores\teensy3/usb_dev.c:1145
    16b2:	07a2      	lsls	r2, r4, #30
    16b4:	d506      	bpl.n	16c4 <usb_isr+0x2b4>
C:\toolchain\Teensyduino\current_fork\cores\teensy3/usb_dev.c:1146
    16b6:	4a1d      	ldr	r2, [pc, #116]	; (172c <usb_isr+0x31c>)
C:\toolchain\Teensyduino\current_fork\cores\teensy3/usb_dev.c:1151
    16b8:	491d      	ldr	r1, [pc, #116]	; (1730 <usb_isr+0x320>)
C:\toolchain\Teensyduino\current_fork\cores\teensy3/usb_dev.c:1146
    16ba:	7813      	ldrb	r3, [r2, #0]
C:\toolchain\Teensyduino\current_fork\cores\teensy3/usb_dev.c:1151
    16bc:	2002      	movs	r0, #2
C:\toolchain\Teensyduino\current_fork\cores\teensy3/usb_dev.c:1146
    16be:	b2db      	uxtb	r3, r3
C:\toolchain\Teensyduino\current_fork\cores\teensy3/usb_dev.c:1147
    16c0:	7013      	strb	r3, [r2, #0]
C:\toolchain\Teensyduino\current_fork\cores\teensy3/usb_dev.c:1151
    16c2:	7008      	strb	r0, [r1, #0]
C:\toolchain\Teensyduino\current_fork\cores\teensy3/usb_dev.c:1154
    16c4:	06e3      	lsls	r3, r4, #27
    16c6:	d502      	bpl.n	16ce <usb_isr+0x2be>
C:\toolchain\Teensyduino\current_fork\cores\teensy3/usb_dev.c:1156
    16c8:	4b19      	ldr	r3, [pc, #100]	; (1730 <usb_isr+0x320>)
    16ca:	2210      	movs	r2, #16
    16cc:	701a      	strb	r2, [r3, #0]
C:\toolchain\Teensyduino\current_fork\cores\teensy3/usb_dev.c:1159
    16ce:	b007      	add	sp, #28
    16d0:	e8bd 8ff0 	ldmia.w	sp!, {r4, r5, r6, r7, r8, r9, sl, fp, pc}
C:\toolchain\Teensyduino\current_fork\cores\teensy3/usb_dev.c:925 (discriminator 1)
    16d4:	f000 fd92 	bl	21fc <usb_serial_flush_callback>
    16d8:	e705      	b.n	14e6 <usb_isr+0xd6>
    16da:	bf00      	nop
    16dc:	1fff8000 	.word	0x1fff8000
    16e0:	1fff9350 	.word	0x1fff9350
    16e4:	1fff92fc 	.word	0x1fff92fc
    16e8:	1fff9448 	.word	0x1fff9448
    16ec:	004000c8 	.word	0x004000c8
    16f0:	00400088 	.word	0x00400088
    16f4:	1fff93d8 	.word	0x1fff93d8
    16f8:	1fff9361 	.word	0x1fff9361
    16fc:	1fff9405 	.word	0x1fff9405
    1700:	1fff93c4 	.word	0x1fff93c4
    1704:	1fff92f8 	.word	0x1fff92f8
    1708:	1fff9360 	.word	0x1fff9360
    170c:	400720c0 	.word	0x400720c0
    1710:	1fff93d0 	.word	0x1fff93d0
    1714:	1fff930c 	.word	0x1fff930c
    1718:	1fff93cc 	.word	0x1fff93cc
    171c:	40072098 	.word	0x40072098
    1720:	40072094 	.word	0x40072094
    1724:	1fff93a4 	.word	0x1fff93a4
    1728:	1fff93dc 	.word	0x1fff93dc
    172c:	40072088 	.word	0x40072088
    1730:	40072080 	.word	0x40072080
    1734:	40072090 	.word	0x40072090
C:\toolchain\Teensyduino\current_fork\cores\teensy3/usb_dev.c:1086
    1738:	4aab      	ldr	r2, [pc, #684]	; (19e8 <usb_isr+0x5d8>)
C:\toolchain\Teensyduino\current_fork\cores\teensy3/usb_dev.c:1085
    173a:	f847 0038 	str.w	r0, [r7, r8, lsl #3]
C:\toolchain\Teensyduino\current_fork\cores\teensy3/usb_dev.c:1086
    173e:	7813      	ldrb	r3, [r2, #0]
    1740:	3301      	adds	r3, #1
    1742:	7013      	strb	r3, [r2, #0]
    1744:	e6ae      	b.n	14a4 <usb_isr+0x94>
C:\toolchain\Teensyduino\current_fork\cores\teensy3/usb_dev.c:1062
    1746:	f843 0026 	str.w	r0, [r3, r6, lsl #2]
    174a:	4da8      	ldr	r5, [pc, #672]	; (19ec <usb_isr+0x5dc>)
    174c:	e691      	b.n	1472 <usb_isr+0x62>
usb_setup():
C:\toolchain\Teensyduino\current_fork\cores\teensy3/usb_dev.c:184
    174e:	f242 0021 	movw	r0, #8225	; 0x2021
    1752:	4281      	cmp	r1, r0
    1754:	f000 8135 	beq.w	19c2 <usb_isr+0x5b2>
    1758:	f200 81af 	bhi.w	1aba <usb_isr+0x6aa>
    175c:	f5b1 6f08 	cmp.w	r1, #2176	; 0x880
    1760:	f000 821b 	beq.w	1b9a <usb_isr+0x78a>
    1764:	f5b1 6f10 	cmp.w	r1, #2304	; 0x900
    1768:	f040 822b 	bne.w	1bc2 <usb_isr+0x7b2>
C:\toolchain\Teensyduino\current_fork\cores\teensy3/usb_dev.c:194
    176c:	6a22      	ldr	r2, [r4, #32]
C:\toolchain\Teensyduino\current_fork\cores\teensy3/usb_dev.c:189
    176e:	49a0      	ldr	r1, [pc, #640]	; (19f0 <usb_isr+0x5e0>)
    1770:	78a8      	ldrb	r0, [r5, #2]
    1772:	7008      	strb	r0, [r1, #0]
C:\toolchain\Teensyduino\current_fork\cores\teensy3/usb_dev.c:194
    1774:	0612      	lsls	r2, r2, #24
    1776:	f100 8345 	bmi.w	1e04 <usb_isr+0x9f4>
    177a:	f8d9 2028 	ldr.w	r2, [r9, #40]	; 0x28
    177e:	499d      	ldr	r1, [pc, #628]	; (19f4 <usb_isr+0x5e4>)
    1780:	0613      	lsls	r3, r2, #24
    1782:	f100 833a 	bmi.w	1dfa <usb_isr+0x9ea>
    1786:	f8d9 2030 	ldr.w	r2, [r9, #48]	; 0x30
    178a:	499a      	ldr	r1, [pc, #616]	; (19f4 <usb_isr+0x5e4>)
    178c:	0615      	lsls	r5, r2, #24
    178e:	f100 832f 	bmi.w	1df0 <usb_isr+0x9e0>
    1792:	f8d9 2038 	ldr.w	r2, [r9, #56]	; 0x38
    1796:	4997      	ldr	r1, [pc, #604]	; (19f4 <usb_isr+0x5e4>)
    1798:	0614      	lsls	r4, r2, #24
    179a:	f100 8324 	bmi.w	1de6 <usb_isr+0x9d6>
    179e:	f8d9 2040 	ldr.w	r2, [r9, #64]	; 0x40
    17a2:	4994      	ldr	r1, [pc, #592]	; (19f4 <usb_isr+0x5e4>)
    17a4:	0610      	lsls	r0, r2, #24
    17a6:	f100 8319 	bmi.w	1ddc <usb_isr+0x9cc>
    17aa:	f8d9 2048 	ldr.w	r2, [r9, #72]	; 0x48
    17ae:	4991      	ldr	r1, [pc, #580]	; (19f4 <usb_isr+0x5e4>)
    17b0:	0612      	lsls	r2, r2, #24
    17b2:	f100 830e 	bmi.w	1dd2 <usb_isr+0x9c2>
    17b6:	f8d9 2050 	ldr.w	r2, [r9, #80]	; 0x50
    17ba:	498e      	ldr	r1, [pc, #568]	; (19f4 <usb_isr+0x5e4>)
    17bc:	0613      	lsls	r3, r2, #24
    17be:	f100 8303 	bmi.w	1dc8 <usb_isr+0x9b8>
    17c2:	f8d9 2058 	ldr.w	r2, [r9, #88]	; 0x58
    17c6:	498b      	ldr	r1, [pc, #556]	; (19f4 <usb_isr+0x5e4>)
    17c8:	0615      	lsls	r5, r2, #24
    17ca:	f100 82f8 	bmi.w	1dbe <usb_isr+0x9ae>
    17ce:	f8d9 2060 	ldr.w	r2, [r9, #96]	; 0x60
    17d2:	4988      	ldr	r1, [pc, #544]	; (19f4 <usb_isr+0x5e4>)
    17d4:	0614      	lsls	r4, r2, #24
    17d6:	f100 8329 	bmi.w	1e2c <usb_isr+0xa1c>
    17da:	f8d9 2068 	ldr.w	r2, [r9, #104]	; 0x68
    17de:	4985      	ldr	r1, [pc, #532]	; (19f4 <usb_isr+0x5e4>)
    17e0:	0610      	lsls	r0, r2, #24
    17e2:	f100 831e 	bmi.w	1e22 <usb_isr+0xa12>
    17e6:	f8d9 2070 	ldr.w	r2, [r9, #112]	; 0x70
    17ea:	4982      	ldr	r1, [pc, #520]	; (19f4 <usb_isr+0x5e4>)
    17ec:	0612      	lsls	r2, r2, #24
    17ee:	f100 8313 	bmi.w	1e18 <usb_isr+0xa08>
    17f2:	f8d9 2078 	ldr.w	r2, [r9, #120]	; 0x78
    17f6:	497f      	ldr	r1, [pc, #508]	; (19f4 <usb_isr+0x5e4>)
    17f8:	0613      	lsls	r3, r2, #24
    17fa:	f100 8308 	bmi.w	1e0e <usb_isr+0x9fe>
    17fe:	f8d9 2080 	ldr.w	r2, [r9, #128]	; 0x80
    1802:	497c      	ldr	r1, [pc, #496]	; (19f4 <usb_isr+0x5e4>)
    1804:	0615      	lsls	r5, r2, #24
    1806:	f100 831c 	bmi.w	1e42 <usb_isr+0xa32>
    180a:	f8d9 2088 	ldr.w	r2, [r9, #136]	; 0x88
    180e:	4979      	ldr	r1, [pc, #484]	; (19f4 <usb_isr+0x5e4>)
    1810:	0614      	lsls	r4, r2, #24
    1812:	f100 8310 	bmi.w	1e36 <usb_isr+0xa26>
    1816:	f8d9 2090 	ldr.w	r2, [r9, #144]	; 0x90
    181a:	4976      	ldr	r1, [pc, #472]	; (19f4 <usb_isr+0x5e4>)
    181c:	0610      	lsls	r0, r2, #24
    181e:	f100 82c8 	bmi.w	1db2 <usb_isr+0x9a2>
    1822:	f8d9 2098 	ldr.w	r2, [r9, #152]	; 0x98
    1826:	4973      	ldr	r1, [pc, #460]	; (19f4 <usb_isr+0x5e4>)
    1828:	0612      	lsls	r2, r2, #24
    182a:	f100 82bc 	bmi.w	1da6 <usb_isr+0x996>
    182e:	4872      	ldr	r0, [pc, #456]	; (19f8 <usb_isr+0x5e8>)
    1830:	4a72      	ldr	r2, [pc, #456]	; (19fc <usb_isr+0x5ec>)
    1832:	4973      	ldr	r1, [pc, #460]	; (1a00 <usb_isr+0x5f0>)
    1834:	9001      	str	r0, [sp, #4]
    1836:	4873      	ldr	r0, [pc, #460]	; (1a04 <usb_isr+0x5f4>)
    1838:	4d6c      	ldr	r5, [pc, #432]	; (19ec <usb_isr+0x5dc>)
    183a:	4c73      	ldr	r4, [pc, #460]	; (1a08 <usb_isr+0x5f8>)
C:\toolchain\Teensyduino\current_fork\cores\teensy3/usb_dev.c:225
    183c:	9704      	str	r7, [sp, #16]
usb_isr():
C:\toolchain\Teensyduino\current_fork\cores\teensy3/usb_dev.c:904
    183e:	2300      	movs	r3, #0
usb_setup():
C:\toolchain\Teensyduino\current_fork\cores\teensy3/usb_dev.c:225
    1840:	9605      	str	r6, [sp, #20]
    1842:	9502      	str	r5, [sp, #8]
    1844:	4680      	mov	r8, r0
    1846:	4617      	mov	r7, r2
    1848:	460e      	mov	r6, r1
    184a:	461d      	mov	r5, r3
    184c:	9403      	str	r4, [sp, #12]
C:\toolchain\Teensyduino\current_fork\cores\teensy3/usb_dev.c:201
    184e:	6838      	ldr	r0, [r7, #0]
C:\toolchain\Teensyduino\current_fork\cores\teensy3/usb_dev.c:202
    1850:	b128      	cbz	r0, 185e <usb_isr+0x44e>
C:\toolchain\Teensyduino\current_fork\cores\teensy3/usb_dev.c:203
    1852:	6844      	ldr	r4, [r0, #4]
C:\toolchain\Teensyduino\current_fork\cores\teensy3/usb_dev.c:204
    1854:	f000 fdee 	bl	2434 <usb_free>
C:\toolchain\Teensyduino\current_fork\cores\teensy3/usb_dev.c:202
    1858:	4620      	mov	r0, r4
    185a:	2c00      	cmp	r4, #0
    185c:	d1f9      	bne.n	1852 <usb_isr+0x442>
C:\toolchain\Teensyduino\current_fork\cores\teensy3/usb_dev.c:207
    185e:	2300      	movs	r3, #0
    1860:	603b      	str	r3, [r7, #0]
C:\toolchain\Teensyduino\current_fork\cores\teensy3/usb_dev.c:208
    1862:	9b02      	ldr	r3, [sp, #8]
C:\toolchain\Teensyduino\current_fork\cores\teensy3/usb_dev.c:209
    1864:	6830      	ldr	r0, [r6, #0]
C:\toolchain\Teensyduino\current_fork\cores\teensy3/usb_dev.c:208
    1866:	461a      	mov	r2, r3
    1868:	2300      	movs	r3, #0
    186a:	f842 3025 	str.w	r3, [r2, r5, lsl #2]
C:\toolchain\Teensyduino\current_fork\cores\teensy3/usb_dev.c:210
    186e:	b128      	cbz	r0, 187c <usb_isr+0x46c>
C:\toolchain\Teensyduino\current_fork\cores\teensy3/usb_dev.c:211
    1870:	6844      	ldr	r4, [r0, #4]
C:\toolchain\Teensyduino\current_fork\cores\teensy3/usb_dev.c:212
    1872:	f000 fddf 	bl	2434 <usb_free>
C:\toolchain\Teensyduino\current_fork\cores\teensy3/usb_dev.c:210
    1876:	4620      	mov	r0, r4
    1878:	2c00      	cmp	r4, #0
    187a:	d1f9      	bne.n	1870 <usb_isr+0x460>
C:\toolchain\Teensyduino\current_fork\cores\teensy3/usb_dev.c:215
    187c:	2200      	movs	r2, #0
    187e:	6032      	str	r2, [r6, #0]
C:\toolchain\Teensyduino\current_fork\cores\teensy3/usb_dev.c:216
    1880:	9a01      	ldr	r2, [sp, #4]
C:\toolchain\Teensyduino\current_fork\cores\teensy3/usb_dev.c:218
    1882:	f898 3000 	ldrb.w	r3, [r8]
C:\toolchain\Teensyduino\current_fork\cores\teensy3/usb_dev.c:216
    1886:	4611      	mov	r1, r2
    1888:	2200      	movs	r2, #0
    188a:	f841 2b04 	str.w	r2, [r1], #4
C:\toolchain\Teensyduino\current_fork\cores\teensy3/usb_dev.c:217
    188e:	9a03      	ldr	r2, [sp, #12]
C:\toolchain\Teensyduino\current_fork\cores\teensy3/usb_dev.c:216
    1890:	9101      	str	r1, [sp, #4]
C:\toolchain\Teensyduino\current_fork\cores\teensy3/usb_dev.c:218
    1892:	3b02      	subs	r3, #2
C:\toolchain\Teensyduino\current_fork\cores\teensy3/usb_dev.c:217
    1894:	f04f 0100 	mov.w	r1, #0
    1898:	f822 1015 	strh.w	r1, [r2, r5, lsl #1]
C:\toolchain\Teensyduino\current_fork\cores\teensy3/usb_dev.c:218
    189c:	2b03      	cmp	r3, #3
    189e:	d809      	bhi.n	18b4 <usb_isr+0x4a4>
    18a0:	e8df f013 	tbh	[pc, r3, lsl #1]
    18a4:	0004014b 	.word	0x0004014b
    18a8:	0004014b 	.word	0x0004014b
C:\toolchain\Teensyduino\current_fork\cores\teensy3/usb_dev.c:225
    18ac:	f04f 0301 	mov.w	r3, #1
    18b0:	f888 3000 	strb.w	r3, [r8]
C:\toolchain\Teensyduino\current_fork\cores\teensy3/usb_dev.c:199
    18b4:	3501      	adds	r5, #1
    18b6:	2d04      	cmp	r5, #4
    18b8:	f107 0704 	add.w	r7, r7, #4
    18bc:	f106 0604 	add.w	r6, r6, #4
    18c0:	f108 0801 	add.w	r8, r8, #1
    18c4:	d1c3      	bne.n	184e <usb_isr+0x43e>
C:\toolchain\Teensyduino\current_fork\cores\teensy3/usb_dev.c:233
    18c6:	4c51      	ldr	r4, [pc, #324]	; (1a0c <usb_isr+0x5fc>)
C:\toolchain\Teensyduino\current_fork\cores\teensy3/usb_dev.c:234
    18c8:	4b51      	ldr	r3, [pc, #324]	; (1a10 <usb_isr+0x600>)
C:\toolchain\Teensyduino\current_fork\cores\teensy3/usb_dev.c:233
    18ca:	7822      	ldrb	r2, [r4, #0]
C:\toolchain\Teensyduino\current_fork\cores\teensy3/usb_dev.c:231
    18cc:	4d46      	ldr	r5, [pc, #280]	; (19e8 <usb_isr+0x5d8>)
    18ce:	9f04      	ldr	r7, [sp, #16]
    18d0:	9e05      	ldr	r6, [sp, #20]
    18d2:	2100      	movs	r1, #0
    18d4:	7029      	strb	r1, [r5, #0]
C:\toolchain\Teensyduino\current_fork\cores\teensy3/usb_dev.c:234
    18d6:	701a      	strb	r2, [r3, #0]
C:\toolchain\Teensyduino\current_fork\cores\teensy3/usb_dev.c:244
    18d8:	0713      	lsls	r3, r2, #28
    18da:	f100 824f 	bmi.w	1d7c <usb_isr+0x96c>
C:\toolchain\Teensyduino\current_fork\cores\teensy3/usb_dev.c:233
    18de:	7862      	ldrb	r2, [r4, #1]
C:\toolchain\Teensyduino\current_fork\cores\teensy3/usb_dev.c:234
    18e0:	494c      	ldr	r1, [pc, #304]	; (1a14 <usb_isr+0x604>)
C:\toolchain\Teensyduino\current_fork\cores\teensy3/usb_dev.c:263
    18e2:	f8df 8110 	ldr.w	r8, [pc, #272]	; 19f4 <usb_isr+0x5e4>
C:\toolchain\Teensyduino\current_fork\cores\teensy3/usb_dev.c:234
    18e6:	700a      	strb	r2, [r1, #0]
C:\toolchain\Teensyduino\current_fork\cores\teensy3/usb_dev.c:244
    18e8:	0710      	lsls	r0, r2, #28
C:\toolchain\Teensyduino\current_fork\cores\teensy3/usb_dev.c:263
    18ea:	f04f 0100 	mov.w	r1, #0
    18ee:	f8c9 1030 	str.w	r1, [r9, #48]	; 0x30
C:\toolchain\Teensyduino\current_fork\cores\teensy3/usb_dev.c:264
    18f2:	f8c9 1038 	str.w	r1, [r9, #56]	; 0x38
C:\toolchain\Teensyduino\current_fork\cores\teensy3/usb_dev.c:244
    18f6:	f100 822b 	bmi.w	1d50 <usb_isr+0x940>
C:\toolchain\Teensyduino\current_fork\cores\teensy3/usb_dev.c:234
    18fa:	4947      	ldr	r1, [pc, #284]	; (1a18 <usb_isr+0x608>)
C:\toolchain\Teensyduino\current_fork\cores\teensy3/usb_dev.c:233
    18fc:	78a2      	ldrb	r2, [r4, #2]
C:\toolchain\Teensyduino\current_fork\cores\teensy3/usb_dev.c:234
    18fe:	700a      	strb	r2, [r1, #0]
C:\toolchain\Teensyduino\current_fork\cores\teensy3/usb_dev.c:263
    1900:	2100      	movs	r1, #0
    1902:	f8c9 1050 	str.w	r1, [r9, #80]	; 0x50
C:\toolchain\Teensyduino\current_fork\cores\teensy3/usb_dev.c:264
    1906:	f8c9 1058 	str.w	r1, [r9, #88]	; 0x58
C:\toolchain\Teensyduino\current_fork\cores\teensy3/usb_dev.c:244
    190a:	0711      	lsls	r1, r2, #28
C:\toolchain\Teensyduino\current_fork\cores\teensy3/usb_dev.c:263
    190c:	f8df 80e4 	ldr.w	r8, [pc, #228]	; 19f4 <usb_isr+0x5e4>
C:\toolchain\Teensyduino\current_fork\cores\teensy3/usb_dev.c:244
    1910:	f100 81dc 	bmi.w	1ccc <usb_isr+0x8bc>
C:\toolchain\Teensyduino\current_fork\cores\teensy3/usb_dev.c:233
    1914:	78e2      	ldrb	r2, [r4, #3]
C:\toolchain\Teensyduino\current_fork\cores\teensy3/usb_dev.c:234
    1916:	4941      	ldr	r1, [pc, #260]	; (1a1c <usb_isr+0x60c>)
C:\toolchain\Teensyduino\current_fork\cores\teensy3/usb_dev.c:263
    1918:	4c36      	ldr	r4, [pc, #216]	; (19f4 <usb_isr+0x5e4>)
C:\toolchain\Teensyduino\current_fork\cores\teensy3/usb_dev.c:234
    191a:	700a      	strb	r2, [r1, #0]
C:\toolchain\Teensyduino\current_fork\cores\teensy3/usb_dev.c:263
    191c:	2100      	movs	r1, #0
C:\toolchain\Teensyduino\current_fork\cores\teensy3/usb_dev.c:244
    191e:	0712      	lsls	r2, r2, #28
C:\toolchain\Teensyduino\current_fork\cores\teensy3/usb_dev.c:263
    1920:	f8c9 1070 	str.w	r1, [r9, #112]	; 0x70
C:\toolchain\Teensyduino\current_fork\cores\teensy3/usb_dev.c:264
    1924:	f8c9 1078 	str.w	r1, [r9, #120]	; 0x78
C:\toolchain\Teensyduino\current_fork\cores\teensy3/usb_dev.c:244
    1928:	f100 81b9 	bmi.w	1c9e <usb_isr+0x88e>
    192c:	7833      	ldrb	r3, [r6, #0]
    192e:	9301      	str	r3, [sp, #4]
C:\toolchain\Teensyduino\current_fork\cores\teensy3/usb_dev.c:263
    1930:	2100      	movs	r1, #0
    1932:	f083 0201 	eor.w	r2, r3, #1
    1936:	f8c9 1090 	str.w	r1, [r9, #144]	; 0x90
C:\toolchain\Teensyduino\current_fork\cores\teensy3/usb_dev.c:264
    193a:	f8c9 1098 	str.w	r1, [r9, #152]	; 0x98
C:\toolchain\Teensyduino\current_fork\cores\teensy3/usb_dev.c:511
    193e:	2000      	movs	r0, #0
    1940:	9002      	str	r0, [sp, #8]
    1942:	4680      	mov	r8, r0
    1944:	4684      	mov	ip, r0
    1946:	4604      	mov	r4, r0
endpoint0_transmit():
C:\toolchain\Teensyduino\current_fork\cores\teensy3/usb_dev.c:165
    1948:	4935      	ldr	r1, [pc, #212]	; (1a20 <usb_isr+0x610>)
    194a:	780d      	ldrb	r5, [r1, #0]
    194c:	f045 0e02 	orr.w	lr, r5, #2
    1950:	eb09 03ce 	add.w	r3, r9, lr, lsl #3
    1954:	9303      	str	r3, [sp, #12]
C:\toolchain\Teensyduino\current_fork\cores\teensy3/usb_dev.c:166
    1956:	9b01      	ldr	r3, [sp, #4]
    1958:	2b00      	cmp	r3, #0
C:\toolchain\Teensyduino\current_fork\cores\teensy3/usb_dev.c:165
    195a:	9b03      	ldr	r3, [sp, #12]
    195c:	605c      	str	r4, [r3, #4]
C:\toolchain\Teensyduino\current_fork\cores\teensy3/usb_dev.c:166
    195e:	bf0c      	ite	eq
    1960:	2488      	moveq	r4, #136	; 0x88
    1962:	24c8      	movne	r4, #200	; 0xc8
    1964:	ea44 0308 	orr.w	r3, r4, r8
C:\toolchain\Teensyduino\current_fork\cores\teensy3/usb_dev.c:168
    1968:	f085 0401 	eor.w	r4, r5, #1
C:\toolchain\Teensyduino\current_fork\cores\teensy3/usb_dev.c:166
    196c:	f849 303e 	str.w	r3, [r9, lr, lsl #3]
C:\toolchain\Teensyduino\current_fork\cores\teensy3/usb_dev.c:167
    1970:	7032      	strb	r2, [r6, #0]
C:\toolchain\Teensyduino\current_fork\cores\teensy3/usb_dev.c:168
    1972:	700c      	strb	r4, [r1, #0]
C:\toolchain\Teensyduino\current_fork\cores\teensy3/usb_dev.c:166
    1974:	f8df e07c 	ldr.w	lr, [pc, #124]	; 19f4 <usb_isr+0x5e4>
C:\toolchain\Teensyduino\current_fork\cores\teensy3/usb_dev.c:167
    1978:	4b2a      	ldr	r3, [pc, #168]	; (1a24 <usb_isr+0x614>)
C:\toolchain\Teensyduino\current_fork\cores\teensy3/usb_dev.c:168
    197a:	f8df 80a4 	ldr.w	r8, [pc, #164]	; 1a20 <usb_isr+0x610>
usb_setup():
C:\toolchain\Teensyduino\current_fork\cores\teensy3/usb_dev.c:517
    197e:	2800      	cmp	r0, #0
    1980:	f040 8126 	bne.w	1bd0 <usb_isr+0x7c0>
    1984:	f1bc 0f40 	cmp.w	ip, #64	; 0x40
    1988:	d11b      	bne.n	19c2 <usb_isr+0x5b2>
endpoint0_transmit():
C:\toolchain\Teensyduino\current_fork\cores\teensy3/usb_dev.c:165
    198a:	f044 0c02 	orr.w	ip, r4, #2
    198e:	eb09 03cc 	add.w	r3, r9, ip, lsl #3
    1992:	9c02      	ldr	r4, [sp, #8]
    1994:	f8df e05c 	ldr.w	lr, [pc, #92]	; 19f4 <usb_isr+0x5e4>
    1998:	605c      	str	r4, [r3, #4]
C:\toolchain\Teensyduino\current_fork\cores\teensy3/usb_dev.c:166
    199a:	2a00      	cmp	r2, #0
    199c:	f040 812e 	bne.w	1bfc <usb_isr+0x7ec>
    19a0:	0402      	lsls	r2, r0, #16
    19a2:	f042 0288 	orr.w	r2, r2, #136	; 0x88
C:\toolchain\Teensyduino\current_fork\cores\teensy3/usb_dev.c:167
    19a6:	f89d 3004 	ldrb.w	r3, [sp, #4]
C:\toolchain\Teensyduino\current_fork\cores\teensy3/usb_dev.c:166
    19aa:	f84e 203c 	str.w	r2, [lr, ip, lsl #3]
usb_setup():
C:\toolchain\Teensyduino\current_fork\cores\teensy3/usb_dev.c:522
    19ae:	4404      	add	r4, r0
endpoint0_transmit():
C:\toolchain\Teensyduino\current_fork\cores\teensy3/usb_dev.c:167
    19b0:	7033      	strb	r3, [r6, #0]
C:\toolchain\Teensyduino\current_fork\cores\teensy3/usb_dev.c:168
    19b2:	700d      	strb	r5, [r1, #0]
usb_setup():
C:\toolchain\Teensyduino\current_fork\cores\teensy3/usb_dev.c:522
    19b4:	4623      	mov	r3, r4
C:\toolchain\Teensyduino\current_fork\cores\teensy3/usb_dev.c:524
    19b6:	2840      	cmp	r0, #64	; 0x40
    19b8:	d103      	bne.n	19c2 <usb_isr+0x5b2>
    19ba:	2000      	movs	r0, #0
C:\toolchain\Teensyduino\current_fork\cores\teensy3/usb_dev.c:527
    19bc:	4a1a      	ldr	r2, [pc, #104]	; (1a28 <usb_isr+0x618>)
C:\toolchain\Teensyduino\current_fork\cores\teensy3/usb_dev.c:526
    19be:	603b      	str	r3, [r7, #0]
C:\toolchain\Teensyduino\current_fork\cores\teensy3/usb_dev.c:527
    19c0:	8010      	strh	r0, [r2, #0]
usb_control():
C:\toolchain\Teensyduino\current_fork\cores\teensy3/usb_dev.c:610
    19c2:	4a1a      	ldr	r2, [pc, #104]	; (1a2c <usb_isr+0x61c>)
    19c4:	2301      	movs	r3, #1
    19c6:	7013      	strb	r3, [r2, #0]
    19c8:	e628      	b.n	161c <usb_isr+0x20c>
usb_isr():
C:\toolchain\Teensyduino\current_fork\cores\teensy3/usb_dev.c:1035
    19ca:	5d8b      	ldrb	r3, [r1, r6]
    19cc:	2b03      	cmp	r3, #3
    19ce:	f200 812d 	bhi.w	1c2c <usb_isr+0x81c>
    19d2:	a201      	add	r2, pc, #4	; (adr r2, 19d8 <usb_isr+0x5c8>)
    19d4:	f852 f023 	ldr.w	pc, [r2, r3, lsl #2]
    19d8:	000014a5 	.word	0x000014a5
    19dc:	000014a5 	.word	0x000014a5
    19e0:	00001b2f 	.word	0x00001b2f
    19e4:	00001b35 	.word	0x00001b35
    19e8:	1fff93cd 	.word	0x1fff93cd
    19ec:	1fff92fc 	.word	0x1fff92fc
    19f0:	1fff93d8 	.word	0x1fff93d8
    19f4:	1fff8000 	.word	0x1fff8000
    19f8:	1fff93b4 	.word	0x1fff93b4
    19fc:	1fff9350 	.word	0x1fff9350
    1a00:	1fff93a4 	.word	0x1fff93a4
    1a04:	1fff93dc 	.word	0x1fff93dc
    1a08:	1fff9448 	.word	0x1fff9448
    1a0c:	000035b0 	.word	0x000035b0
    1a10:	400720c4 	.word	0x400720c4
    1a14:	400720c8 	.word	0x400720c8
    1a18:	400720cc 	.word	0x400720cc
    1a1c:	400720d0 	.word	0x400720d0
    1a20:	1fff93cc 	.word	0x1fff93cc
    1a24:	1fff9360 	.word	0x1fff9360
    1a28:	1fff930c 	.word	0x1fff930c
    1a2c:	40072094 	.word	0x40072094
usb_control():
C:\toolchain\Teensyduino\current_fork\cores\teensy3/usb_dev.c:618
    1a30:	8892      	ldrh	r2, [r2, #4]
    1a32:	b992      	cbnz	r2, 1a5a <usb_isr+0x64a>
C:\toolchain\Teensyduino\current_fork\cores\teensy3/usb_dev.c:640
    1a34:	4ab1      	ldr	r2, [pc, #708]	; (1cfc <usb_isr+0x8ec>)
    1a36:	780d      	ldrb	r5, [r1, #0]
    1a38:	7848      	ldrb	r0, [r1, #1]
    1a3a:	7015      	strb	r5, [r2, #0]
    1a3c:	7050      	strb	r0, [r2, #1]
    1a3e:	788d      	ldrb	r5, [r1, #2]
    1a40:	78c8      	ldrb	r0, [r1, #3]
    1a42:	7095      	strb	r5, [r2, #2]
    1a44:	70d0      	strb	r0, [r2, #3]
C:\toolchain\Teensyduino\current_fork\cores\teensy3/usb_dev.c:644
    1a46:	6810      	ldr	r0, [r2, #0]
C:\toolchain\Teensyduino\current_fork\cores\teensy3/usb_dev.c:640
    1a48:	790d      	ldrb	r5, [r1, #4]
    1a4a:	7115      	strb	r5, [r2, #4]
C:\toolchain\Teensyduino\current_fork\cores\teensy3/usb_dev.c:644
    1a4c:	2886      	cmp	r0, #134	; 0x86
C:\toolchain\Teensyduino\current_fork\cores\teensy3/usb_dev.c:640
    1a4e:	794d      	ldrb	r5, [r1, #5]
    1a50:	7989      	ldrb	r1, [r1, #6]
    1a52:	7155      	strb	r5, [r2, #5]
    1a54:	7191      	strb	r1, [r2, #6]
C:\toolchain\Teensyduino\current_fork\cores\teensy3/usb_dev.c:644
    1a56:	f000 80a5 	beq.w	1ba4 <usb_isr+0x794>
endpoint0_transmit():
C:\toolchain\Teensyduino\current_fork\cores\teensy3/usb_dev.c:165
    1a5a:	49a9      	ldr	r1, [pc, #676]	; (1d00 <usb_isr+0x8f0>)
C:\toolchain\Teensyduino\current_fork\cores\teensy3/usb_dev.c:166
    1a5c:	4ea9      	ldr	r6, [pc, #676]	; (1d04 <usb_isr+0x8f4>)
C:\toolchain\Teensyduino\current_fork\cores\teensy3/usb_dev.c:165
    1a5e:	780a      	ldrb	r2, [r1, #0]
C:\toolchain\Teensyduino\current_fork\cores\teensy3/usb_dev.c:166
    1a60:	7830      	ldrb	r0, [r6, #0]
C:\toolchain\Teensyduino\current_fork\cores\teensy3/usb_dev.c:168
    1a62:	f082 0501 	eor.w	r5, r2, #1
C:\toolchain\Teensyduino\current_fork\cores\teensy3/usb_dev.c:166
    1a66:	2800      	cmp	r0, #0
C:\toolchain\Teensyduino\current_fork\cores\teensy3/usb_dev.c:165
    1a68:	f042 0202 	orr.w	r2, r2, #2
C:\toolchain\Teensyduino\current_fork\cores\teensy3/usb_dev.c:168
    1a6c:	700d      	strb	r5, [r1, #0]
C:\toolchain\Teensyduino\current_fork\cores\teensy3/usb_dev.c:166
    1a6e:	bf0c      	ite	eq
    1a70:	2188      	moveq	r1, #136	; 0x88
    1a72:	21c8      	movne	r1, #200	; 0xc8
    1a74:	f849 1032 	str.w	r1, [r9, r2, lsl #3]
C:\toolchain\Teensyduino\current_fork\cores\teensy3/usb_dev.c:165
    1a78:	eb09 02c2 	add.w	r2, r9, r2, lsl #3
C:\toolchain\Teensyduino\current_fork\cores\teensy3/usb_dev.c:167
    1a7c:	f080 0001 	eor.w	r0, r0, #1
C:\toolchain\Teensyduino\current_fork\cores\teensy3/usb_dev.c:165
    1a80:	2100      	movs	r1, #0
C:\toolchain\Teensyduino\current_fork\cores\teensy3/usb_dev.c:167
    1a82:	7030      	strb	r0, [r6, #0]
C:\toolchain\Teensyduino\current_fork\cores\teensy3/usb_dev.c:165
    1a84:	6051      	str	r1, [r2, #4]
    1a86:	e5d4      	b.n	1632 <usb_isr+0x222>
usb_setup():
C:\toolchain\Teensyduino\current_fork\cores\teensy3/usb_dev.c:184
    1a88:	f240 3202 	movw	r2, #770	; 0x302
    1a8c:	4291      	cmp	r1, r2
    1a8e:	f040 808d 	bne.w	1bac <usb_isr+0x79c>
    1a92:	88a9      	ldrh	r1, [r5, #4]
    1a94:	f001 017f 	and.w	r1, r1, #127	; 0x7f
C:\toolchain\Teensyduino\current_fork\cores\teensy3/usb_dev.c:309
    1a98:	2904      	cmp	r1, #4
    1a9a:	f200 8092 	bhi.w	1bc2 <usb_isr+0x7b2>
    1a9e:	886a      	ldrh	r2, [r5, #2]
    1aa0:	2a00      	cmp	r2, #0
    1aa2:	f040 808e 	bne.w	1bc2 <usb_isr+0x7b2>
C:\toolchain\Teensyduino\current_fork\cores\teensy3/usb_dev.c:314
    1aa6:	4898      	ldr	r0, [pc, #608]	; (1d08 <usb_isr+0x8f8>)
    1aa8:	f8cd e004 	str.w	lr, [sp, #4]
    1aac:	0089      	lsls	r1, r1, #2
    1aae:	4408      	add	r0, r1
    1ab0:	7801      	ldrb	r1, [r0, #0]
    1ab2:	f041 0102 	orr.w	r1, r1, #2
    1ab6:	7001      	strb	r1, [r0, #0]
    1ab8:	e741      	b.n	193e <usb_isr+0x52e>
C:\toolchain\Teensyduino\current_fork\cores\teensy3/usb_dev.c:184
    1aba:	f242 2021 	movw	r0, #8737	; 0x2221
    1abe:	4281      	cmp	r1, r0
    1ac0:	d17b      	bne.n	1bba <usb_isr+0x7aa>
C:\toolchain\Teensyduino\current_fork\cores\teensy3/usb_dev.c:357
    1ac2:	88a9      	ldrh	r1, [r5, #4]
    1ac4:	2900      	cmp	r1, #0
    1ac6:	f040 80e4 	bne.w	1c92 <usb_isr+0x882>
C:\toolchain\Teensyduino\current_fork\cores\teensy3/usb_dev.c:360
    1aca:	4b90      	ldr	r3, [pc, #576]	; (1d0c <usb_isr+0x8fc>)
    1acc:	4a90      	ldr	r2, [pc, #576]	; (1d10 <usb_isr+0x900>)
C:\toolchain\Teensyduino\current_fork\cores\teensy3/usb_dev.c:361
    1ace:	4891      	ldr	r0, [pc, #580]	; (1d14 <usb_isr+0x904>)
    1ad0:	78ac      	ldrb	r4, [r5, #2]
C:\toolchain\Teensyduino\current_fork\cores\teensy3/usb_dev.c:360
    1ad2:	681d      	ldr	r5, [r3, #0]
    1ad4:	6015      	str	r5, [r2, #0]
C:\toolchain\Teensyduino\current_fork\cores\teensy3/usb_dev.c:361
    1ad6:	f8cd e004 	str.w	lr, [sp, #4]
    1ada:	460a      	mov	r2, r1
    1adc:	7004      	strb	r4, [r0, #0]
    1ade:	e72e      	b.n	193e <usb_isr+0x52e>
usb_isr():
C:\toolchain\Teensyduino\current_fork\cores\teensy3/usb_dev.c:1108
    1ae0:	4b8d      	ldr	r3, [pc, #564]	; (1d18 <usb_isr+0x908>)
C:\toolchain\Teensyduino\current_fork\cores\teensy3/usb_dev.c:1104
    1ae2:	488e      	ldr	r0, [pc, #568]	; (1d1c <usb_isr+0x90c>)
C:\toolchain\Teensyduino\current_fork\cores\teensy3/usb_dev.c:1105
    1ae4:	4986      	ldr	r1, [pc, #536]	; (1d00 <usb_isr+0x8f0>)
C:\toolchain\Teensyduino\current_fork\cores\teensy3/usb_dev.c:1112
    1ae6:	611a      	str	r2, [r3, #16]
C:\toolchain\Teensyduino\current_fork\cores\teensy3/usb_dev.c:1104
    1ae8:	f04f 0e02 	mov.w	lr, #2
    1aec:	f880 e000 	strb.w	lr, [r0]
C:\toolchain\Teensyduino\current_fork\cores\teensy3/usb_dev.c:1116
    1af0:	4f85      	ldr	r7, [pc, #532]	; (1d08 <usb_isr+0x8f8>)
C:\toolchain\Teensyduino\current_fork\cores\teensy3/usb_dev.c:1105
    1af2:	700a      	strb	r2, [r1, #0]
C:\toolchain\Teensyduino\current_fork\cores\teensy3/usb_dev.c:1108
    1af4:	498a      	ldr	r1, [pc, #552]	; (1d20 <usb_isr+0x910>)
    1af6:	6019      	str	r1, [r3, #0]
C:\toolchain\Teensyduino\current_fork\cores\teensy3/usb_dev.c:1110
    1af8:	6099      	str	r1, [r3, #8]
C:\toolchain\Teensyduino\current_fork\cores\teensy3/usb_dev.c:1119
    1afa:	4e8a      	ldr	r6, [pc, #552]	; (1d24 <usb_isr+0x914>)
C:\toolchain\Teensyduino\current_fork\cores\teensy3/usb_dev.c:1120
    1afc:	4d8a      	ldr	r5, [pc, #552]	; (1d28 <usb_isr+0x918>)
C:\toolchain\Teensyduino\current_fork\cores\teensy3/usb_dev.c:1123
    1afe:	4c8b      	ldr	r4, [pc, #556]	; (1d2c <usb_isr+0x91c>)
C:\toolchain\Teensyduino\current_fork\cores\teensy3/usb_dev.c:1113
    1b00:	619a      	str	r2, [r3, #24]
C:\toolchain\Teensyduino\current_fork\cores\teensy3/usb_dev.c:1116
    1b02:	210d      	movs	r1, #13
    1b04:	7039      	strb	r1, [r7, #0]
C:\toolchain\Teensyduino\current_fork\cores\teensy3/usb_dev.c:1119
    1b06:	21ff      	movs	r1, #255	; 0xff
    1b08:	7031      	strb	r1, [r6, #0]
C:\toolchain\Teensyduino\current_fork\cores\teensy3/usb_dev.c:1126
    1b0a:	f8df e240 	ldr.w	lr, [pc, #576]	; 1d4c <usb_isr+0x93c>
C:\toolchain\Teensyduino\current_fork\cores\teensy3/usb_dev.c:1120
    1b0e:	7029      	strb	r1, [r5, #0]
C:\toolchain\Teensyduino\current_fork\cores\teensy3/usb_dev.c:1123
    1b10:	7022      	strb	r2, [r4, #0]
C:\toolchain\Teensyduino\current_fork\cores\teensy3/usb_dev.c:1109
    1b12:	4d87      	ldr	r5, [pc, #540]	; (1d30 <usb_isr+0x920>)
C:\toolchain\Teensyduino\current_fork\cores\teensy3/usb_dev.c:1111
    1b14:	4a87      	ldr	r2, [pc, #540]	; (1d34 <usb_isr+0x924>)
C:\toolchain\Teensyduino\current_fork\cores\teensy3/usb_dev.c:1126
    1b16:	f88e 1000 	strb.w	r1, [lr]
C:\toolchain\Teensyduino\current_fork\cores\teensy3/usb_dev.c:1127
    1b1a:	279f      	movs	r7, #159	; 0x9f
C:\toolchain\Teensyduino\current_fork\cores\teensy3/usb_dev.c:1135
    1b1c:	2401      	movs	r4, #1
C:\toolchain\Teensyduino\current_fork\cores\teensy3/usb_dev.c:1127
    1b1e:	f806 7c04 	strb.w	r7, [r6, #-4]
C:\toolchain\Teensyduino\current_fork\cores\teensy3/usb_dev.c:1109
    1b22:	605d      	str	r5, [r3, #4]
C:\toolchain\Teensyduino\current_fork\cores\teensy3/usb_dev.c:1135
    1b24:	7004      	strb	r4, [r0, #0]
C:\toolchain\Teensyduino\current_fork\cores\teensy3/usb_dev.c:1111
    1b26:	60da      	str	r2, [r3, #12]
C:\toolchain\Teensyduino\current_fork\cores\teensy3/usb_dev.c:1159
    1b28:	b007      	add	sp, #28
    1b2a:	e8bd 8ff0 	ldmia.w	sp!, {r4, r5, r6, r7, r8, r9, sl, fp, pc}
C:\toolchain\Teensyduino\current_fork\cores\teensy3/usb_dev.c:1040
    1b2e:	2300      	movs	r3, #0
    1b30:	558b      	strb	r3, [r1, r6]
C:\toolchain\Teensyduino\current_fork\cores\teensy3/usb_dev.c:1041
    1b32:	e4b7      	b.n	14a4 <usb_isr+0x94>
C:\toolchain\Teensyduino\current_fork\cores\teensy3/usb_dev.c:1043
    1b34:	2301      	movs	r3, #1
    1b36:	558b      	strb	r3, [r1, r6]
C:\toolchain\Teensyduino\current_fork\cores\teensy3/usb_dev.c:1044
    1b38:	e4b4      	b.n	14a4 <usb_isr+0x94>
usb_setup():
C:\toolchain\Teensyduino\current_fork\cores\teensy3/usb_dev.c:221
    1b3a:	f04f 0300 	mov.w	r3, #0
    1b3e:	f888 3000 	strb.w	r3, [r8]
    1b42:	e6b7      	b.n	18b4 <usb_isr+0x4a4>
usb_isr():
C:\toolchain\Teensyduino\current_fork\cores\teensy3/usb_dev.c:1142
    1b44:	4970      	ldr	r1, [pc, #448]	; (1d08 <usb_isr+0x8f8>)
C:\toolchain\Teensyduino\current_fork\cores\teensy3/usb_dev.c:1143
    1b46:	4b78      	ldr	r3, [pc, #480]	; (1d28 <usb_isr+0x918>)
    1b48:	2280      	movs	r2, #128	; 0x80
C:\toolchain\Teensyduino\current_fork\cores\teensy3/usb_dev.c:1142
    1b4a:	200d      	movs	r0, #13
    1b4c:	7008      	strb	r0, [r1, #0]
C:\toolchain\Teensyduino\current_fork\cores\teensy3/usb_dev.c:1143
    1b4e:	701a      	strb	r2, [r3, #0]
C:\toolchain\Teensyduino\current_fork\cores\teensy3/usb_dev.c:1145
    1b50:	07a2      	lsls	r2, r4, #30
    1b52:	f57f adb7 	bpl.w	16c4 <usb_isr+0x2b4>
    1b56:	e5ae      	b.n	16b6 <usb_isr+0x2a6>
usb_setup():
C:\toolchain\Teensyduino\current_fork\cores\teensy3/usb_dev.c:279
    1b58:	4c77      	ldr	r4, [pc, #476]	; (1d38 <usb_isr+0x928>)
C:\toolchain\Teensyduino\current_fork\cores\teensy3/usb_dev.c:281
    1b5a:	f04f 0e02 	mov.w	lr, #2
C:\toolchain\Teensyduino\current_fork\cores\teensy3/usb_dev.c:279
    1b5e:	7022      	strb	r2, [r4, #0]
C:\toolchain\Teensyduino\current_fork\cores\teensy3/usb_dev.c:280
    1b60:	7062      	strb	r2, [r4, #1]
C:\toolchain\Teensyduino\current_fork\cores\teensy3/usb_dev.c:511
    1b62:	88ea      	ldrh	r2, [r5, #6]
    1b64:	4572      	cmp	r2, lr
    1b66:	f080 81a3 	bcs.w	1eb0 <usb_isr+0xaa0>
endpoint0_transmit():
C:\toolchain\Teensyduino\current_fork\cores\teensy3/usb_dev.c:165
    1b6a:	4965      	ldr	r1, [pc, #404]	; (1d00 <usb_isr+0x8f0>)
    1b6c:	780d      	ldrb	r5, [r1, #0]
    1b6e:	2a40      	cmp	r2, #64	; 0x40
    1b70:	4694      	mov	ip, r2
    1b72:	f045 0e02 	orr.w	lr, r5, #2
    1b76:	bf28      	it	cs
    1b78:	f04f 0c40 	movcs.w	ip, #64	; 0x40
    1b7c:	eb04 030c 	add.w	r3, r4, ip
    1b80:	eb09 00ce 	add.w	r0, r9, lr, lsl #3
    1b84:	9302      	str	r3, [sp, #8]
    1b86:	2301      	movs	r3, #1
    1b88:	6044      	str	r4, [r0, #4]
    1b8a:	ea4f 480c 	mov.w	r8, ip, lsl #16
    1b8e:	ebcc 0002 	rsb	r0, ip, r2
    1b92:	9301      	str	r3, [sp, #4]
    1b94:	2200      	movs	r2, #0
C:\toolchain\Teensyduino\current_fork\cores\teensy3/usb_dev.c:166
    1b96:	24c8      	movs	r4, #200	; 0xc8
    1b98:	e6e4      	b.n	1964 <usb_isr+0x554>
usb_setup():
C:\toolchain\Teensyduino\current_fork\cores\teensy3/usb_dev.c:274
    1b9a:	4a68      	ldr	r2, [pc, #416]	; (1d3c <usb_isr+0x92c>)
    1b9c:	4c66      	ldr	r4, [pc, #408]	; (1d38 <usb_isr+0x928>)
    1b9e:	7812      	ldrb	r2, [r2, #0]
    1ba0:	7022      	strb	r2, [r4, #0]
    1ba2:	e7de      	b.n	1b62 <usb_isr+0x752>
usb_control():
C:\toolchain\Teensyduino\current_fork\cores\teensy3/usb_dev.c:644
    1ba4:	4a66      	ldr	r2, [pc, #408]	; (1d40 <usb_isr+0x930>)
    1ba6:	210f      	movs	r1, #15
    1ba8:	7011      	strb	r1, [r2, #0]
    1baa:	e756      	b.n	1a5a <usb_isr+0x64a>
usb_setup():
C:\toolchain\Teensyduino\current_fork\cores\teensy3/usb_dev.c:184
    1bac:	f5b1 6fa0 	cmp.w	r1, #1280	; 0x500
    1bb0:	d107      	bne.n	1bc2 <usb_isr+0x7b2>
    1bb2:	2301      	movs	r3, #1
    1bb4:	2200      	movs	r2, #0
    1bb6:	9301      	str	r3, [sp, #4]
    1bb8:	e6c1      	b.n	193e <usb_isr+0x52e>
    1bba:	f242 3221 	movw	r2, #8993	; 0x2321
    1bbe:	4291      	cmp	r1, r2
    1bc0:	d0f7      	beq.n	1bb2 <usb_isr+0x7a2>
endpoint0_stall():
C:\toolchain\Teensyduino\current_fork\cores\teensy3/usb_dev.c:151
    1bc2:	4a51      	ldr	r2, [pc, #324]	; (1d08 <usb_isr+0x8f8>)
    1bc4:	230f      	movs	r3, #15
    1bc6:	7013      	strb	r3, [r2, #0]
usb_control():
C:\toolchain\Teensyduino\current_fork\cores\teensy3/usb_dev.c:610
    1bc8:	4a54      	ldr	r2, [pc, #336]	; (1d1c <usb_isr+0x90c>)
    1bca:	2301      	movs	r3, #1
    1bcc:	7013      	strb	r3, [r2, #0]
    1bce:	e525      	b.n	161c <usb_isr+0x20c>
usb_setup():
C:\toolchain\Teensyduino\current_fork\cores\teensy3/usb_dev.c:520
    1bd0:	2840      	cmp	r0, #64	; 0x40
    1bd2:	f67f aeda 	bls.w	198a <usb_isr+0x57a>
endpoint0_transmit():
C:\toolchain\Teensyduino\current_fork\cores\teensy3/usb_dev.c:165
    1bd6:	f044 0402 	orr.w	r4, r4, #2
    1bda:	eb0e 01c4 	add.w	r1, lr, r4, lsl #3
    1bde:	9e02      	ldr	r6, [sp, #8]
    1be0:	604e      	str	r6, [r1, #4]
C:\toolchain\Teensyduino\current_fork\cores\teensy3/usb_dev.c:166
    1be2:	b1ba      	cbz	r2, 1c14 <usb_isr+0x804>
C:\toolchain\Teensyduino\current_fork\cores\teensy3/usb_dev.c:167
    1be4:	f89d 1004 	ldrb.w	r1, [sp, #4]
C:\toolchain\Teensyduino\current_fork\cores\teensy3/usb_dev.c:166
    1be8:	4a56      	ldr	r2, [pc, #344]	; (1d44 <usb_isr+0x934>)
C:\toolchain\Teensyduino\current_fork\cores\teensy3/usb_dev.c:167
    1bea:	7019      	strb	r1, [r3, #0]
usb_setup():
C:\toolchain\Teensyduino\current_fork\cores\teensy3/usb_dev.c:522
    1bec:	4633      	mov	r3, r6
    1bee:	3840      	subs	r0, #64	; 0x40
endpoint0_transmit():
C:\toolchain\Teensyduino\current_fork\cores\teensy3/usb_dev.c:168
    1bf0:	f888 5000 	strb.w	r5, [r8]
usb_setup():
C:\toolchain\Teensyduino\current_fork\cores\teensy3/usb_dev.c:522
    1bf4:	3340      	adds	r3, #64	; 0x40
endpoint0_transmit():
C:\toolchain\Teensyduino\current_fork\cores\teensy3/usb_dev.c:166
    1bf6:	f84e 2034 	str.w	r2, [lr, r4, lsl #3]
    1bfa:	e6df      	b.n	19bc <usb_isr+0x5ac>
C:\toolchain\Teensyduino\current_fork\cores\teensy3/usb_dev.c:167
    1bfc:	f89d 3004 	ldrb.w	r3, [sp, #4]
    1c00:	7033      	strb	r3, [r6, #0]
C:\toolchain\Teensyduino\current_fork\cores\teensy3/usb_dev.c:166
    1c02:	0402      	lsls	r2, r0, #16
usb_setup():
C:\toolchain\Teensyduino\current_fork\cores\teensy3/usb_dev.c:522
    1c04:	9b02      	ldr	r3, [sp, #8]
endpoint0_transmit():
C:\toolchain\Teensyduino\current_fork\cores\teensy3/usb_dev.c:168
    1c06:	700d      	strb	r5, [r1, #0]
C:\toolchain\Teensyduino\current_fork\cores\teensy3/usb_dev.c:166
    1c08:	f042 02c8 	orr.w	r2, r2, #200	; 0xc8
usb_setup():
C:\toolchain\Teensyduino\current_fork\cores\teensy3/usb_dev.c:522
    1c0c:	4403      	add	r3, r0
endpoint0_transmit():
C:\toolchain\Teensyduino\current_fork\cores\teensy3/usb_dev.c:166
    1c0e:	f84e 203c 	str.w	r2, [lr, ip, lsl #3]
    1c12:	e6d0      	b.n	19b6 <usb_isr+0x5a6>
C:\toolchain\Teensyduino\current_fork\cores\teensy3/usb_dev.c:167
    1c14:	f89d 1004 	ldrb.w	r1, [sp, #4]
    1c18:	7019      	strb	r1, [r3, #0]
usb_setup():
C:\toolchain\Teensyduino\current_fork\cores\teensy3/usb_dev.c:522
    1c1a:	9b02      	ldr	r3, [sp, #8]
endpoint0_transmit():
C:\toolchain\Teensyduino\current_fork\cores\teensy3/usb_dev.c:166
    1c1c:	4a40      	ldr	r2, [pc, #256]	; (1d20 <usb_isr+0x910>)
C:\toolchain\Teensyduino\current_fork\cores\teensy3/usb_dev.c:168
    1c1e:	f888 5000 	strb.w	r5, [r8]
    1c22:	3840      	subs	r0, #64	; 0x40
usb_setup():
C:\toolchain\Teensyduino\current_fork\cores\teensy3/usb_dev.c:522
    1c24:	3340      	adds	r3, #64	; 0x40
endpoint0_transmit():
C:\toolchain\Teensyduino\current_fork\cores\teensy3/usb_dev.c:166
    1c26:	f84e 2034 	str.w	r2, [lr, r4, lsl #3]
    1c2a:	e6c7      	b.n	19bc <usb_isr+0x5ac>
usb_isr():
C:\toolchain\Teensyduino\current_fork\cores\teensy3/usb_dev.c:1046
    1c2c:	f019 0f08 	tst.w	r9, #8
    1c30:	bf0c      	ite	eq
    1c32:	2302      	moveq	r3, #2
    1c34:	2303      	movne	r3, #3
    1c36:	558b      	strb	r3, [r1, r6]
C:\toolchain\Teensyduino\current_fork\cores\teensy3/usb_dev.c:1048
    1c38:	e434      	b.n	14a4 <usb_isr+0x94>
    1c3a:	88a9      	ldrh	r1, [r5, #4]
    1c3c:	f001 017f 	and.w	r1, r1, #127	; 0x7f
usb_setup():
C:\toolchain\Teensyduino\current_fork\cores\teensy3/usb_dev.c:299
    1c40:	2904      	cmp	r1, #4
    1c42:	d8be      	bhi.n	1bc2 <usb_isr+0x7b2>
    1c44:	886a      	ldrh	r2, [r5, #2]
    1c46:	2a00      	cmp	r2, #0
    1c48:	d1bb      	bne.n	1bc2 <usb_isr+0x7b2>
C:\toolchain\Teensyduino\current_fork\cores\teensy3/usb_dev.c:304
    1c4a:	482f      	ldr	r0, [pc, #188]	; (1d08 <usb_isr+0x8f8>)
    1c4c:	f8cd e004 	str.w	lr, [sp, #4]
    1c50:	0089      	lsls	r1, r1, #2
    1c52:	4408      	add	r0, r1
    1c54:	7801      	ldrb	r1, [r0, #0]
    1c56:	f021 0102 	bic.w	r1, r1, #2
    1c5a:	7001      	strb	r1, [r0, #0]
    1c5c:	e66f      	b.n	193e <usb_isr+0x52e>
C:\toolchain\Teensyduino\current_fork\cores\teensy3/usb_dev.c:323
    1c5e:	4a3a      	ldr	r2, [pc, #232]	; (1d48 <usb_isr+0x938>)
    1c60:	6854      	ldr	r4, [r2, #4]
    1c62:	2c00      	cmp	r4, #0
    1c64:	d0ad      	beq.n	1bc2 <usb_isr+0x7b2>
    1c66:	8868      	ldrh	r0, [r5, #2]
C:\toolchain\Teensyduino\current_fork\cores\teensy3/usb_dev.c:326
    1c68:	f8b5 e004 	ldrh.w	lr, [r5, #4]
    1c6c:	e003      	b.n	1c76 <usb_isr+0x866>
C:\toolchain\Teensyduino\current_fork\cores\teensy3/usb_dev.c:322
    1c6e:	320c      	adds	r2, #12
C:\toolchain\Teensyduino\current_fork\cores\teensy3/usb_dev.c:323
    1c70:	6854      	ldr	r4, [r2, #4]
    1c72:	2c00      	cmp	r4, #0
    1c74:	d0a5      	beq.n	1bc2 <usb_isr+0x7b2>
C:\toolchain\Teensyduino\current_fork\cores\teensy3/usb_dev.c:326
    1c76:	8813      	ldrh	r3, [r2, #0]
    1c78:	4283      	cmp	r3, r0
    1c7a:	d1f8      	bne.n	1c6e <usb_isr+0x85e>
    1c7c:	8853      	ldrh	r3, [r2, #2]
    1c7e:	4573      	cmp	r3, lr
    1c80:	d1f5      	bne.n	1c6e <usb_isr+0x85e>
C:\toolchain\Teensyduino\current_fork\cores\teensy3/usb_dev.c:328
    1c82:	0a00      	lsrs	r0, r0, #8
    1c84:	2803      	cmp	r0, #3
C:\toolchain\Teensyduino\current_fork\cores\teensy3/usb_dev.c:332
    1c86:	bf0c      	ite	eq
    1c88:	f894 e000 	ldrbeq.w	lr, [r4]
C:\toolchain\Teensyduino\current_fork\cores\teensy3/usb_dev.c:334
    1c8c:	f8b2 e008 	ldrhne.w	lr, [r2, #8]
    1c90:	e767      	b.n	1b62 <usb_isr+0x752>
C:\toolchain\Teensyduino\current_fork\cores\teensy3/usb_dev.c:357
    1c92:	f8cd e004 	str.w	lr, [sp, #4]
    1c96:	e652      	b.n	193e <usb_isr+0x52e>
C:\toolchain\Teensyduino\current_fork\cores\teensy3/usb_dev.c:295
    1c98:	f04f 0e02 	mov.w	lr, #2
    1c9c:	e761      	b.n	1b62 <usb_isr+0x752>
C:\toolchain\Teensyduino\current_fork\cores\teensy3/usb_dev.c:246
    1c9e:	f000 fba9 	bl	23f4 <usb_malloc>
C:\toolchain\Teensyduino\current_fork\cores\teensy3/usb_dev.c:247
    1ca2:	2800      	cmp	r0, #0
    1ca4:	f000 80f1 	beq.w	1e8a <usb_isr+0xa7a>
C:\toolchain\Teensyduino\current_fork\cores\teensy3/usb_dev.c:248
    1ca8:	3008      	adds	r0, #8
C:\toolchain\Teensyduino\current_fork\cores\teensy3/usb_dev.c:249
    1caa:	4a1d      	ldr	r2, [pc, #116]	; (1d20 <usb_isr+0x910>)
C:\toolchain\Teensyduino\current_fork\cores\teensy3/usb_dev.c:248
    1cac:	f8c4 0084 	str.w	r0, [r4, #132]	; 0x84
C:\toolchain\Teensyduino\current_fork\cores\teensy3/usb_dev.c:249
    1cb0:	f8c4 2080 	str.w	r2, [r4, #128]	; 0x80
C:\toolchain\Teensyduino\current_fork\cores\teensy3/usb_dev.c:254
    1cb4:	f000 fb9e 	bl	23f4 <usb_malloc>
C:\toolchain\Teensyduino\current_fork\cores\teensy3/usb_dev.c:255
    1cb8:	2800      	cmp	r0, #0
    1cba:	f000 80e0 	beq.w	1e7e <usb_isr+0xa6e>
C:\toolchain\Teensyduino\current_fork\cores\teensy3/usb_dev.c:256
    1cbe:	3008      	adds	r0, #8
C:\toolchain\Teensyduino\current_fork\cores\teensy3/usb_dev.c:257
    1cc0:	4a20      	ldr	r2, [pc, #128]	; (1d44 <usb_isr+0x934>)
C:\toolchain\Teensyduino\current_fork\cores\teensy3/usb_dev.c:256
    1cc2:	f8c9 008c 	str.w	r0, [r9, #140]	; 0x8c
C:\toolchain\Teensyduino\current_fork\cores\teensy3/usb_dev.c:257
    1cc6:	f8c9 2088 	str.w	r2, [r9, #136]	; 0x88
    1cca:	e62f      	b.n	192c <usb_isr+0x51c>
C:\toolchain\Teensyduino\current_fork\cores\teensy3/usb_dev.c:246
    1ccc:	f000 fb92 	bl	23f4 <usb_malloc>
C:\toolchain\Teensyduino\current_fork\cores\teensy3/usb_dev.c:247
    1cd0:	2800      	cmp	r0, #0
    1cd2:	f000 80e6 	beq.w	1ea2 <usb_isr+0xa92>
C:\toolchain\Teensyduino\current_fork\cores\teensy3/usb_dev.c:248
    1cd6:	3008      	adds	r0, #8
C:\toolchain\Teensyduino\current_fork\cores\teensy3/usb_dev.c:249
    1cd8:	4a11      	ldr	r2, [pc, #68]	; (1d20 <usb_isr+0x910>)
C:\toolchain\Teensyduino\current_fork\cores\teensy3/usb_dev.c:248
    1cda:	f8c8 0064 	str.w	r0, [r8, #100]	; 0x64
C:\toolchain\Teensyduino\current_fork\cores\teensy3/usb_dev.c:249
    1cde:	f8c8 2060 	str.w	r2, [r8, #96]	; 0x60
C:\toolchain\Teensyduino\current_fork\cores\teensy3/usb_dev.c:254
    1ce2:	f000 fb87 	bl	23f4 <usb_malloc>
C:\toolchain\Teensyduino\current_fork\cores\teensy3/usb_dev.c:255
    1ce6:	2800      	cmp	r0, #0
    1ce8:	f000 80d5 	beq.w	1e96 <usb_isr+0xa86>
C:\toolchain\Teensyduino\current_fork\cores\teensy3/usb_dev.c:256
    1cec:	3008      	adds	r0, #8
C:\toolchain\Teensyduino\current_fork\cores\teensy3/usb_dev.c:257
    1cee:	4a15      	ldr	r2, [pc, #84]	; (1d44 <usb_isr+0x934>)
C:\toolchain\Teensyduino\current_fork\cores\teensy3/usb_dev.c:256
    1cf0:	f8c9 006c 	str.w	r0, [r9, #108]	; 0x6c
C:\toolchain\Teensyduino\current_fork\cores\teensy3/usb_dev.c:257
    1cf4:	f8c9 2068 	str.w	r2, [r9, #104]	; 0x68
    1cf8:	e60c      	b.n	1914 <usb_isr+0x504>
    1cfa:	bf00      	nop
    1cfc:	1fff9450 	.word	0x1fff9450
    1d00:	1fff93cc 	.word	0x1fff93cc
    1d04:	1fff9360 	.word	0x1fff9360
    1d08:	400720c0 	.word	0x400720c0
    1d0c:	1fff92f4 	.word	0x1fff92f4
    1d10:	1fff9458 	.word	0x1fff9458
    1d14:	1fff9410 	.word	0x1fff9410
    1d18:	1fff8000 	.word	0x1fff8000
    1d1c:	40072094 	.word	0x40072094
    1d20:	00400088 	.word	0x00400088
    1d24:	40072088 	.word	0x40072088
    1d28:	40072080 	.word	0x40072080
    1d2c:	40072098 	.word	0x40072098
    1d30:	1fff9310 	.word	0x1fff9310
    1d34:	1fff9364 	.word	0x1fff9364
    1d38:	1fff93d0 	.word	0x1fff93d0
    1d3c:	1fff93d8 	.word	0x1fff93d8
    1d40:	1fff9361 	.word	0x1fff9361
    1d44:	004000c8 	.word	0x004000c8
    1d48:	000035b4 	.word	0x000035b4
    1d4c:	4007208c 	.word	0x4007208c
C:\toolchain\Teensyduino\current_fork\cores\teensy3/usb_dev.c:246
    1d50:	f000 fb50 	bl	23f4 <usb_malloc>
C:\toolchain\Teensyduino\current_fork\cores\teensy3/usb_dev.c:247
    1d54:	2800      	cmp	r0, #0
    1d56:	f000 808c 	beq.w	1e72 <usb_isr+0xa62>
C:\toolchain\Teensyduino\current_fork\cores\teensy3/usb_dev.c:248
    1d5a:	3008      	adds	r0, #8
C:\toolchain\Teensyduino\current_fork\cores\teensy3/usb_dev.c:249
    1d5c:	4a5d      	ldr	r2, [pc, #372]	; (1ed4 <usb_isr+0xac4>)
C:\toolchain\Teensyduino\current_fork\cores\teensy3/usb_dev.c:248
    1d5e:	f8c8 0044 	str.w	r0, [r8, #68]	; 0x44
C:\toolchain\Teensyduino\current_fork\cores\teensy3/usb_dev.c:249
    1d62:	f8c8 2040 	str.w	r2, [r8, #64]	; 0x40
C:\toolchain\Teensyduino\current_fork\cores\teensy3/usb_dev.c:254
    1d66:	f000 fb45 	bl	23f4 <usb_malloc>
C:\toolchain\Teensyduino\current_fork\cores\teensy3/usb_dev.c:255
    1d6a:	2800      	cmp	r0, #0
    1d6c:	d07b      	beq.n	1e66 <usb_isr+0xa56>
C:\toolchain\Teensyduino\current_fork\cores\teensy3/usb_dev.c:256
    1d6e:	3008      	adds	r0, #8
C:\toolchain\Teensyduino\current_fork\cores\teensy3/usb_dev.c:257
    1d70:	4a59      	ldr	r2, [pc, #356]	; (1ed8 <usb_isr+0xac8>)
C:\toolchain\Teensyduino\current_fork\cores\teensy3/usb_dev.c:256
    1d72:	f8c9 004c 	str.w	r0, [r9, #76]	; 0x4c
C:\toolchain\Teensyduino\current_fork\cores\teensy3/usb_dev.c:257
    1d76:	f8c9 2048 	str.w	r2, [r9, #72]	; 0x48
    1d7a:	e5be      	b.n	18fa <usb_isr+0x4ea>
C:\toolchain\Teensyduino\current_fork\cores\teensy3/usb_dev.c:246
    1d7c:	f000 fb3a 	bl	23f4 <usb_malloc>
C:\toolchain\Teensyduino\current_fork\cores\teensy3/usb_dev.c:247
    1d80:	2800      	cmp	r0, #0
    1d82:	d06a      	beq.n	1e5a <usb_isr+0xa4a>
C:\toolchain\Teensyduino\current_fork\cores\teensy3/usb_dev.c:248
    1d84:	3008      	adds	r0, #8
C:\toolchain\Teensyduino\current_fork\cores\teensy3/usb_dev.c:249
    1d86:	4a53      	ldr	r2, [pc, #332]	; (1ed4 <usb_isr+0xac4>)
C:\toolchain\Teensyduino\current_fork\cores\teensy3/usb_dev.c:248
    1d88:	f8c9 0024 	str.w	r0, [r9, #36]	; 0x24
C:\toolchain\Teensyduino\current_fork\cores\teensy3/usb_dev.c:249
    1d8c:	f8c9 2020 	str.w	r2, [r9, #32]
C:\toolchain\Teensyduino\current_fork\cores\teensy3/usb_dev.c:254
    1d90:	f000 fb30 	bl	23f4 <usb_malloc>
C:\toolchain\Teensyduino\current_fork\cores\teensy3/usb_dev.c:255
    1d94:	2800      	cmp	r0, #0
    1d96:	d05a      	beq.n	1e4e <usb_isr+0xa3e>
C:\toolchain\Teensyduino\current_fork\cores\teensy3/usb_dev.c:256
    1d98:	3008      	adds	r0, #8
C:\toolchain\Teensyduino\current_fork\cores\teensy3/usb_dev.c:257
    1d9a:	4a4f      	ldr	r2, [pc, #316]	; (1ed8 <usb_isr+0xac8>)
C:\toolchain\Teensyduino\current_fork\cores\teensy3/usb_dev.c:256
    1d9c:	f8c9 002c 	str.w	r0, [r9, #44]	; 0x2c
C:\toolchain\Teensyduino\current_fork\cores\teensy3/usb_dev.c:257
    1da0:	f8c9 2028 	str.w	r2, [r9, #40]	; 0x28
    1da4:	e59b      	b.n	18de <usb_isr+0x4ce>
C:\toolchain\Teensyduino\current_fork\cores\teensy3/usb_dev.c:195
    1da6:	f8d1 009c 	ldr.w	r0, [r1, #156]	; 0x9c
    1daa:	3808      	subs	r0, #8
    1dac:	f000 fb42 	bl	2434 <usb_free>
    1db0:	e53d      	b.n	182e <usb_isr+0x41e>
    1db2:	f8d1 0094 	ldr.w	r0, [r1, #148]	; 0x94
    1db6:	3808      	subs	r0, #8
    1db8:	f000 fb3c 	bl	2434 <usb_free>
    1dbc:	e531      	b.n	1822 <usb_isr+0x412>
    1dbe:	6dc8      	ldr	r0, [r1, #92]	; 0x5c
    1dc0:	3808      	subs	r0, #8
    1dc2:	f000 fb37 	bl	2434 <usb_free>
    1dc6:	e502      	b.n	17ce <usb_isr+0x3be>
    1dc8:	6d48      	ldr	r0, [r1, #84]	; 0x54
    1dca:	3808      	subs	r0, #8
    1dcc:	f000 fb32 	bl	2434 <usb_free>
    1dd0:	e4f7      	b.n	17c2 <usb_isr+0x3b2>
    1dd2:	6cc8      	ldr	r0, [r1, #76]	; 0x4c
    1dd4:	3808      	subs	r0, #8
    1dd6:	f000 fb2d 	bl	2434 <usb_free>
    1dda:	e4ec      	b.n	17b6 <usb_isr+0x3a6>
    1ddc:	6c48      	ldr	r0, [r1, #68]	; 0x44
    1dde:	3808      	subs	r0, #8
    1de0:	f000 fb28 	bl	2434 <usb_free>
    1de4:	e4e1      	b.n	17aa <usb_isr+0x39a>
    1de6:	6bc8      	ldr	r0, [r1, #60]	; 0x3c
    1de8:	3808      	subs	r0, #8
    1dea:	f000 fb23 	bl	2434 <usb_free>
    1dee:	e4d6      	b.n	179e <usb_isr+0x38e>
    1df0:	6b48      	ldr	r0, [r1, #52]	; 0x34
    1df2:	3808      	subs	r0, #8
    1df4:	f000 fb1e 	bl	2434 <usb_free>
    1df8:	e4cb      	b.n	1792 <usb_isr+0x382>
    1dfa:	6ac8      	ldr	r0, [r1, #44]	; 0x2c
    1dfc:	3808      	subs	r0, #8
    1dfe:	f000 fb19 	bl	2434 <usb_free>
    1e02:	e4c0      	b.n	1786 <usb_isr+0x376>
    1e04:	6a60      	ldr	r0, [r4, #36]	; 0x24
    1e06:	3808      	subs	r0, #8
    1e08:	f000 fb14 	bl	2434 <usb_free>
    1e0c:	e4b5      	b.n	177a <usb_isr+0x36a>
    1e0e:	6fc8      	ldr	r0, [r1, #124]	; 0x7c
    1e10:	3808      	subs	r0, #8
    1e12:	f000 fb0f 	bl	2434 <usb_free>
    1e16:	e4f2      	b.n	17fe <usb_isr+0x3ee>
    1e18:	6f48      	ldr	r0, [r1, #116]	; 0x74
    1e1a:	3808      	subs	r0, #8
    1e1c:	f000 fb0a 	bl	2434 <usb_free>
    1e20:	e4e7      	b.n	17f2 <usb_isr+0x3e2>
    1e22:	6ec8      	ldr	r0, [r1, #108]	; 0x6c
    1e24:	3808      	subs	r0, #8
    1e26:	f000 fb05 	bl	2434 <usb_free>
    1e2a:	e4dc      	b.n	17e6 <usb_isr+0x3d6>
    1e2c:	6e48      	ldr	r0, [r1, #100]	; 0x64
    1e2e:	3808      	subs	r0, #8
    1e30:	f000 fb00 	bl	2434 <usb_free>
    1e34:	e4d1      	b.n	17da <usb_isr+0x3ca>
    1e36:	f8d1 008c 	ldr.w	r0, [r1, #140]	; 0x8c
    1e3a:	3808      	subs	r0, #8
    1e3c:	f000 fafa 	bl	2434 <usb_free>
    1e40:	e4e9      	b.n	1816 <usb_isr+0x406>
    1e42:	f8d1 0084 	ldr.w	r0, [r1, #132]	; 0x84
    1e46:	3808      	subs	r0, #8
    1e48:	f000 faf4 	bl	2434 <usb_free>
    1e4c:	e4dd      	b.n	180a <usb_isr+0x3fa>
C:\toolchain\Teensyduino\current_fork\cores\teensy3/usb_dev.c:260
    1e4e:	782a      	ldrb	r2, [r5, #0]
C:\toolchain\Teensyduino\current_fork\cores\teensy3/usb_dev.c:259
    1e50:	f8c9 0028 	str.w	r0, [r9, #40]	; 0x28
C:\toolchain\Teensyduino\current_fork\cores\teensy3/usb_dev.c:260
    1e54:	3201      	adds	r2, #1
    1e56:	702a      	strb	r2, [r5, #0]
    1e58:	e541      	b.n	18de <usb_isr+0x4ce>
C:\toolchain\Teensyduino\current_fork\cores\teensy3/usb_dev.c:252
    1e5a:	782a      	ldrb	r2, [r5, #0]
C:\toolchain\Teensyduino\current_fork\cores\teensy3/usb_dev.c:251
    1e5c:	f8c9 0020 	str.w	r0, [r9, #32]
C:\toolchain\Teensyduino\current_fork\cores\teensy3/usb_dev.c:252
    1e60:	3201      	adds	r2, #1
    1e62:	702a      	strb	r2, [r5, #0]
    1e64:	e794      	b.n	1d90 <usb_isr+0x980>
C:\toolchain\Teensyduino\current_fork\cores\teensy3/usb_dev.c:260
    1e66:	782a      	ldrb	r2, [r5, #0]
C:\toolchain\Teensyduino\current_fork\cores\teensy3/usb_dev.c:259
    1e68:	f8c9 0048 	str.w	r0, [r9, #72]	; 0x48
C:\toolchain\Teensyduino\current_fork\cores\teensy3/usb_dev.c:260
    1e6c:	3201      	adds	r2, #1
    1e6e:	702a      	strb	r2, [r5, #0]
    1e70:	e543      	b.n	18fa <usb_isr+0x4ea>
C:\toolchain\Teensyduino\current_fork\cores\teensy3/usb_dev.c:252
    1e72:	782a      	ldrb	r2, [r5, #0]
C:\toolchain\Teensyduino\current_fork\cores\teensy3/usb_dev.c:251
    1e74:	f8c8 0040 	str.w	r0, [r8, #64]	; 0x40
C:\toolchain\Teensyduino\current_fork\cores\teensy3/usb_dev.c:252
    1e78:	3201      	adds	r2, #1
    1e7a:	702a      	strb	r2, [r5, #0]
    1e7c:	e773      	b.n	1d66 <usb_isr+0x956>
C:\toolchain\Teensyduino\current_fork\cores\teensy3/usb_dev.c:260
    1e7e:	782a      	ldrb	r2, [r5, #0]
C:\toolchain\Teensyduino\current_fork\cores\teensy3/usb_dev.c:259
    1e80:	f8c9 0088 	str.w	r0, [r9, #136]	; 0x88
C:\toolchain\Teensyduino\current_fork\cores\teensy3/usb_dev.c:260
    1e84:	3201      	adds	r2, #1
    1e86:	702a      	strb	r2, [r5, #0]
    1e88:	e550      	b.n	192c <usb_isr+0x51c>
C:\toolchain\Teensyduino\current_fork\cores\teensy3/usb_dev.c:252
    1e8a:	782a      	ldrb	r2, [r5, #0]
C:\toolchain\Teensyduino\current_fork\cores\teensy3/usb_dev.c:251
    1e8c:	f8c4 0080 	str.w	r0, [r4, #128]	; 0x80
C:\toolchain\Teensyduino\current_fork\cores\teensy3/usb_dev.c:252
    1e90:	3201      	adds	r2, #1
    1e92:	702a      	strb	r2, [r5, #0]
    1e94:	e70e      	b.n	1cb4 <usb_isr+0x8a4>
C:\toolchain\Teensyduino\current_fork\cores\teensy3/usb_dev.c:260
    1e96:	782a      	ldrb	r2, [r5, #0]
C:\toolchain\Teensyduino\current_fork\cores\teensy3/usb_dev.c:259
    1e98:	f8c9 0068 	str.w	r0, [r9, #104]	; 0x68
C:\toolchain\Teensyduino\current_fork\cores\teensy3/usb_dev.c:260
    1e9c:	3201      	adds	r2, #1
    1e9e:	702a      	strb	r2, [r5, #0]
    1ea0:	e538      	b.n	1914 <usb_isr+0x504>
C:\toolchain\Teensyduino\current_fork\cores\teensy3/usb_dev.c:252
    1ea2:	782a      	ldrb	r2, [r5, #0]
C:\toolchain\Teensyduino\current_fork\cores\teensy3/usb_dev.c:251
    1ea4:	f8c8 0060 	str.w	r0, [r8, #96]	; 0x60
C:\toolchain\Teensyduino\current_fork\cores\teensy3/usb_dev.c:252
    1ea8:	3201      	adds	r2, #1
    1eaa:	702a      	strb	r2, [r5, #0]
    1eac:	e719      	b.n	1ce2 <usb_isr+0x8d2>
_reboot_Teensyduino_():
C:\toolchain\Teensyduino\current_fork\cores\teensy3/usb_dev.c:897
    1eae:	be00      	bkpt	0x0000
    1eb0:	f1be 0f40 	cmp.w	lr, #64	; 0x40
    1eb4:	46f4      	mov	ip, lr
    1eb6:	bf28      	it	cs
    1eb8:	f04f 0c40 	movcs.w	ip, #64	; 0x40
    1ebc:	eb04 030c 	add.w	r3, r4, ip
    1ec0:	9302      	str	r3, [sp, #8]
usb_setup():
C:\toolchain\Teensyduino\current_fork\cores\teensy3/usb_dev.c:511
    1ec2:	2301      	movs	r3, #1
    1ec4:	ebcc 000e 	rsb	r0, ip, lr
    1ec8:	ea4f 480c 	mov.w	r8, ip, lsl #16
    1ecc:	2200      	movs	r2, #0
    1ece:	9301      	str	r3, [sp, #4]
    1ed0:	e53a      	b.n	1948 <usb_isr+0x538>
    1ed2:	bf00      	nop
    1ed4:	00400088 	.word	0x00400088
    1ed8:	004000c8 	.word	0x004000c8

00001edc <usb_init>:
usb_init():
C:\toolchain\Teensyduino\current_fork\cores\teensy3/usb_dev.c:1164
    1edc:	e92d 43f8 	stmdb	sp!, {r3, r4, r5, r6, r7, r8, r9, lr}
    1ee0:	4c20      	ldr	r4, [pc, #128]	; (1f64 <usb_init+0x88>)
C:\toolchain\Teensyduino\current_fork\cores\teensy3/usb_dev.c:1170
    1ee2:	f000 fa1f 	bl	2324 <usb_init_serialnumber>
C:\toolchain\Teensyduino\current_fork\cores\teensy3/usb_dev.c:1173
    1ee6:	2200      	movs	r2, #0
    1ee8:	f104 00a0 	add.w	r0, r4, #160	; 0xa0
C:\toolchain\Teensyduino\current_fork\cores\teensy3/usb_dev.c:1170
    1eec:	4623      	mov	r3, r4
C:\toolchain\Teensyduino\current_fork\cores\teensy3/usb_dev.c:1173 (discriminator 3)
    1eee:	601a      	str	r2, [r3, #0]
C:\toolchain\Teensyduino\current_fork\cores\teensy3/usb_dev.c:1174 (discriminator 3)
    1ef0:	605a      	str	r2, [r3, #4]
    1ef2:	3308      	adds	r3, #8
C:\toolchain\Teensyduino\current_fork\cores\teensy3/usb_dev.c:1172 (discriminator 3)
    1ef4:	4283      	cmp	r3, r0
C:\toolchain\Teensyduino\current_fork\cores\teensy3/usb_dev.c:1173 (discriminator 3)
    1ef6:	f04f 0100 	mov.w	r1, #0
C:\toolchain\Teensyduino\current_fork\cores\teensy3/usb_dev.c:1172 (discriminator 3)
    1efa:	d1f8      	bne.n	1eee <usb_init+0x12>
C:\toolchain\Teensyduino\current_fork\cores\teensy3/usb_dev.c:1182
    1efc:	4a1a      	ldr	r2, [pc, #104]	; (1f68 <usb_init+0x8c>)
C:\toolchain\Teensyduino\current_fork\cores\teensy3/usb_dev.c:1197
    1efe:	4f1b      	ldr	r7, [pc, #108]	; (1f6c <usb_init+0x90>)
C:\toolchain\Teensyduino\current_fork\cores\teensy3/usb_dev.c:1182
    1f00:	6813      	ldr	r3, [r2, #0]
C:\toolchain\Teensyduino\current_fork\cores\teensy3/usb_dev.c:1198
    1f02:	4d1b      	ldr	r5, [pc, #108]	; (1f70 <usb_init+0x94>)
C:\toolchain\Teensyduino\current_fork\cores\teensy3/usb_dev.c:1199
    1f04:	481b      	ldr	r0, [pc, #108]	; (1f74 <usb_init+0x98>)
C:\toolchain\Teensyduino\current_fork\cores\teensy3/usb_dev.c:1204
    1f06:	4e1c      	ldr	r6, [pc, #112]	; (1f78 <usb_init+0x9c>)
C:\toolchain\Teensyduino\current_fork\cores\teensy3/usb_dev.c:1202
    1f08:	f8df 8078 	ldr.w	r8, [pc, #120]	; 1f84 <usb_init+0xa8>
C:\toolchain\Teensyduino\current_fork\cores\teensy3/usb_dev.c:1203
    1f0c:	f8df c078 	ldr.w	ip, [pc, #120]	; 1f88 <usb_init+0xac>
C:\toolchain\Teensyduino\current_fork\cores\teensy3/usb_dev.c:1209
    1f10:	f8df 9078 	ldr.w	r9, [pc, #120]	; 1f8c <usb_init+0xb0>
C:\toolchain\Teensyduino\current_fork\cores\teensy3/usb_dev.c:1210
    1f14:	f8df e078 	ldr.w	lr, [pc, #120]	; 1f90 <usb_init+0xb4>
C:\toolchain\Teensyduino\current_fork\cores\teensy3/usb_dev.c:1182
    1f18:	f443 2380 	orr.w	r3, r3, #262144	; 0x40000
    1f1c:	6013      	str	r3, [r2, #0]
C:\toolchain\Teensyduino\current_fork\cores\teensy3/usb_dev.c:1197
    1f1e:	f3c4 2307 	ubfx	r3, r4, #8, #8
    1f22:	703b      	strb	r3, [r7, #0]
C:\toolchain\Teensyduino\current_fork\cores\teensy3/usb_dev.c:1198
    1f24:	f3c4 4307 	ubfx	r3, r4, #16, #8
    1f28:	702b      	strb	r3, [r5, #0]
C:\toolchain\Teensyduino\current_fork\cores\teensy3/usb_dev.c:1199
    1f2a:	0e24      	lsrs	r4, r4, #24
C:\toolchain\Teensyduino\current_fork\cores\teensy3/usb_dev.c:1202
    1f2c:	23ff      	movs	r3, #255	; 0xff
C:\toolchain\Teensyduino\current_fork\cores\teensy3/usb_dev.c:1220
    1f2e:	f502 3228 	add.w	r2, r2, #172032	; 0x2a000
C:\toolchain\Teensyduino\current_fork\cores\teensy3/usb_dev.c:1199
    1f32:	7004      	strb	r4, [r0, #0]
C:\toolchain\Teensyduino\current_fork\cores\teensy3/usb_dev.c:1216
    1f34:	4d11      	ldr	r5, [pc, #68]	; (1f7c <usb_init+0xa0>)
C:\toolchain\Teensyduino\current_fork\cores\teensy3/usb_dev.c:1202
    1f36:	f888 3000 	strb.w	r3, [r8]
C:\toolchain\Teensyduino\current_fork\cores\teensy3/usb_dev.c:1217
    1f3a:	4811      	ldr	r0, [pc, #68]	; (1f80 <usb_init+0xa4>)
C:\toolchain\Teensyduino\current_fork\cores\teensy3/usb_dev.c:1203
    1f3c:	f88c 3000 	strb.w	r3, [ip]
C:\toolchain\Teensyduino\current_fork\cores\teensy3/usb_dev.c:1220
    1f40:	32d4      	adds	r2, #212	; 0xd4
C:\toolchain\Teensyduino\current_fork\cores\teensy3/usb_dev.c:1204
    1f42:	7033      	strb	r3, [r6, #0]
C:\toolchain\Teensyduino\current_fork\cores\teensy3/usb_dev.c:1209
    1f44:	2301      	movs	r3, #1
    1f46:	f889 3000 	strb.w	r3, [r9]
C:\toolchain\Teensyduino\current_fork\cores\teensy3/usb_dev.c:1216
    1f4a:	2670      	movs	r6, #112	; 0x70
C:\toolchain\Teensyduino\current_fork\cores\teensy3/usb_dev.c:1210
    1f4c:	f88e 1000 	strb.w	r1, [lr]
C:\toolchain\Teensyduino\current_fork\cores\teensy3/usb_dev.c:1217
    1f50:	f44f 7400 	mov.w	r4, #512	; 0x200
C:\toolchain\Teensyduino\current_fork\cores\teensy3/usb_dev.c:1220
    1f54:	2110      	movs	r1, #16
C:\toolchain\Teensyduino\current_fork\cores\teensy3/usb_dev.c:1213
    1f56:	f807 3c18 	strb.w	r3, [r7, #-24]
C:\toolchain\Teensyduino\current_fork\cores\teensy3/usb_dev.c:1216
    1f5a:	702e      	strb	r6, [r5, #0]
C:\toolchain\Teensyduino\current_fork\cores\teensy3/usb_dev.c:1217
    1f5c:	6004      	str	r4, [r0, #0]
C:\toolchain\Teensyduino\current_fork\cores\teensy3/usb_dev.c:1220
    1f5e:	7011      	strb	r1, [r2, #0]
    1f60:	e8bd 83f8 	ldmia.w	sp!, {r3, r4, r5, r6, r7, r8, r9, pc}
    1f64:	1fff8000 	.word	0x1fff8000
    1f68:	40048034 	.word	0x40048034
    1f6c:	4007209c 	.word	0x4007209c
    1f70:	400720b0 	.word	0x400720b0
    1f74:	400720b4 	.word	0x400720b4
    1f78:	40072010 	.word	0x40072010
    1f7c:	e000e449 	.word	0xe000e449
    1f80:	e000e108 	.word	0xe000e108
    1f84:	40072080 	.word	0x40072080
    1f88:	40072088 	.word	0x40072088
    1f8c:	40072094 	.word	0x40072094
    1f90:	40072100 	.word	0x40072100

00001f94 <yield>:
yield():
C:\toolchain\Teensyduino\current_fork\cores\teensy3/yield.cpp:51
    1f94:	e92d 43f8 	stmdb	sp!, {r3, r4, r5, r6, r7, r8, r9, lr}
C:\toolchain\Teensyduino\current_fork\cores\teensy3/yield.cpp:53
    1f98:	4e31      	ldr	r6, [pc, #196]	; (2060 <yield+0xcc>)
    1f9a:	7833      	ldrb	r3, [r6, #0]
    1f9c:	b193      	cbz	r3, 1fc4 <yield+0x30>
C:\toolchain\Teensyduino\current_fork\cores\teensy3/yield.cpp:54
    1f9e:	4f31      	ldr	r7, [pc, #196]	; (2064 <yield+0xd0>)
    1fa0:	783a      	ldrb	r2, [r7, #0]
    1fa2:	b97a      	cbnz	r2, 1fc4 <yield+0x30>
C:\toolchain\Teensyduino\current_fork\cores\teensy3/yield.cpp:55
    1fa4:	2201      	movs	r2, #1
C:\toolchain\Teensyduino\current_fork\cores\teensy3/yield.cpp:59
    1fa6:	07d9      	lsls	r1, r3, #31
C:\toolchain\Teensyduino\current_fork\cores\teensy3/yield.cpp:55
    1fa8:	703a      	strb	r2, [r7, #0]
C:\toolchain\Teensyduino\current_fork\cores\teensy3/yield.cpp:59
    1faa:	d436      	bmi.n	201a <yield+0x86>
C:\toolchain\Teensyduino\current_fork\cores\teensy3/yield.cpp:77
    1fac:	079a      	lsls	r2, r3, #30
    1fae:	d419      	bmi.n	1fe4 <yield+0x50>
C:\toolchain\Teensyduino\current_fork\cores\teensy3/yield.cpp:80
    1fb0:	2200      	movs	r2, #0
C:\toolchain\Teensyduino\current_fork\cores\teensy3/yield.cpp:81
    1fb2:	075b      	lsls	r3, r3, #29
C:\toolchain\Teensyduino\current_fork\cores\teensy3/yield.cpp:80
    1fb4:	703a      	strb	r2, [r7, #0]
C:\toolchain\Teensyduino\current_fork\cores\teensy3/yield.cpp:81
    1fb6:	d505      	bpl.n	1fc4 <yield+0x30>
_ZN14EventResponder12runFromYieldEv():
C:\toolchain\Teensyduino\current_fork\cores\teensy3/EventResponder.h:177
    1fb8:	4b2b      	ldr	r3, [pc, #172]	; (2068 <yield+0xd4>)
    1fba:	681a      	ldr	r2, [r3, #0]
    1fbc:	b112      	cbz	r2, 1fc4 <yield+0x30>
C:\toolchain\Teensyduino\current_fork\cores\teensy3/EventResponder.h:181
    1fbe:	f3ef 8205 	mrs	r2, IPSR
C:\toolchain\Teensyduino\current_fork\cores\teensy3/EventResponder.h:182
    1fc2:	b10a      	cbz	r2, 1fc8 <yield+0x34>
    1fc4:	e8bd 83f8 	ldmia.w	sp!, {r3, r4, r5, r6, r7, r8, r9, pc}
_ZN14EventResponder17disableInterruptsEv():
C:\toolchain\Teensyduino\current_fork\cores\teensy3/EventResponder.h:231
    1fc8:	f3ef 8110 	mrs	r1, PRIMASK
C:\toolchain\Teensyduino\current_fork\cores\teensy3/EventResponder.h:232
    1fcc:	b672      	cpsid	i
_ZN14EventResponder12runFromYieldEv():
C:\toolchain\Teensyduino\current_fork\cores\teensy3/EventResponder.h:185
    1fce:	6818      	ldr	r0, [r3, #0]
C:\toolchain\Teensyduino\current_fork\cores\teensy3/EventResponder.h:186
    1fd0:	b118      	cbz	r0, 1fda <yield+0x46>
C:\toolchain\Teensyduino\current_fork\cores\teensy3/EventResponder.h:193
    1fd2:	4c26      	ldr	r4, [pc, #152]	; (206c <yield+0xd8>)
    1fd4:	7822      	ldrb	r2, [r4, #0]
    1fd6:	2a00      	cmp	r2, #0
    1fd8:	d02e      	beq.n	2038 <yield+0xa4>
_ZN14EventResponder16enableInterruptsEb():
C:\toolchain\Teensyduino\current_fork\cores\teensy3/EventResponder.h:236
    1fda:	2900      	cmp	r1, #0
    1fdc:	d1f2      	bne.n	1fc4 <yield+0x30>
    1fde:	b662      	cpsie	i
    1fe0:	e8bd 83f8 	ldmia.w	sp!, {r3, r4, r5, r6, r7, r8, r9, pc}
_ZN14HardwareSerial23processSerialEventsListEv():
C:\toolchain\Teensyduino\current_fork\cores\teensy3/HardwareSerial.h:317
    1fe4:	f8df 8090 	ldr.w	r8, [pc, #144]	; 2078 <yield+0xe4>
    1fe8:	f898 2000 	ldrb.w	r2, [r8]
    1fec:	2a00      	cmp	r2, #0
    1fee:	d0df      	beq.n	1fb0 <yield+0x1c>
    1ff0:	f8df 9088 	ldr.w	r9, [pc, #136]	; 207c <yield+0xe8>
    1ff4:	2400      	movs	r4, #0
    1ff6:	e005      	b.n	2004 <yield+0x70>
    1ff8:	3401      	adds	r4, #1
    1ffa:	f898 3000 	ldrb.w	r3, [r8]
    1ffe:	b2e4      	uxtb	r4, r4
    2000:	42a3      	cmp	r3, r4
    2002:	d912      	bls.n	202a <yield+0x96>
C:\toolchain\Teensyduino\current_fork\cores\teensy3/HardwareSerial.h:318
    2004:	f859 5024 	ldr.w	r5, [r9, r4, lsl #2]
_ZN14HardwareSerial11doYieldCodeEv():
C:\toolchain\Teensyduino\current_fork\cores\teensy3/HardwareSerial.h:327
    2008:	682b      	ldr	r3, [r5, #0]
    200a:	4628      	mov	r0, r5
    200c:	691b      	ldr	r3, [r3, #16]
    200e:	4798      	blx	r3
    2010:	2800      	cmp	r0, #0
    2012:	d0f1      	beq.n	1ff8 <yield+0x64>
    2014:	692b      	ldr	r3, [r5, #16]
    2016:	4798      	blx	r3
    2018:	e7ee      	b.n	1ff8 <yield+0x64>
_ZN16usb_serial_class9availableEv():
C:\toolchain\Teensyduino\current_fork\cores\teensy3/usb_serial.h:92
    201a:	f000 f8e1 	bl	21e0 <usb_serial_available>
yield():
C:\toolchain\Teensyduino\current_fork\cores\teensy3/yield.cpp:60
    201e:	b9c8      	cbnz	r0, 2054 <yield+0xc0>
C:\toolchain\Teensyduino\current_fork\cores\teensy3/yield.cpp:61
    2020:	4b13      	ldr	r3, [pc, #76]	; (2070 <yield+0xdc>)
    2022:	781b      	ldrb	r3, [r3, #0]
    2024:	b91b      	cbnz	r3, 202e <yield+0x9a>
    2026:	7833      	ldrb	r3, [r6, #0]
    2028:	e7c0      	b.n	1fac <yield+0x18>
    202a:	7833      	ldrb	r3, [r6, #0]
    202c:	e7c0      	b.n	1fb0 <yield+0x1c>
C:\toolchain\Teensyduino\current_fork\cores\teensy3/yield.cpp:61 (discriminator 1)
    202e:	7833      	ldrb	r3, [r6, #0]
    2030:	f003 03fe 	and.w	r3, r3, #254	; 0xfe
    2034:	7033      	strb	r3, [r6, #0]
    2036:	e7b9      	b.n	1fac <yield+0x18>
_ZN14EventResponder12runFromYieldEv():
C:\toolchain\Teensyduino\current_fork\cores\teensy3/EventResponder.h:199
    2038:	6945      	ldr	r5, [r0, #20]
    203a:	601d      	str	r5, [r3, #0]
C:\toolchain\Teensyduino\current_fork\cores\teensy3/EventResponder.h:198
    203c:	2301      	movs	r3, #1
    203e:	7023      	strb	r3, [r4, #0]
C:\toolchain\Teensyduino\current_fork\cores\teensy3/EventResponder.h:200
    2040:	b15d      	cbz	r5, 205a <yield+0xc6>
C:\toolchain\Teensyduino\current_fork\cores\teensy3/EventResponder.h:201
    2042:	61aa      	str	r2, [r5, #24]
_ZN14EventResponder16enableInterruptsEb():
C:\toolchain\Teensyduino\current_fork\cores\teensy3/EventResponder.h:236
    2044:	b901      	cbnz	r1, 2048 <yield+0xb4>
    2046:	b662      	cpsie	i
_ZN14EventResponder12runFromYieldEv():
C:\toolchain\Teensyduino\current_fork\cores\teensy3/EventResponder.h:206
    2048:	2500      	movs	r5, #0
    204a:	7745      	strb	r5, [r0, #29]
C:\toolchain\Teensyduino\current_fork\cores\teensy3/EventResponder.h:207
    204c:	6883      	ldr	r3, [r0, #8]
    204e:	4798      	blx	r3
C:\toolchain\Teensyduino\current_fork\cores\teensy3/EventResponder.h:208
    2050:	7025      	strb	r5, [r4, #0]
    2052:	e7b7      	b.n	1fc4 <yield+0x30>
yield():
C:\toolchain\Teensyduino\current_fork\cores\teensy3/yield.cpp:60 (discriminator 1)
    2054:	f000 f8be 	bl	21d4 <serialEvent()>
    2058:	e7e2      	b.n	2020 <yield+0x8c>
_ZN14EventResponder12runFromYieldEv():
C:\toolchain\Teensyduino\current_fork\cores\teensy3/EventResponder.h:203
    205a:	4b06      	ldr	r3, [pc, #24]	; (2074 <yield+0xe0>)
    205c:	601d      	str	r5, [r3, #0]
    205e:	e7f1      	b.n	2044 <yield+0xb0>
    2060:	1fff87d8 	.word	0x1fff87d8
    2064:	1fff93e0 	.word	0x1fff93e0
    2068:	1fff93f0 	.word	0x1fff93f0
    206c:	1fff93f4 	.word	0x1fff93f4
    2070:	1fff87d9 	.word	0x1fff87d9
    2074:	1fff93ec 	.word	0x1fff93ec
    2078:	1fff9404 	.word	0x1fff9404
    207c:	1fff93f8 	.word	0x1fff93f8

00002080 <EventResponder::triggerEventNotImmediate()>:
_ZN14EventResponder24triggerEventNotImmediateEv():
C:\toolchain\Teensyduino\current_fork\cores\teensy3/EventResponder.cpp:50
    2080:	b410      	push	{r4}
_ZN14EventResponder17disableInterruptsEv():
C:\toolchain\Teensyduino\current_fork\cores\teensy3/EventResponder.h:231
    2082:	f3ef 8210 	mrs	r2, PRIMASK
C:\toolchain\Teensyduino\current_fork\cores\teensy3/EventResponder.h:232
    2086:	b672      	cpsid	i
_ZN14EventResponder24triggerEventNotImmediateEv():
C:\toolchain\Teensyduino\current_fork\cores\teensy3/EventResponder.cpp:52
    2088:	7f43      	ldrb	r3, [r0, #29]
    208a:	b933      	cbnz	r3, 209a <EventResponder::triggerEventNotImmediate()+0x1a>
C:\toolchain\Teensyduino\current_fork\cores\teensy3/EventResponder.cpp:54
    208c:	7f01      	ldrb	r1, [r0, #28]
    208e:	2901      	cmp	r1, #1
    2090:	d007      	beq.n	20a2 <EventResponder::triggerEventNotImmediate()+0x22>
C:\toolchain\Teensyduino\current_fork\cores\teensy3/EventResponder.cpp:67
    2092:	2903      	cmp	r1, #3
    2094:	d00f      	beq.n	20b6 <EventResponder::triggerEventNotImmediate()+0x36>
C:\toolchain\Teensyduino\current_fork\cores\teensy3/EventResponder.cpp:84
    2096:	2301      	movs	r3, #1
    2098:	7743      	strb	r3, [r0, #29]
_ZN14EventResponder16enableInterruptsEb():
C:\toolchain\Teensyduino\current_fork\cores\teensy3/EventResponder.h:236
    209a:	b902      	cbnz	r2, 209e <EventResponder::triggerEventNotImmediate()+0x1e>
    209c:	b662      	cpsie	i
_ZN14EventResponder24triggerEventNotImmediateEv():
C:\toolchain\Teensyduino\current_fork\cores\teensy3/EventResponder.cpp:87
    209e:	bc10      	pop	{r4}
    20a0:	4770      	bx	lr
C:\toolchain\Teensyduino\current_fork\cores\teensy3/EventResponder.cpp:56
    20a2:	4c12      	ldr	r4, [pc, #72]	; (20ec <EventResponder::triggerEventNotImmediate()+0x6c>)
    20a4:	6821      	ldr	r1, [r4, #0]
    20a6:	b1a1      	cbz	r1, 20d2 <EventResponder::triggerEventNotImmediate()+0x52>
C:\toolchain\Teensyduino\current_fork\cores\teensy3/EventResponder.cpp:63
    20a8:	4911      	ldr	r1, [pc, #68]	; (20f0 <EventResponder::triggerEventNotImmediate()+0x70>)
C:\toolchain\Teensyduino\current_fork\cores\teensy3/EventResponder.cpp:62
    20aa:	6143      	str	r3, [r0, #20]
C:\toolchain\Teensyduino\current_fork\cores\teensy3/EventResponder.cpp:63
    20ac:	680b      	ldr	r3, [r1, #0]
    20ae:	6183      	str	r3, [r0, #24]
C:\toolchain\Teensyduino\current_fork\cores\teensy3/EventResponder.cpp:65
    20b0:	6008      	str	r0, [r1, #0]
C:\toolchain\Teensyduino\current_fork\cores\teensy3/EventResponder.cpp:64
    20b2:	6158      	str	r0, [r3, #20]
    20b4:	e7ef      	b.n	2096 <EventResponder::triggerEventNotImmediate()+0x16>
C:\toolchain\Teensyduino\current_fork\cores\teensy3/EventResponder.cpp:69
    20b6:	4c0f      	ldr	r4, [pc, #60]	; (20f4 <EventResponder::triggerEventNotImmediate()+0x74>)
    20b8:	6821      	ldr	r1, [r4, #0]
    20ba:	b181      	cbz	r1, 20de <EventResponder::triggerEventNotImmediate()+0x5e>
C:\toolchain\Teensyduino\current_fork\cores\teensy3/EventResponder.cpp:76
    20bc:	490e      	ldr	r1, [pc, #56]	; (20f8 <EventResponder::triggerEventNotImmediate()+0x78>)
C:\toolchain\Teensyduino\current_fork\cores\teensy3/EventResponder.cpp:75
    20be:	6143      	str	r3, [r0, #20]
C:\toolchain\Teensyduino\current_fork\cores\teensy3/EventResponder.cpp:76
    20c0:	680b      	ldr	r3, [r1, #0]
    20c2:	6183      	str	r3, [r0, #24]
C:\toolchain\Teensyduino\current_fork\cores\teensy3/EventResponder.cpp:78
    20c4:	6008      	str	r0, [r1, #0]
C:\toolchain\Teensyduino\current_fork\cores\teensy3/EventResponder.cpp:77
    20c6:	6158      	str	r0, [r3, #20]
C:\toolchain\Teensyduino\current_fork\cores\teensy3/EventResponder.cpp:80
    20c8:	4b0c      	ldr	r3, [pc, #48]	; (20fc <EventResponder::triggerEventNotImmediate()+0x7c>)
    20ca:	f04f 5180 	mov.w	r1, #268435456	; 0x10000000
    20ce:	6019      	str	r1, [r3, #0]
    20d0:	e7e1      	b.n	2096 <EventResponder::triggerEventNotImmediate()+0x16>
C:\toolchain\Teensyduino\current_fork\cores\teensy3/EventResponder.cpp:60
    20d2:	4b07      	ldr	r3, [pc, #28]	; (20f0 <EventResponder::triggerEventNotImmediate()+0x70>)
C:\toolchain\Teensyduino\current_fork\cores\teensy3/EventResponder.cpp:57
    20d4:	6141      	str	r1, [r0, #20]
C:\toolchain\Teensyduino\current_fork\cores\teensy3/EventResponder.cpp:58
    20d6:	6181      	str	r1, [r0, #24]
C:\toolchain\Teensyduino\current_fork\cores\teensy3/EventResponder.cpp:59
    20d8:	6020      	str	r0, [r4, #0]
C:\toolchain\Teensyduino\current_fork\cores\teensy3/EventResponder.cpp:60
    20da:	6018      	str	r0, [r3, #0]
    20dc:	e7db      	b.n	2096 <EventResponder::triggerEventNotImmediate()+0x16>
C:\toolchain\Teensyduino\current_fork\cores\teensy3/EventResponder.cpp:73
    20de:	4b06      	ldr	r3, [pc, #24]	; (20f8 <EventResponder::triggerEventNotImmediate()+0x78>)
C:\toolchain\Teensyduino\current_fork\cores\teensy3/EventResponder.cpp:70
    20e0:	6141      	str	r1, [r0, #20]
C:\toolchain\Teensyduino\current_fork\cores\teensy3/EventResponder.cpp:71
    20e2:	6181      	str	r1, [r0, #24]
C:\toolchain\Teensyduino\current_fork\cores\teensy3/EventResponder.cpp:72
    20e4:	6020      	str	r0, [r4, #0]
C:\toolchain\Teensyduino\current_fork\cores\teensy3/EventResponder.cpp:73
    20e6:	6018      	str	r0, [r3, #0]
    20e8:	e7ee      	b.n	20c8 <EventResponder::triggerEventNotImmediate()+0x48>
    20ea:	bf00      	nop
    20ec:	1fff93f0 	.word	0x1fff93f0
    20f0:	1fff93ec 	.word	0x1fff93ec
    20f4:	1fff93e4 	.word	0x1fff93e4
    20f8:	1fff93e8 	.word	0x1fff93e8
    20fc:	e000ed04 	.word	0xe000ed04

00002100 <EventResponder::runFromInterrupt()>:
_ZN14EventResponder16runFromInterruptEv():
C:\toolchain\Teensyduino\current_fork\cores\teensy3/EventResponder.cpp:95
    2100:	b570      	push	{r4, r5, r6, lr}
_ZN14EventResponder17disableInterruptsEv():
C:\toolchain\Teensyduino\current_fork\cores\teensy3/EventResponder.h:231
    2102:	f3ef 8210 	mrs	r2, PRIMASK
C:\toolchain\Teensyduino\current_fork\cores\teensy3/EventResponder.h:232
    2106:	b672      	cpsid	i
_ZN14EventResponder16runFromInterruptEv():
C:\toolchain\Teensyduino\current_fork\cores\teensy3/EventResponder.cpp:98
    2108:	4c0c      	ldr	r4, [pc, #48]	; (213c <EventResponder::runFromInterrupt()+0x3c>)
    210a:	6820      	ldr	r0, [r4, #0]
C:\toolchain\Teensyduino\current_fork\cores\teensy3/EventResponder.cpp:99
    210c:	b180      	cbz	r0, 2130 <EventResponder::runFromInterrupt()+0x30>
C:\toolchain\Teensyduino\current_fork\cores\teensy3/EventResponder.cpp:104
    210e:	4e0c      	ldr	r6, [pc, #48]	; (2140 <EventResponder::runFromInterrupt()+0x40>)
C:\toolchain\Teensyduino\current_fork\cores\teensy3/EventResponder.cpp:102
    2110:	2500      	movs	r5, #0
C:\toolchain\Teensyduino\current_fork\cores\teensy3/EventResponder.cpp:100
    2112:	6943      	ldr	r3, [r0, #20]
    2114:	6023      	str	r3, [r4, #0]
C:\toolchain\Teensyduino\current_fork\cores\teensy3/EventResponder.cpp:101
    2116:	b173      	cbz	r3, 2136 <EventResponder::runFromInterrupt()+0x36>
C:\toolchain\Teensyduino\current_fork\cores\teensy3/EventResponder.cpp:102
    2118:	619d      	str	r5, [r3, #24]
_ZN14EventResponder16enableInterruptsEb():
C:\toolchain\Teensyduino\current_fork\cores\teensy3/EventResponder.h:236
    211a:	b902      	cbnz	r2, 211e <EventResponder::runFromInterrupt()+0x1e>
    211c:	b662      	cpsie	i
_ZN14EventResponder16runFromInterruptEv():
C:\toolchain\Teensyduino\current_fork\cores\teensy3/EventResponder.cpp:107
    211e:	7745      	strb	r5, [r0, #29]
C:\toolchain\Teensyduino\current_fork\cores\teensy3/EventResponder.cpp:108
    2120:	6883      	ldr	r3, [r0, #8]
    2122:	4798      	blx	r3
_ZN14EventResponder17disableInterruptsEv():
C:\toolchain\Teensyduino\current_fork\cores\teensy3/EventResponder.h:231
    2124:	f3ef 8210 	mrs	r2, PRIMASK
C:\toolchain\Teensyduino\current_fork\cores\teensy3/EventResponder.h:232
    2128:	b672      	cpsid	i
_ZN14EventResponder16runFromInterruptEv():
C:\toolchain\Teensyduino\current_fork\cores\teensy3/EventResponder.cpp:98
    212a:	6820      	ldr	r0, [r4, #0]
C:\toolchain\Teensyduino\current_fork\cores\teensy3/EventResponder.cpp:99
    212c:	2800      	cmp	r0, #0
    212e:	d1f0      	bne.n	2112 <EventResponder::runFromInterrupt()+0x12>
_ZN14EventResponder16enableInterruptsEb():
C:\toolchain\Teensyduino\current_fork\cores\teensy3/EventResponder.h:236
    2130:	b902      	cbnz	r2, 2134 <EventResponder::runFromInterrupt()+0x34>
    2132:	b662      	cpsie	i
    2134:	bd70      	pop	{r4, r5, r6, pc}
_ZN14EventResponder16runFromInterruptEv():
C:\toolchain\Teensyduino\current_fork\cores\teensy3/EventResponder.cpp:104
    2136:	6033      	str	r3, [r6, #0]
    2138:	e7ef      	b.n	211a <EventResponder::runFromInterrupt()+0x1a>
    213a:	bf00      	nop
    213c:	1fff93e4 	.word	0x1fff93e4
    2140:	1fff93e8 	.word	0x1fff93e8

00002144 <pendablesrvreq_isr>:
pendablesrvreq_isr():
C:\toolchain\Teensyduino\current_fork\cores\teensy3/EventResponder.cpp:91
    2144:	f7ff bfdc 	b.w	2100 <EventResponder::runFromInterrupt()>

00002148 <EventResponder::detachNoInterrupts()>:
_ZN14EventResponder18detachNoInterruptsEv():
C:\toolchain\Teensyduino\current_fork\cores\teensy3/EventResponder.cpp:154
    2148:	7f03      	ldrb	r3, [r0, #28]
    214a:	2b01      	cmp	r3, #1
    214c:	d00f      	beq.n	216e <EventResponder::detachNoInterrupts()+0x26>
C:\toolchain\Teensyduino\current_fork\cores\teensy3/EventResponder.cpp:168
    214e:	2b03      	cmp	r3, #3
    2150:	d000      	beq.n	2154 <EventResponder::detachNoInterrupts()+0xc>
    2152:	4770      	bx	lr
C:\toolchain\Teensyduino\current_fork\cores\teensy3/EventResponder.cpp:169
    2154:	7f43      	ldrb	r3, [r0, #29]
    2156:	b13b      	cbz	r3, 2168 <EventResponder::detachNoInterrupts()+0x20>
C:\toolchain\Teensyduino\current_fork\cores\teensy3/EventResponder.cpp:170
    2158:	6983      	ldr	r3, [r0, #24]
    215a:	b1e3      	cbz	r3, 2196 <EventResponder::detachNoInterrupts()+0x4e>
C:\toolchain\Teensyduino\current_fork\cores\teensy3/EventResponder.cpp:171
    215c:	6942      	ldr	r2, [r0, #20]
    215e:	615a      	str	r2, [r3, #20]
    2160:	6942      	ldr	r2, [r0, #20]
C:\toolchain\Teensyduino\current_fork\cores\teensy3/EventResponder.cpp:175
    2162:	b96a      	cbnz	r2, 2180 <EventResponder::detachNoInterrupts()+0x38>
C:\toolchain\Teensyduino\current_fork\cores\teensy3/EventResponder.cpp:178
    2164:	4a0f      	ldr	r2, [pc, #60]	; (21a4 <EventResponder::detachNoInterrupts()+0x5c>)
    2166:	6013      	str	r3, [r2, #0]
C:\toolchain\Teensyduino\current_fork\cores\teensy3/EventResponder.cpp:167
    2168:	2300      	movs	r3, #0
    216a:	7703      	strb	r3, [r0, #28]
    216c:	4770      	bx	lr
C:\toolchain\Teensyduino\current_fork\cores\teensy3/EventResponder.cpp:155
    216e:	7f43      	ldrb	r3, [r0, #29]
    2170:	2b00      	cmp	r3, #0
    2172:	d0f9      	beq.n	2168 <EventResponder::detachNoInterrupts()+0x20>
C:\toolchain\Teensyduino\current_fork\cores\teensy3/EventResponder.cpp:156
    2174:	6983      	ldr	r3, [r0, #24]
    2176:	b153      	cbz	r3, 218e <EventResponder::detachNoInterrupts()+0x46>
C:\toolchain\Teensyduino\current_fork\cores\teensy3/EventResponder.cpp:157
    2178:	6942      	ldr	r2, [r0, #20]
    217a:	615a      	str	r2, [r3, #20]
    217c:	6942      	ldr	r2, [r0, #20]
C:\toolchain\Teensyduino\current_fork\cores\teensy3/EventResponder.cpp:161
    217e:	b11a      	cbz	r2, 2188 <EventResponder::detachNoInterrupts()+0x40>
C:\toolchain\Teensyduino\current_fork\cores\teensy3/EventResponder.cpp:176
    2180:	6193      	str	r3, [r2, #24]
C:\toolchain\Teensyduino\current_fork\cores\teensy3/EventResponder.cpp:167
    2182:	2300      	movs	r3, #0
    2184:	7703      	strb	r3, [r0, #28]
    2186:	4770      	bx	lr
C:\toolchain\Teensyduino\current_fork\cores\teensy3/EventResponder.cpp:164
    2188:	4a07      	ldr	r2, [pc, #28]	; (21a8 <EventResponder::detachNoInterrupts()+0x60>)
    218a:	6013      	str	r3, [r2, #0]
    218c:	e7ec      	b.n	2168 <EventResponder::detachNoInterrupts()+0x20>
C:\toolchain\Teensyduino\current_fork\cores\teensy3/EventResponder.cpp:159
    218e:	4907      	ldr	r1, [pc, #28]	; (21ac <EventResponder::detachNoInterrupts()+0x64>)
    2190:	6942      	ldr	r2, [r0, #20]
    2192:	600a      	str	r2, [r1, #0]
    2194:	e7f3      	b.n	217e <EventResponder::detachNoInterrupts()+0x36>
C:\toolchain\Teensyduino\current_fork\cores\teensy3/EventResponder.cpp:173
    2196:	4906      	ldr	r1, [pc, #24]	; (21b0 <EventResponder::detachNoInterrupts()+0x68>)
    2198:	6942      	ldr	r2, [r0, #20]
    219a:	600a      	str	r2, [r1, #0]
C:\toolchain\Teensyduino\current_fork\cores\teensy3/EventResponder.cpp:175
    219c:	2a00      	cmp	r2, #0
    219e:	d1ef      	bne.n	2180 <EventResponder::detachNoInterrupts()+0x38>
    21a0:	e7e0      	b.n	2164 <EventResponder::detachNoInterrupts()+0x1c>
    21a2:	bf00      	nop
    21a4:	1fff93e8 	.word	0x1fff93e8
    21a8:	1fff93ec 	.word	0x1fff93ec
    21ac:	1fff93f0 	.word	0x1fff93f0
    21b0:	1fff93e4 	.word	0x1fff93e4

000021b4 <systick_isr>:
systick_isr():
C:\toolchain\Teensyduino\current_fork\cores\teensy3/EventResponder.cpp:345
    21b4:	4a02      	ldr	r2, [pc, #8]	; (21c0 <systick_isr+0xc>)
    21b6:	6813      	ldr	r3, [r2, #0]
    21b8:	3301      	adds	r3, #1
    21ba:	6013      	str	r3, [r2, #0]
    21bc:	4770      	bx	lr
    21be:	bf00      	nop
    21c0:	1fff92f4 	.word	0x1fff92f4

000021c4 <main>:
main():
C:\toolchain\Teensyduino\current_fork\cores\teensy3/main.cpp:34
    21c4:	b508      	push	{r3, lr}
C:\toolchain\Teensyduino\current_fork\cores\teensy3/main.cpp:51
    21c6:	f7fe f95d 	bl	484 <setup>
C:\toolchain\Teensyduino\current_fork\cores\teensy3/main.cpp:53 (discriminator 1)
    21ca:	f7fe f9c5 	bl	558 <loop>
C:\toolchain\Teensyduino\current_fork\cores\teensy3/main.cpp:54 (discriminator 1)
    21ce:	f7ff fee1 	bl	1f94 <yield>
    21d2:	e7fa      	b.n	21ca <main+0x6>

000021d4 <serialEvent()>:
_Z11serialEventv():
C:\toolchain\Teensyduino\current_fork\cores\teensy3/serialEvent.cpp:4
    21d4:	4770      	bx	lr
    21d6:	bf00      	nop

000021d8 <operator new(unsigned int)>:
_Znwj():
    21d8:	f000 bc80 	b.w	2adc <malloc>

000021dc <operator delete(void*, unsigned int)>:
_ZdlPvj():
    21dc:	f000 bc86 	b.w	2aec <free>

000021e0 <usb_serial_available>:
usb_serial_available():
C:\toolchain\Teensyduino\current_fork\cores\teensy3/usb_serial.c:91
    21e0:	4b04      	ldr	r3, [pc, #16]	; (21f4 <usb_serial_available+0x14>)
usb_rx_byte_count():
C:\toolchain\Teensyduino\current_fork\cores\teensy3/usb_dev.h:67
    21e2:	4a05      	ldr	r2, [pc, #20]	; (21f8 <usb_serial_available+0x18>)
usb_serial_available():
C:\toolchain\Teensyduino\current_fork\cores\teensy3/usb_serial.c:91
    21e4:	681b      	ldr	r3, [r3, #0]
C:\toolchain\Teensyduino\current_fork\cores\teensy3/usb_serial.c:90
    21e6:	8890      	ldrh	r0, [r2, #4]
C:\toolchain\Teensyduino\current_fork\cores\teensy3/usb_serial.c:91
    21e8:	b11b      	cbz	r3, 21f2 <usb_serial_available+0x12>
C:\toolchain\Teensyduino\current_fork\cores\teensy3/usb_serial.c:91 (discriminator 1)
    21ea:	881a      	ldrh	r2, [r3, #0]
    21ec:	885b      	ldrh	r3, [r3, #2]
    21ee:	1ad3      	subs	r3, r2, r3
    21f0:	4418      	add	r0, r3
C:\toolchain\Teensyduino\current_fork\cores\teensy3/usb_serial.c:93
    21f2:	4770      	bx	lr
    21f4:	1fff940c 	.word	0x1fff940c
    21f8:	1fff9448 	.word	0x1fff9448

000021fc <usb_serial_flush_callback>:
usb_serial_flush_callback():
C:\toolchain\Teensyduino\current_fork\cores\teensy3/usb_serial.c:286
    21fc:	b538      	push	{r3, r4, r5, lr}
C:\toolchain\Teensyduino\current_fork\cores\teensy3/usb_serial.c:287
    21fe:	4b0e      	ldr	r3, [pc, #56]	; (2238 <usb_serial_flush_callback+0x3c>)
    2200:	781b      	ldrb	r3, [r3, #0]
    2202:	b973      	cbnz	r3, 2222 <usb_serial_flush_callback+0x26>
C:\toolchain\Teensyduino\current_fork\cores\teensy3/usb_serial.c:288
    2204:	4c0d      	ldr	r4, [pc, #52]	; (223c <usb_serial_flush_callback+0x40>)
    2206:	6821      	ldr	r1, [r4, #0]
    2208:	b161      	cbz	r1, 2224 <usb_serial_flush_callback+0x28>
    220a:	f003 05ff 	and.w	r5, r3, #255	; 0xff
C:\toolchain\Teensyduino\current_fork\cores\teensy3/usb_serial.c:289
    220e:	884b      	ldrh	r3, [r1, #2]
    2210:	800b      	strh	r3, [r1, #0]
C:\toolchain\Teensyduino\current_fork\cores\teensy3/usb_serial.c:290
    2212:	2004      	movs	r0, #4
    2214:	f7ff f8ba 	bl	138c <usb_tx>
C:\toolchain\Teensyduino\current_fork\cores\teensy3/usb_serial.c:291
    2218:	6025      	str	r5, [r4, #0]
    221a:	bd38      	pop	{r3, r4, r5, pc}
C:\toolchain\Teensyduino\current_fork\cores\teensy3/usb_serial.c:297
    221c:	4b08      	ldr	r3, [pc, #32]	; (2240 <usb_serial_flush_callback+0x44>)
    221e:	2201      	movs	r2, #1
    2220:	701a      	strb	r2, [r3, #0]
    2222:	bd38      	pop	{r3, r4, r5, pc}
C:\toolchain\Teensyduino\current_fork\cores\teensy3/usb_serial.c:293
    2224:	f000 f8e6 	bl	23f4 <usb_malloc>
C:\toolchain\Teensyduino\current_fork\cores\teensy3/usb_serial.c:294
    2228:	2800      	cmp	r0, #0
    222a:	d0f7      	beq.n	221c <usb_serial_flush_callback+0x20>
C:\toolchain\Teensyduino\current_fork\cores\teensy3/usb_serial.c:295
    222c:	4601      	mov	r1, r0
C:\toolchain\Teensyduino\current_fork\cores\teensy3/usb_serial.c:300
    222e:	e8bd 4038 	ldmia.w	sp!, {r3, r4, r5, lr}
C:\toolchain\Teensyduino\current_fork\cores\teensy3/usb_serial.c:295
    2232:	2004      	movs	r0, #4
    2234:	f7ff b8aa 	b.w	138c <usb_tx>
    2238:	1fff9406 	.word	0x1fff9406
    223c:	1fff9408 	.word	0x1fff9408
    2240:	1fff9405 	.word	0x1fff9405

00002244 <analog_init>:
analog_init():
C:\toolchain\Teensyduino\current_fork\cores\teensy3/analog.c:138
    2244:	b430      	push	{r4, r5}
C:\toolchain\Teensyduino\current_fork\cores\teensy3/analog.c:142
    2246:	4829      	ldr	r0, [pc, #164]	; (22ec <analog_init+0xa8>)
C:\toolchain\Teensyduino\current_fork\cores\teensy3/analog.c:143
    2248:	4a29      	ldr	r2, [pc, #164]	; (22f0 <analog_init+0xac>)
C:\toolchain\Teensyduino\current_fork\cores\teensy3/analog.c:146
    224a:	4b2a      	ldr	r3, [pc, #168]	; (22f4 <analog_init+0xb0>)
C:\toolchain\Teensyduino\current_fork\cores\teensy3/analog.c:147
    224c:	4d2a      	ldr	r5, [pc, #168]	; (22f8 <analog_init+0xb4>)
C:\toolchain\Teensyduino\current_fork\cores\teensy3/analog.c:142
    224e:	2460      	movs	r4, #96	; 0x60
C:\toolchain\Teensyduino\current_fork\cores\teensy3/analog.c:143
    2250:	21e1      	movs	r1, #225	; 0xe1
C:\toolchain\Teensyduino\current_fork\cores\teensy3/analog.c:142
    2252:	7004      	strb	r4, [r0, #0]
C:\toolchain\Teensyduino\current_fork\cores\teensy3/analog.c:143
    2254:	7011      	strb	r1, [r2, #0]
C:\toolchain\Teensyduino\current_fork\cores\teensy3/analog.c:146
    2256:	781b      	ldrb	r3, [r3, #0]
C:\toolchain\Teensyduino\current_fork\cores\teensy3/analog.c:148
    2258:	4c28      	ldr	r4, [pc, #160]	; (22fc <analog_init+0xb8>)
C:\toolchain\Teensyduino\current_fork\cores\teensy3/analog.c:146
    225a:	2b08      	cmp	r3, #8
    225c:	d030      	beq.n	22c0 <analog_init+0x7c>
C:\toolchain\Teensyduino\current_fork\cores\teensy3/analog.c:153
    225e:	2b0a      	cmp	r3, #10
C:\toolchain\Teensyduino\current_fork\cores\teensy3/analog.c:157
    2260:	4827      	ldr	r0, [pc, #156]	; (2300 <analog_init+0xbc>)
C:\toolchain\Teensyduino\current_fork\cores\teensy3/analog.c:158
    2262:	4928      	ldr	r1, [pc, #160]	; (2304 <analog_init+0xc0>)
C:\toolchain\Teensyduino\current_fork\cores\teensy3/analog.c:153
    2264:	d037      	beq.n	22d6 <analog_init+0x92>
C:\toolchain\Teensyduino\current_fork\cores\teensy3/analog.c:160
    2266:	2b0c      	cmp	r3, #12
C:\toolchain\Teensyduino\current_fork\cores\teensy3/analog.c:161
    2268:	bf0c      	ite	eq
    226a:	2235      	moveq	r2, #53	; 0x35
C:\toolchain\Teensyduino\current_fork\cores\teensy3/analog.c:168
    226c:	223d      	movne	r2, #61	; 0x3d
C:\toolchain\Teensyduino\current_fork\cores\teensy3/analog.c:169
    226e:	2312      	movs	r3, #18
C:\toolchain\Teensyduino\current_fork\cores\teensy3/analog.c:168
    2270:	602a      	str	r2, [r5, #0]
C:\toolchain\Teensyduino\current_fork\cores\teensy3/analog.c:169
    2272:	6023      	str	r3, [r4, #0]
C:\toolchain\Teensyduino\current_fork\cores\teensy3/analog.c:171
    2274:	6002      	str	r2, [r0, #0]
C:\toolchain\Teensyduino\current_fork\cores\teensy3/analog.c:172
    2276:	600b      	str	r3, [r1, #0]
C:\toolchain\Teensyduino\current_fork\cores\teensy3/analog.c:183
    2278:	4b23      	ldr	r3, [pc, #140]	; (2308 <analog_init+0xc4>)
C:\toolchain\Teensyduino\current_fork\cores\teensy3/analog.c:184
    227a:	4924      	ldr	r1, [pc, #144]	; (230c <analog_init+0xc8>)
C:\toolchain\Teensyduino\current_fork\cores\teensy3/analog.c:183
    227c:	781b      	ldrb	r3, [r3, #0]
C:\toolchain\Teensyduino\current_fork\cores\teensy3/analog.c:185
    227e:	4a24      	ldr	r2, [pc, #144]	; (2310 <analog_init+0xcc>)
C:\toolchain\Teensyduino\current_fork\cores\teensy3/analog.c:183
    2280:	b1bb      	cbz	r3, 22b2 <analog_init+0x6e>
C:\toolchain\Teensyduino\current_fork\cores\teensy3/analog.c:184
    2282:	2301      	movs	r3, #1
    2284:	600b      	str	r3, [r1, #0]
C:\toolchain\Teensyduino\current_fork\cores\teensy3/analog.c:185
    2286:	6013      	str	r3, [r2, #0]
C:\toolchain\Teensyduino\current_fork\cores\teensy3/analog.c:198
    2288:	4b22      	ldr	r3, [pc, #136]	; (2314 <analog_init+0xd0>)
C:\toolchain\Teensyduino\current_fork\cores\teensy3/analog.c:200
    228a:	4923      	ldr	r1, [pc, #140]	; (2318 <analog_init+0xd4>)
C:\toolchain\Teensyduino\current_fork\cores\teensy3/analog.c:198
    228c:	781b      	ldrb	r3, [r3, #0]
C:\toolchain\Teensyduino\current_fork\cores\teensy3/analog.c:202
    228e:	4a23      	ldr	r2, [pc, #140]	; (231c <analog_init+0xd8>)
C:\toolchain\Teensyduino\current_fork\cores\teensy3/analog.c:199
    2290:	2b01      	cmp	r3, #1
    2292:	d926      	bls.n	22e2 <analog_init+0x9e>
C:\toolchain\Teensyduino\current_fork\cores\teensy3/analog.c:204
    2294:	2b04      	cmp	r3, #4
    2296:	d90f      	bls.n	22b8 <analog_init+0x74>
C:\toolchain\Teensyduino\current_fork\cores\teensy3/analog.c:209
    2298:	2b08      	cmp	r3, #8
    229a:	d91e      	bls.n	22da <analog_init+0x96>
C:\toolchain\Teensyduino\current_fork\cores\teensy3/analog.c:214
    229c:	2b10      	cmp	r3, #16
C:\toolchain\Teensyduino\current_fork\cores\teensy3/analog.c:215
    229e:	bf94      	ite	ls
    22a0:	2386      	movls	r3, #134	; 0x86
C:\toolchain\Teensyduino\current_fork\cores\teensy3/analog.c:220
    22a2:	2387      	movhi	r3, #135	; 0x87
    22a4:	600b      	str	r3, [r1, #0]
C:\toolchain\Teensyduino\current_fork\cores\teensy3/analog.c:222
    22a6:	6013      	str	r3, [r2, #0]
C:\toolchain\Teensyduino\current_fork\cores\teensy3/analog.c:225
    22a8:	4b1d      	ldr	r3, [pc, #116]	; (2320 <analog_init+0xdc>)
    22aa:	2201      	movs	r2, #1
    22ac:	701a      	strb	r2, [r3, #0]
C:\toolchain\Teensyduino\current_fork\cores\teensy3/analog.c:226
    22ae:	bc30      	pop	{r4, r5}
    22b0:	4770      	bx	lr
C:\toolchain\Teensyduino\current_fork\cores\teensy3/analog.c:187
    22b2:	600b      	str	r3, [r1, #0]
C:\toolchain\Teensyduino\current_fork\cores\teensy3/analog.c:188
    22b4:	6013      	str	r3, [r2, #0]
    22b6:	e7e7      	b.n	2288 <analog_init+0x44>
C:\toolchain\Teensyduino\current_fork\cores\teensy3/analog.c:205
    22b8:	2384      	movs	r3, #132	; 0x84
    22ba:	600b      	str	r3, [r1, #0]
C:\toolchain\Teensyduino\current_fork\cores\teensy3/analog.c:207
    22bc:	6013      	str	r3, [r2, #0]
    22be:	e7f3      	b.n	22a8 <analog_init+0x64>
C:\toolchain\Teensyduino\current_fork\cores\teensy3/analog.c:150
    22c0:	f500 208e 	add.w	r0, r0, #290816	; 0x47000
C:\toolchain\Teensyduino\current_fork\cores\teensy3/analog.c:151
    22c4:	490f      	ldr	r1, [pc, #60]	; (2304 <analog_init+0xc0>)
C:\toolchain\Teensyduino\current_fork\cores\teensy3/analog.c:150
    22c6:	3008      	adds	r0, #8
C:\toolchain\Teensyduino\current_fork\cores\teensy3/analog.c:147
    22c8:	2201      	movs	r2, #1
C:\toolchain\Teensyduino\current_fork\cores\teensy3/analog.c:155
    22ca:	2313      	movs	r3, #19
C:\toolchain\Teensyduino\current_fork\cores\teensy3/analog.c:154
    22cc:	602a      	str	r2, [r5, #0]
C:\toolchain\Teensyduino\current_fork\cores\teensy3/analog.c:155
    22ce:	6023      	str	r3, [r4, #0]
C:\toolchain\Teensyduino\current_fork\cores\teensy3/analog.c:157
    22d0:	6002      	str	r2, [r0, #0]
C:\toolchain\Teensyduino\current_fork\cores\teensy3/analog.c:158
    22d2:	600b      	str	r3, [r1, #0]
    22d4:	e7d0      	b.n	2278 <analog_init+0x34>
C:\toolchain\Teensyduino\current_fork\cores\teensy3/analog.c:154
    22d6:	2239      	movs	r2, #57	; 0x39
    22d8:	e7f7      	b.n	22ca <analog_init+0x86>
C:\toolchain\Teensyduino\current_fork\cores\teensy3/analog.c:210
    22da:	2385      	movs	r3, #133	; 0x85
    22dc:	600b      	str	r3, [r1, #0]
C:\toolchain\Teensyduino\current_fork\cores\teensy3/analog.c:212
    22de:	6013      	str	r3, [r2, #0]
    22e0:	e7e2      	b.n	22a8 <analog_init+0x64>
C:\toolchain\Teensyduino\current_fork\cores\teensy3/analog.c:200
    22e2:	2380      	movs	r3, #128	; 0x80
    22e4:	600b      	str	r3, [r1, #0]
C:\toolchain\Teensyduino\current_fork\cores\teensy3/analog.c:202
    22e6:	6013      	str	r3, [r2, #0]
    22e8:	e7de      	b.n	22a8 <analog_init+0x64>
    22ea:	bf00      	nop
    22ec:	40074000 	.word	0x40074000
    22f0:	40074001 	.word	0x40074001
    22f4:	1fff87da 	.word	0x1fff87da
    22f8:	4003b008 	.word	0x4003b008
    22fc:	4003b00c 	.word	0x4003b00c
    2300:	400bb008 	.word	0x400bb008
    2304:	400bb00c 	.word	0x400bb00c
    2308:	1fff9412 	.word	0x1fff9412
    230c:	4003b020 	.word	0x4003b020
    2310:	400bb020 	.word	0x400bb020
    2314:	1fff87db 	.word	0x1fff87db
    2318:	4003b024 	.word	0x4003b024
    231c:	400bb024 	.word	0x400bb024
    2320:	1fff9411 	.word	0x1fff9411

00002324 <usb_init_serialnumber>:
usb_init_serialnumber():
C:\toolchain\Teensyduino\current_fork\cores\teensy3/usb_desc.c:1807
    2324:	b570      	push	{r4, r5, r6, lr}
    2326:	b084      	sub	sp, #16
C:\toolchain\Teensyduino\current_fork\cores\teensy3/usb_desc.c:1811
    2328:	b672      	cpsid	i
C:\toolchain\Teensyduino\current_fork\cores\teensy3/usb_desc.c:1813
    232a:	4b19      	ldr	r3, [pc, #100]	; (2390 <usb_init_serialnumber+0x6c>)
C:\toolchain\Teensyduino\current_fork\cores\teensy3/usb_desc.c:1814
    232c:	4d19      	ldr	r5, [pc, #100]	; (2394 <usb_init_serialnumber+0x70>)
C:\toolchain\Teensyduino\current_fork\cores\teensy3/usb_desc.c:1815
    232e:	481a      	ldr	r0, [pc, #104]	; (2398 <usb_init_serialnumber+0x74>)
C:\toolchain\Teensyduino\current_fork\cores\teensy3/usb_desc.c:1813
    2330:	2270      	movs	r2, #112	; 0x70
C:\toolchain\Teensyduino\current_fork\cores\teensy3/usb_desc.c:1814
    2332:	2641      	movs	r6, #65	; 0x41
C:\toolchain\Teensyduino\current_fork\cores\teensy3/usb_desc.c:1815
    2334:	240f      	movs	r4, #15
C:\toolchain\Teensyduino\current_fork\cores\teensy3/usb_desc.c:1816
    2336:	2180      	movs	r1, #128	; 0x80
C:\toolchain\Teensyduino\current_fork\cores\teensy3/usb_desc.c:1813
    2338:	701a      	strb	r2, [r3, #0]
C:\toolchain\Teensyduino\current_fork\cores\teensy3/usb_desc.c:1814
    233a:	702e      	strb	r6, [r5, #0]
C:\toolchain\Teensyduino\current_fork\cores\teensy3/usb_desc.c:1817
    233c:	461a      	mov	r2, r3
C:\toolchain\Teensyduino\current_fork\cores\teensy3/usb_desc.c:1815
    233e:	7004      	strb	r4, [r0, #0]
C:\toolchain\Teensyduino\current_fork\cores\teensy3/usb_desc.c:1816
    2340:	7019      	strb	r1, [r3, #0]
C:\toolchain\Teensyduino\current_fork\cores\teensy3/usb_desc.c:1817 (discriminator 1)
    2342:	7813      	ldrb	r3, [r2, #0]
    2344:	061b      	lsls	r3, r3, #24
    2346:	d5fc      	bpl.n	2342 <usb_init_serialnumber+0x1e>
C:\toolchain\Teensyduino\current_fork\cores\teensy3/usb_desc.c:1818
    2348:	4b14      	ldr	r3, [pc, #80]	; (239c <usb_init_serialnumber+0x78>)
    234a:	6818      	ldr	r0, [r3, #0]
C:\toolchain\Teensyduino\current_fork\cores\teensy3/usb_desc.c:1828
    234c:	b662      	cpsie	i
C:\toolchain\Teensyduino\current_fork\cores\teensy3/usb_desc.c:1830
    234e:	4b14      	ldr	r3, [pc, #80]	; (23a0 <usb_init_serialnumber+0x7c>)
    2350:	4c14      	ldr	r4, [pc, #80]	; (23a4 <usb_init_serialnumber+0x80>)
    2352:	4298      	cmp	r0, r3
    2354:	bf98      	it	ls
    2356:	eb00 0080 	addls.w	r0, r0, r0, lsl #2
C:\toolchain\Teensyduino\current_fork\cores\teensy3/usb_desc.c:1831
    235a:	a901      	add	r1, sp, #4
C:\toolchain\Teensyduino\current_fork\cores\teensy3/usb_desc.c:1830
    235c:	bf98      	it	ls
    235e:	0040      	lslls	r0, r0, #1
C:\toolchain\Teensyduino\current_fork\cores\teensy3/usb_desc.c:1831
    2360:	220a      	movs	r2, #10
    2362:	f000 f821 	bl	23a8 <ultoa>
    2366:	a901      	add	r1, sp, #4
    2368:	4620      	mov	r0, r4
C:\toolchain\Teensyduino\current_fork\cores\teensy3/usb_desc.c:1832
    236a:	2300      	movs	r3, #0
C:\toolchain\Teensyduino\current_fork\cores\teensy3/usb_desc.c:1833
    236c:	f811 2b01 	ldrb.w	r2, [r1], #1
    2370:	3301      	adds	r3, #1
C:\toolchain\Teensyduino\current_fork\cores\teensy3/usb_desc.c:1834
    2372:	b13a      	cbz	r2, 2384 <usb_init_serialnumber+0x60>
C:\toolchain\Teensyduino\current_fork\cores\teensy3/usb_desc.c:1832 (discriminator 2)
    2374:	2b0a      	cmp	r3, #10
C:\toolchain\Teensyduino\current_fork\cores\teensy3/usb_desc.c:1835 (discriminator 2)
    2376:	f820 2f02 	strh.w	r2, [r0, #2]!
C:\toolchain\Teensyduino\current_fork\cores\teensy3/usb_desc.c:1832 (discriminator 2)
    237a:	d1f7      	bne.n	236c <usb_init_serialnumber+0x48>
    237c:	2316      	movs	r3, #22
C:\toolchain\Teensyduino\current_fork\cores\teensy3/usb_desc.c:1837
    237e:	7023      	strb	r3, [r4, #0]
C:\toolchain\Teensyduino\current_fork\cores\teensy3/usb_desc.c:1838
    2380:	b004      	add	sp, #16
    2382:	bd70      	pop	{r4, r5, r6, pc}
    2384:	005b      	lsls	r3, r3, #1
    2386:	b2db      	uxtb	r3, r3
C:\toolchain\Teensyduino\current_fork\cores\teensy3/usb_desc.c:1837
    2388:	7023      	strb	r3, [r4, #0]
C:\toolchain\Teensyduino\current_fork\cores\teensy3/usb_desc.c:1838
    238a:	b004      	add	sp, #16
    238c:	bd70      	pop	{r4, r5, r6, pc}
    238e:	bf00      	nop
    2390:	40020000 	.word	0x40020000
    2394:	40020007 	.word	0x40020007
    2398:	40020006 	.word	0x40020006
    239c:	40020008 	.word	0x40020008
    23a0:	0098967f 	.word	0x0098967f
    23a4:	1fff8868 	.word	0x1fff8868

000023a8 <ultoa>:
ultoa():
C:\toolchain\Teensyduino\current_fork\cores\teensy3/nonstd.c:38
    23a8:	b4f0      	push	{r4, r5, r6, r7}
    23aa:	1e4d      	subs	r5, r1, #1
    23ac:	462e      	mov	r6, r5
C:\toolchain\Teensyduino\current_fork\cores\teensy3/nonstd.c:40
    23ae:	2400      	movs	r4, #0
    23b0:	e000      	b.n	23b4 <ultoa+0xc>
C:\toolchain\Teensyduino\current_fork\cores\teensy3/nonstd.c:48
    23b2:	3401      	adds	r4, #1
C:\toolchain\Teensyduino\current_fork\cores\teensy3/nonstd.c:44
    23b4:	fbb0 f3f2 	udiv	r3, r0, r2
    23b8:	fb02 0013 	mls	r0, r2, r3, r0
C:\toolchain\Teensyduino\current_fork\cores\teensy3/nonstd.c:45
    23bc:	2809      	cmp	r0, #9
    23be:	f100 0730 	add.w	r7, r0, #48	; 0x30
    23c2:	bf8a      	itet	hi
    23c4:	3037      	addhi	r0, #55	; 0x37
    23c6:	b2f8      	uxtbls	r0, r7
    23c8:	b2c0      	uxtbhi	r0, r0
    23ca:	f806 0f01 	strb.w	r0, [r6, #1]!
C:\toolchain\Teensyduino\current_fork\cores\teensy3/nonstd.c:47
    23ce:	4618      	mov	r0, r3
    23d0:	2b00      	cmp	r3, #0
    23d2:	d1ee      	bne.n	23b2 <ultoa+0xa>
C:\toolchain\Teensyduino\current_fork\cores\teensy3/nonstd.c:50
    23d4:	190a      	adds	r2, r1, r4
    23d6:	7053      	strb	r3, [r2, #1]
C:\toolchain\Teensyduino\current_fork\cores\teensy3/nonstd.c:51
    23d8:	b14c      	cbz	r4, 23ee <ultoa+0x46>
C:\toolchain\Teensyduino\current_fork\cores\teensy3/nonstd.c:53 (discriminator 3)
    23da:	7810      	ldrb	r0, [r2, #0]
C:\toolchain\Teensyduino\current_fork\cores\teensy3/nonstd.c:52 (discriminator 3)
    23dc:	f815 6f01 	ldrb.w	r6, [r5, #1]!
C:\toolchain\Teensyduino\current_fork\cores\teensy3/nonstd.c:53 (discriminator 3)
    23e0:	7028      	strb	r0, [r5, #0]
C:\toolchain\Teensyduino\current_fork\cores\teensy3/nonstd.c:51 (discriminator 3)
    23e2:	3301      	adds	r3, #1
    23e4:	1ae0      	subs	r0, r4, r3
    23e6:	4283      	cmp	r3, r0
C:\toolchain\Teensyduino\current_fork\cores\teensy3/nonstd.c:54 (discriminator 3)
    23e8:	f802 6901 	strb.w	r6, [r2], #-1
C:\toolchain\Teensyduino\current_fork\cores\teensy3/nonstd.c:51 (discriminator 3)
    23ec:	dbf5      	blt.n	23da <ultoa+0x32>
C:\toolchain\Teensyduino\current_fork\cores\teensy3/nonstd.c:57
    23ee:	4608      	mov	r0, r1
    23f0:	bcf0      	pop	{r4, r5, r6, r7}
    23f2:	4770      	bx	lr

000023f4 <usb_malloc>:
usb_malloc():
C:\toolchain\Teensyduino\current_fork\cores\teensy3/usb_mem.c:53
    23f4:	b672      	cpsid	i
C:\toolchain\Teensyduino\current_fork\cores\teensy3/usb_mem.c:54
    23f6:	480d      	ldr	r0, [pc, #52]	; (242c <usb_malloc+0x38>)
    23f8:	6802      	ldr	r2, [r0, #0]
C:\toolchain\Teensyduino\current_fork\cores\teensy3/usb_mem.c:55
    23fa:	fab2 f382 	clz	r3, r2
C:\toolchain\Teensyduino\current_fork\cores\teensy3/usb_mem.c:56
    23fe:	2b0b      	cmp	r3, #11
    2400:	dc10      	bgt.n	2424 <usb_malloc+0x30>
C:\toolchain\Teensyduino\current_fork\cores\teensy3/usb_mem.c:64
    2402:	f04f 4100 	mov.w	r1, #2147483648	; 0x80000000
    2406:	40d9      	lsrs	r1, r3
    2408:	ea22 0201 	bic.w	r2, r2, r1
    240c:	6002      	str	r2, [r0, #0]
C:\toolchain\Teensyduino\current_fork\cores\teensy3/usb_mem.c:65
    240e:	b662      	cpsie	i
C:\toolchain\Teensyduino\current_fork\cores\teensy3/usb_mem.c:66
    2410:	4807      	ldr	r0, [pc, #28]	; (2430 <usb_malloc+0x3c>)
    2412:	eb03 03c3 	add.w	r3, r3, r3, lsl #3
    2416:	00db      	lsls	r3, r3, #3
    2418:	18c2      	adds	r2, r0, r3
C:\toolchain\Teensyduino\current_fork\cores\teensy3/usb_mem.c:70
    241a:	2100      	movs	r1, #0
    241c:	50c1      	str	r1, [r0, r3]
C:\toolchain\Teensyduino\current_fork\cores\teensy3/usb_mem.c:72
    241e:	4610      	mov	r0, r2
C:\toolchain\Teensyduino\current_fork\cores\teensy3/usb_mem.c:71
    2420:	6051      	str	r1, [r2, #4]
C:\toolchain\Teensyduino\current_fork\cores\teensy3/usb_mem.c:73
    2422:	4770      	bx	lr
C:\toolchain\Teensyduino\current_fork\cores\teensy3/usb_mem.c:57
    2424:	b662      	cpsie	i
C:\toolchain\Teensyduino\current_fork\cores\teensy3/usb_mem.c:58
    2426:	2000      	movs	r0, #0
    2428:	4770      	bx	lr
    242a:	bf00      	nop
    242c:	1fff8880 	.word	0x1fff8880
    2430:	1fff83bc 	.word	0x1fff83bc

00002434 <usb_free>:
usb_free():
C:\toolchain\Teensyduino\current_fork\cores\teensy3/usb_mem.c:84
    2434:	4b0d      	ldr	r3, [pc, #52]	; (246c <usb_free+0x38>)
    2436:	4a0e      	ldr	r2, [pc, #56]	; (2470 <usb_free+0x3c>)
    2438:	1ac3      	subs	r3, r0, r3
    243a:	fba2 2303 	umull	r2, r3, r2, r3
    243e:	091b      	lsrs	r3, r3, #4
C:\toolchain\Teensyduino\current_fork\cores\teensy3/usb_mem.c:85
    2440:	2b0b      	cmp	r3, #11
    2442:	d80c      	bhi.n	245e <usb_free+0x2a>
C:\toolchain\Teensyduino\current_fork\cores\teensy3/usb_mem.c:91
    2444:	4a0b      	ldr	r2, [pc, #44]	; (2474 <usb_free+0x40>)
    2446:	7812      	ldrb	r2, [r2, #0]
    2448:	b952      	cbnz	r2, 2460 <usb_free+0x2c>
C:\toolchain\Teensyduino\current_fork\cores\teensy3/usb_mem.c:100
    244a:	b672      	cpsid	i
C:\toolchain\Teensyduino\current_fork\cores\teensy3/usb_mem.c:101
    244c:	480a      	ldr	r0, [pc, #40]	; (2478 <usb_free+0x44>)
    244e:	f04f 4100 	mov.w	r1, #2147483648	; 0x80000000
    2452:	6802      	ldr	r2, [r0, #0]
    2454:	fa21 f303 	lsr.w	r3, r1, r3
    2458:	431a      	orrs	r2, r3
    245a:	6002      	str	r2, [r0, #0]
C:\toolchain\Teensyduino\current_fork\cores\teensy3/usb_mem.c:102
    245c:	b662      	cpsie	i
    245e:	4770      	bx	lr
C:\toolchain\Teensyduino\current_fork\cores\teensy3/usb_mem.c:91 (discriminator 1)
    2460:	4a06      	ldr	r2, [pc, #24]	; (247c <usb_free+0x48>)
    2462:	7812      	ldrb	r2, [r2, #0]
    2464:	2a00      	cmp	r2, #0
    2466:	d0f0      	beq.n	244a <usb_free+0x16>
C:\toolchain\Teensyduino\current_fork\cores\teensy3/usb_mem.c:95
    2468:	f7fe bf2c 	b.w	12c4 <usb_rx_memory>
    246c:	1fff83bc 	.word	0x1fff83bc
    2470:	38e38e39 	.word	0x38e38e39
    2474:	1fff93cd 	.word	0x1fff93cd
    2478:	1fff8880 	.word	0x1fff8880
    247c:	1fff93d8 	.word	0x1fff93d8

00002480 <__aeabi_frsub>:
__aeabi_frsub():
    2480:	f080 4000 	eor.w	r0, r0, #2147483648	; 0x80000000
    2484:	e002      	b.n	248c <__addsf3>
    2486:	bf00      	nop

00002488 <__aeabi_fsub>:
__aeabi_fsub():
    2488:	f081 4100 	eor.w	r1, r1, #2147483648	; 0x80000000

0000248c <__addsf3>:
__addsf3():
    248c:	0042      	lsls	r2, r0, #1
    248e:	bf1f      	itttt	ne
    2490:	ea5f 0341 	movsne.w	r3, r1, lsl #1
    2494:	ea92 0f03 	teqne	r2, r3
    2498:	ea7f 6c22 	mvnsne.w	ip, r2, asr #24
    249c:	ea7f 6c23 	mvnsne.w	ip, r3, asr #24
    24a0:	d06a      	beq.n	2578 <__addsf3+0xec>
    24a2:	ea4f 6212 	mov.w	r2, r2, lsr #24
    24a6:	ebd2 6313 	rsbs	r3, r2, r3, lsr #24
    24aa:	bfc1      	itttt	gt
    24ac:	18d2      	addgt	r2, r2, r3
    24ae:	4041      	eorgt	r1, r0
    24b0:	4048      	eorgt	r0, r1
    24b2:	4041      	eorgt	r1, r0
    24b4:	bfb8      	it	lt
    24b6:	425b      	neglt	r3, r3
    24b8:	2b19      	cmp	r3, #25
    24ba:	bf88      	it	hi
    24bc:	4770      	bxhi	lr
    24be:	f010 4f00 	tst.w	r0, #2147483648	; 0x80000000
    24c2:	f440 0000 	orr.w	r0, r0, #8388608	; 0x800000
    24c6:	f020 407f 	bic.w	r0, r0, #4278190080	; 0xff000000
    24ca:	bf18      	it	ne
    24cc:	4240      	negne	r0, r0
    24ce:	f011 4f00 	tst.w	r1, #2147483648	; 0x80000000
    24d2:	f441 0100 	orr.w	r1, r1, #8388608	; 0x800000
    24d6:	f021 417f 	bic.w	r1, r1, #4278190080	; 0xff000000
    24da:	bf18      	it	ne
    24dc:	4249      	negne	r1, r1
    24de:	ea92 0f03 	teq	r2, r3
    24e2:	d03f      	beq.n	2564 <__addsf3+0xd8>
    24e4:	f1a2 0201 	sub.w	r2, r2, #1
    24e8:	fa41 fc03 	asr.w	ip, r1, r3
    24ec:	eb10 000c 	adds.w	r0, r0, ip
    24f0:	f1c3 0320 	rsb	r3, r3, #32
    24f4:	fa01 f103 	lsl.w	r1, r1, r3
    24f8:	f000 4300 	and.w	r3, r0, #2147483648	; 0x80000000
    24fc:	d502      	bpl.n	2504 <__addsf3+0x78>
    24fe:	4249      	negs	r1, r1
    2500:	eb60 0040 	sbc.w	r0, r0, r0, lsl #1
    2504:	f5b0 0f00 	cmp.w	r0, #8388608	; 0x800000
    2508:	d313      	bcc.n	2532 <__addsf3+0xa6>
    250a:	f1b0 7f80 	cmp.w	r0, #16777216	; 0x1000000
    250e:	d306      	bcc.n	251e <__addsf3+0x92>
    2510:	0840      	lsrs	r0, r0, #1
    2512:	ea4f 0131 	mov.w	r1, r1, rrx
    2516:	f102 0201 	add.w	r2, r2, #1
    251a:	2afe      	cmp	r2, #254	; 0xfe
    251c:	d251      	bcs.n	25c2 <__addsf3+0x136>
    251e:	f1b1 4f00 	cmp.w	r1, #2147483648	; 0x80000000
    2522:	eb40 50c2 	adc.w	r0, r0, r2, lsl #23
    2526:	bf08      	it	eq
    2528:	f020 0001 	biceq.w	r0, r0, #1
    252c:	ea40 0003 	orr.w	r0, r0, r3
    2530:	4770      	bx	lr
    2532:	0049      	lsls	r1, r1, #1
    2534:	eb40 0000 	adc.w	r0, r0, r0
    2538:	f410 0f00 	tst.w	r0, #8388608	; 0x800000
    253c:	f1a2 0201 	sub.w	r2, r2, #1
    2540:	d1ed      	bne.n	251e <__addsf3+0x92>
    2542:	fab0 fc80 	clz	ip, r0
    2546:	f1ac 0c08 	sub.w	ip, ip, #8
    254a:	ebb2 020c 	subs.w	r2, r2, ip
    254e:	fa00 f00c 	lsl.w	r0, r0, ip
    2552:	bfaa      	itet	ge
    2554:	eb00 50c2 	addge.w	r0, r0, r2, lsl #23
    2558:	4252      	neglt	r2, r2
    255a:	4318      	orrge	r0, r3
    255c:	bfbc      	itt	lt
    255e:	40d0      	lsrlt	r0, r2
    2560:	4318      	orrlt	r0, r3
    2562:	4770      	bx	lr
    2564:	f092 0f00 	teq	r2, #0
    2568:	f481 0100 	eor.w	r1, r1, #8388608	; 0x800000
    256c:	bf06      	itte	eq
    256e:	f480 0000 	eoreq.w	r0, r0, #8388608	; 0x800000
    2572:	3201      	addeq	r2, #1
    2574:	3b01      	subne	r3, #1
    2576:	e7b5      	b.n	24e4 <__addsf3+0x58>
    2578:	ea4f 0341 	mov.w	r3, r1, lsl #1
    257c:	ea7f 6c22 	mvns.w	ip, r2, asr #24
    2580:	bf18      	it	ne
    2582:	ea7f 6c23 	mvnsne.w	ip, r3, asr #24
    2586:	d021      	beq.n	25cc <__addsf3+0x140>
    2588:	ea92 0f03 	teq	r2, r3
    258c:	d004      	beq.n	2598 <__addsf3+0x10c>
    258e:	f092 0f00 	teq	r2, #0
    2592:	bf08      	it	eq
    2594:	4608      	moveq	r0, r1
    2596:	4770      	bx	lr
    2598:	ea90 0f01 	teq	r0, r1
    259c:	bf1c      	itt	ne
    259e:	2000      	movne	r0, #0
    25a0:	4770      	bxne	lr
    25a2:	f012 4f7f 	tst.w	r2, #4278190080	; 0xff000000
    25a6:	d104      	bne.n	25b2 <__addsf3+0x126>
    25a8:	0040      	lsls	r0, r0, #1
    25aa:	bf28      	it	cs
    25ac:	f040 4000 	orrcs.w	r0, r0, #2147483648	; 0x80000000
    25b0:	4770      	bx	lr
    25b2:	f112 7200 	adds.w	r2, r2, #33554432	; 0x2000000
    25b6:	bf3c      	itt	cc
    25b8:	f500 0000 	addcc.w	r0, r0, #8388608	; 0x800000
    25bc:	4770      	bxcc	lr
    25be:	f000 4300 	and.w	r3, r0, #2147483648	; 0x80000000
    25c2:	f043 40fe 	orr.w	r0, r3, #2130706432	; 0x7f000000
    25c6:	f440 0000 	orr.w	r0, r0, #8388608	; 0x800000
    25ca:	4770      	bx	lr
    25cc:	ea7f 6222 	mvns.w	r2, r2, asr #24
    25d0:	bf16      	itet	ne
    25d2:	4608      	movne	r0, r1
    25d4:	ea7f 6323 	mvnseq.w	r3, r3, asr #24
    25d8:	4601      	movne	r1, r0
    25da:	0242      	lsls	r2, r0, #9
    25dc:	bf06      	itte	eq
    25de:	ea5f 2341 	movseq.w	r3, r1, lsl #9
    25e2:	ea90 0f01 	teqeq	r0, r1
    25e6:	f440 0080 	orrne.w	r0, r0, #4194304	; 0x400000
    25ea:	4770      	bx	lr

000025ec <__aeabi_ui2f>:
__floatunsisf():
    25ec:	f04f 0300 	mov.w	r3, #0
    25f0:	e004      	b.n	25fc <__aeabi_i2f+0x8>
    25f2:	bf00      	nop

000025f4 <__aeabi_i2f>:
__floatsisf():
    25f4:	f010 4300 	ands.w	r3, r0, #2147483648	; 0x80000000
    25f8:	bf48      	it	mi
    25fa:	4240      	negmi	r0, r0
    25fc:	ea5f 0c00 	movs.w	ip, r0
    2600:	bf08      	it	eq
    2602:	4770      	bxeq	lr
    2604:	f043 4396 	orr.w	r3, r3, #1258291200	; 0x4b000000
    2608:	4601      	mov	r1, r0
    260a:	f04f 0000 	mov.w	r0, #0
    260e:	e01c      	b.n	264a <__aeabi_l2f+0x2a>

00002610 <__aeabi_ul2f>:
__aeabi_ul2f():
    2610:	ea50 0201 	orrs.w	r2, r0, r1
    2614:	bf08      	it	eq
    2616:	4770      	bxeq	lr
    2618:	f04f 0300 	mov.w	r3, #0
    261c:	e00a      	b.n	2634 <__aeabi_l2f+0x14>
    261e:	bf00      	nop

00002620 <__aeabi_l2f>:
__aeabi_l2f():
    2620:	ea50 0201 	orrs.w	r2, r0, r1
    2624:	bf08      	it	eq
    2626:	4770      	bxeq	lr
    2628:	f011 4300 	ands.w	r3, r1, #2147483648	; 0x80000000
    262c:	d502      	bpl.n	2634 <__aeabi_l2f+0x14>
    262e:	4240      	negs	r0, r0
    2630:	eb61 0141 	sbc.w	r1, r1, r1, lsl #1
    2634:	ea5f 0c01 	movs.w	ip, r1
    2638:	bf02      	ittt	eq
    263a:	4684      	moveq	ip, r0
    263c:	4601      	moveq	r1, r0
    263e:	2000      	moveq	r0, #0
    2640:	f043 43b6 	orr.w	r3, r3, #1526726656	; 0x5b000000
    2644:	bf08      	it	eq
    2646:	f1a3 5380 	subeq.w	r3, r3, #268435456	; 0x10000000
    264a:	f5a3 0300 	sub.w	r3, r3, #8388608	; 0x800000
    264e:	fabc f28c 	clz	r2, ip
    2652:	3a08      	subs	r2, #8
    2654:	eba3 53c2 	sub.w	r3, r3, r2, lsl #23
    2658:	db10      	blt.n	267c <__aeabi_l2f+0x5c>
    265a:	fa01 fc02 	lsl.w	ip, r1, r2
    265e:	4463      	add	r3, ip
    2660:	fa00 fc02 	lsl.w	ip, r0, r2
    2664:	f1c2 0220 	rsb	r2, r2, #32
    2668:	f1bc 4f00 	cmp.w	ip, #2147483648	; 0x80000000
    266c:	fa20 f202 	lsr.w	r2, r0, r2
    2670:	eb43 0002 	adc.w	r0, r3, r2
    2674:	bf08      	it	eq
    2676:	f020 0001 	biceq.w	r0, r0, #1
    267a:	4770      	bx	lr
    267c:	f102 0220 	add.w	r2, r2, #32
    2680:	fa01 fc02 	lsl.w	ip, r1, r2
    2684:	f1c2 0220 	rsb	r2, r2, #32
    2688:	ea50 004c 	orrs.w	r0, r0, ip, lsl #1
    268c:	fa21 f202 	lsr.w	r2, r1, r2
    2690:	eb43 0002 	adc.w	r0, r3, r2
    2694:	bf08      	it	eq
    2696:	ea20 70dc 	biceq.w	r0, r0, ip, lsr #31
    269a:	4770      	bx	lr

0000269c <__aeabi_fmul>:
__aeabi_fmul():
    269c:	f04f 0cff 	mov.w	ip, #255	; 0xff
    26a0:	ea1c 52d0 	ands.w	r2, ip, r0, lsr #23
    26a4:	bf1e      	ittt	ne
    26a6:	ea1c 53d1 	andsne.w	r3, ip, r1, lsr #23
    26aa:	ea92 0f0c 	teqne	r2, ip
    26ae:	ea93 0f0c 	teqne	r3, ip
    26b2:	d06f      	beq.n	2794 <__aeabi_fmul+0xf8>
    26b4:	441a      	add	r2, r3
    26b6:	ea80 0c01 	eor.w	ip, r0, r1
    26ba:	0240      	lsls	r0, r0, #9
    26bc:	bf18      	it	ne
    26be:	ea5f 2141 	movsne.w	r1, r1, lsl #9
    26c2:	d01e      	beq.n	2702 <__aeabi_fmul+0x66>
    26c4:	f04f 6300 	mov.w	r3, #134217728	; 0x8000000
    26c8:	ea43 1050 	orr.w	r0, r3, r0, lsr #5
    26cc:	ea43 1151 	orr.w	r1, r3, r1, lsr #5
    26d0:	fba0 3101 	umull	r3, r1, r0, r1
    26d4:	f00c 4000 	and.w	r0, ip, #2147483648	; 0x80000000
    26d8:	f5b1 0f00 	cmp.w	r1, #8388608	; 0x800000
    26dc:	bf3e      	ittt	cc
    26de:	0049      	lslcc	r1, r1, #1
    26e0:	ea41 71d3 	orrcc.w	r1, r1, r3, lsr #31
    26e4:	005b      	lslcc	r3, r3, #1
    26e6:	ea40 0001 	orr.w	r0, r0, r1
    26ea:	f162 027f 	sbc.w	r2, r2, #127	; 0x7f
    26ee:	2afd      	cmp	r2, #253	; 0xfd
    26f0:	d81d      	bhi.n	272e <__aeabi_fmul+0x92>
    26f2:	f1b3 4f00 	cmp.w	r3, #2147483648	; 0x80000000
    26f6:	eb40 50c2 	adc.w	r0, r0, r2, lsl #23
    26fa:	bf08      	it	eq
    26fc:	f020 0001 	biceq.w	r0, r0, #1
    2700:	4770      	bx	lr
    2702:	f090 0f00 	teq	r0, #0
    2706:	f00c 4c00 	and.w	ip, ip, #2147483648	; 0x80000000
    270a:	bf08      	it	eq
    270c:	0249      	lsleq	r1, r1, #9
    270e:	ea4c 2050 	orr.w	r0, ip, r0, lsr #9
    2712:	ea40 2051 	orr.w	r0, r0, r1, lsr #9
    2716:	3a7f      	subs	r2, #127	; 0x7f
    2718:	bfc2      	ittt	gt
    271a:	f1d2 03ff 	rsbsgt	r3, r2, #255	; 0xff
    271e:	ea40 50c2 	orrgt.w	r0, r0, r2, lsl #23
    2722:	4770      	bxgt	lr
    2724:	f440 0000 	orr.w	r0, r0, #8388608	; 0x800000
    2728:	f04f 0300 	mov.w	r3, #0
    272c:	3a01      	subs	r2, #1
    272e:	dc5d      	bgt.n	27ec <__aeabi_fmul+0x150>
    2730:	f112 0f19 	cmn.w	r2, #25
    2734:	bfdc      	itt	le
    2736:	f000 4000 	andle.w	r0, r0, #2147483648	; 0x80000000
    273a:	4770      	bxle	lr
    273c:	f1c2 0200 	rsb	r2, r2, #0
    2740:	0041      	lsls	r1, r0, #1
    2742:	fa21 f102 	lsr.w	r1, r1, r2
    2746:	f1c2 0220 	rsb	r2, r2, #32
    274a:	fa00 fc02 	lsl.w	ip, r0, r2
    274e:	ea5f 0031 	movs.w	r0, r1, rrx
    2752:	f140 0000 	adc.w	r0, r0, #0
    2756:	ea53 034c 	orrs.w	r3, r3, ip, lsl #1
    275a:	bf08      	it	eq
    275c:	ea20 70dc 	biceq.w	r0, r0, ip, lsr #31
    2760:	4770      	bx	lr
    2762:	f092 0f00 	teq	r2, #0
    2766:	f000 4c00 	and.w	ip, r0, #2147483648	; 0x80000000
    276a:	bf02      	ittt	eq
    276c:	0040      	lsleq	r0, r0, #1
    276e:	f410 0f00 	tsteq.w	r0, #8388608	; 0x800000
    2772:	3a01      	subeq	r2, #1
    2774:	d0f9      	beq.n	276a <__aeabi_fmul+0xce>
    2776:	ea40 000c 	orr.w	r0, r0, ip
    277a:	f093 0f00 	teq	r3, #0
    277e:	f001 4c00 	and.w	ip, r1, #2147483648	; 0x80000000
    2782:	bf02      	ittt	eq
    2784:	0049      	lsleq	r1, r1, #1
    2786:	f411 0f00 	tsteq.w	r1, #8388608	; 0x800000
    278a:	3b01      	subeq	r3, #1
    278c:	d0f9      	beq.n	2782 <__aeabi_fmul+0xe6>
    278e:	ea41 010c 	orr.w	r1, r1, ip
    2792:	e78f      	b.n	26b4 <__aeabi_fmul+0x18>
    2794:	ea0c 53d1 	and.w	r3, ip, r1, lsr #23
    2798:	ea92 0f0c 	teq	r2, ip
    279c:	bf18      	it	ne
    279e:	ea93 0f0c 	teqne	r3, ip
    27a2:	d00a      	beq.n	27ba <__aeabi_fmul+0x11e>
    27a4:	f030 4c00 	bics.w	ip, r0, #2147483648	; 0x80000000
    27a8:	bf18      	it	ne
    27aa:	f031 4c00 	bicsne.w	ip, r1, #2147483648	; 0x80000000
    27ae:	d1d8      	bne.n	2762 <__aeabi_fmul+0xc6>
    27b0:	ea80 0001 	eor.w	r0, r0, r1
    27b4:	f000 4000 	and.w	r0, r0, #2147483648	; 0x80000000
    27b8:	4770      	bx	lr
    27ba:	f090 0f00 	teq	r0, #0
    27be:	bf17      	itett	ne
    27c0:	f090 4f00 	teqne	r0, #2147483648	; 0x80000000
    27c4:	4608      	moveq	r0, r1
    27c6:	f091 0f00 	teqne	r1, #0
    27ca:	f091 4f00 	teqne	r1, #2147483648	; 0x80000000
    27ce:	d014      	beq.n	27fa <__aeabi_fmul+0x15e>
    27d0:	ea92 0f0c 	teq	r2, ip
    27d4:	d101      	bne.n	27da <__aeabi_fmul+0x13e>
    27d6:	0242      	lsls	r2, r0, #9
    27d8:	d10f      	bne.n	27fa <__aeabi_fmul+0x15e>
    27da:	ea93 0f0c 	teq	r3, ip
    27de:	d103      	bne.n	27e8 <__aeabi_fmul+0x14c>
    27e0:	024b      	lsls	r3, r1, #9
    27e2:	bf18      	it	ne
    27e4:	4608      	movne	r0, r1
    27e6:	d108      	bne.n	27fa <__aeabi_fmul+0x15e>
    27e8:	ea80 0001 	eor.w	r0, r0, r1
    27ec:	f000 4000 	and.w	r0, r0, #2147483648	; 0x80000000
    27f0:	f040 40fe 	orr.w	r0, r0, #2130706432	; 0x7f000000
    27f4:	f440 0000 	orr.w	r0, r0, #8388608	; 0x800000
    27f8:	4770      	bx	lr
    27fa:	f040 40fe 	orr.w	r0, r0, #2130706432	; 0x7f000000
    27fe:	f440 0040 	orr.w	r0, r0, #12582912	; 0xc00000
    2802:	4770      	bx	lr

00002804 <__aeabi_fdiv>:
__aeabi_fdiv():
    2804:	f04f 0cff 	mov.w	ip, #255	; 0xff
    2808:	ea1c 52d0 	ands.w	r2, ip, r0, lsr #23
    280c:	bf1e      	ittt	ne
    280e:	ea1c 53d1 	andsne.w	r3, ip, r1, lsr #23
    2812:	ea92 0f0c 	teqne	r2, ip
    2816:	ea93 0f0c 	teqne	r3, ip
    281a:	d069      	beq.n	28f0 <__aeabi_fdiv+0xec>
    281c:	eba2 0203 	sub.w	r2, r2, r3
    2820:	ea80 0c01 	eor.w	ip, r0, r1
    2824:	0249      	lsls	r1, r1, #9
    2826:	ea4f 2040 	mov.w	r0, r0, lsl #9
    282a:	d037      	beq.n	289c <__aeabi_fdiv+0x98>
    282c:	f04f 5380 	mov.w	r3, #268435456	; 0x10000000
    2830:	ea43 1111 	orr.w	r1, r3, r1, lsr #4
    2834:	ea43 1310 	orr.w	r3, r3, r0, lsr #4
    2838:	f00c 4000 	and.w	r0, ip, #2147483648	; 0x80000000
    283c:	428b      	cmp	r3, r1
    283e:	bf38      	it	cc
    2840:	005b      	lslcc	r3, r3, #1
    2842:	f142 027d 	adc.w	r2, r2, #125	; 0x7d
    2846:	f44f 0c00 	mov.w	ip, #8388608	; 0x800000
    284a:	428b      	cmp	r3, r1
    284c:	bf24      	itt	cs
    284e:	1a5b      	subcs	r3, r3, r1
    2850:	ea40 000c 	orrcs.w	r0, r0, ip
    2854:	ebb3 0f51 	cmp.w	r3, r1, lsr #1
    2858:	bf24      	itt	cs
    285a:	eba3 0351 	subcs.w	r3, r3, r1, lsr #1
    285e:	ea40 005c 	orrcs.w	r0, r0, ip, lsr #1
    2862:	ebb3 0f91 	cmp.w	r3, r1, lsr #2
    2866:	bf24      	itt	cs
    2868:	eba3 0391 	subcs.w	r3, r3, r1, lsr #2
    286c:	ea40 009c 	orrcs.w	r0, r0, ip, lsr #2
    2870:	ebb3 0fd1 	cmp.w	r3, r1, lsr #3
    2874:	bf24      	itt	cs
    2876:	eba3 03d1 	subcs.w	r3, r3, r1, lsr #3
    287a:	ea40 00dc 	orrcs.w	r0, r0, ip, lsr #3
    287e:	011b      	lsls	r3, r3, #4
    2880:	bf18      	it	ne
    2882:	ea5f 1c1c 	movsne.w	ip, ip, lsr #4
    2886:	d1e0      	bne.n	284a <__aeabi_fdiv+0x46>
    2888:	2afd      	cmp	r2, #253	; 0xfd
    288a:	f63f af50 	bhi.w	272e <__aeabi_fmul+0x92>
    288e:	428b      	cmp	r3, r1
    2890:	eb40 50c2 	adc.w	r0, r0, r2, lsl #23
    2894:	bf08      	it	eq
    2896:	f020 0001 	biceq.w	r0, r0, #1
    289a:	4770      	bx	lr
    289c:	f00c 4c00 	and.w	ip, ip, #2147483648	; 0x80000000
    28a0:	ea4c 2050 	orr.w	r0, ip, r0, lsr #9
    28a4:	327f      	adds	r2, #127	; 0x7f
    28a6:	bfc2      	ittt	gt
    28a8:	f1d2 03ff 	rsbsgt	r3, r2, #255	; 0xff
    28ac:	ea40 50c2 	orrgt.w	r0, r0, r2, lsl #23
    28b0:	4770      	bxgt	lr
    28b2:	f440 0000 	orr.w	r0, r0, #8388608	; 0x800000
    28b6:	f04f 0300 	mov.w	r3, #0
    28ba:	3a01      	subs	r2, #1
    28bc:	e737      	b.n	272e <__aeabi_fmul+0x92>
    28be:	f092 0f00 	teq	r2, #0
    28c2:	f000 4c00 	and.w	ip, r0, #2147483648	; 0x80000000
    28c6:	bf02      	ittt	eq
    28c8:	0040      	lsleq	r0, r0, #1
    28ca:	f410 0f00 	tsteq.w	r0, #8388608	; 0x800000
    28ce:	3a01      	subeq	r2, #1
    28d0:	d0f9      	beq.n	28c6 <__aeabi_fdiv+0xc2>
    28d2:	ea40 000c 	orr.w	r0, r0, ip
    28d6:	f093 0f00 	teq	r3, #0
    28da:	f001 4c00 	and.w	ip, r1, #2147483648	; 0x80000000
    28de:	bf02      	ittt	eq
    28e0:	0049      	lsleq	r1, r1, #1
    28e2:	f411 0f00 	tsteq.w	r1, #8388608	; 0x800000
    28e6:	3b01      	subeq	r3, #1
    28e8:	d0f9      	beq.n	28de <__aeabi_fdiv+0xda>
    28ea:	ea41 010c 	orr.w	r1, r1, ip
    28ee:	e795      	b.n	281c <__aeabi_fdiv+0x18>
    28f0:	ea0c 53d1 	and.w	r3, ip, r1, lsr #23
    28f4:	ea92 0f0c 	teq	r2, ip
    28f8:	d108      	bne.n	290c <__aeabi_fdiv+0x108>
    28fa:	0242      	lsls	r2, r0, #9
    28fc:	f47f af7d 	bne.w	27fa <__aeabi_fmul+0x15e>
    2900:	ea93 0f0c 	teq	r3, ip
    2904:	f47f af70 	bne.w	27e8 <__aeabi_fmul+0x14c>
    2908:	4608      	mov	r0, r1
    290a:	e776      	b.n	27fa <__aeabi_fmul+0x15e>
    290c:	ea93 0f0c 	teq	r3, ip
    2910:	d104      	bne.n	291c <__aeabi_fdiv+0x118>
    2912:	024b      	lsls	r3, r1, #9
    2914:	f43f af4c 	beq.w	27b0 <__aeabi_fmul+0x114>
    2918:	4608      	mov	r0, r1
    291a:	e76e      	b.n	27fa <__aeabi_fmul+0x15e>
    291c:	f030 4c00 	bics.w	ip, r0, #2147483648	; 0x80000000
    2920:	bf18      	it	ne
    2922:	f031 4c00 	bicsne.w	ip, r1, #2147483648	; 0x80000000
    2926:	d1ca      	bne.n	28be <__aeabi_fdiv+0xba>
    2928:	f030 4200 	bics.w	r2, r0, #2147483648	; 0x80000000
    292c:	f47f af5c 	bne.w	27e8 <__aeabi_fmul+0x14c>
    2930:	f031 4300 	bics.w	r3, r1, #2147483648	; 0x80000000
    2934:	f47f af3c 	bne.w	27b0 <__aeabi_fmul+0x114>
    2938:	e75f      	b.n	27fa <__aeabi_fmul+0x15e>
    293a:	bf00      	nop

0000293c <__gesf2>:
__gesf2():
    293c:	f04f 3cff 	mov.w	ip, #4294967295
    2940:	e006      	b.n	2950 <__cmpsf2+0x4>
    2942:	bf00      	nop

00002944 <__lesf2>:
__ltsf2():
    2944:	f04f 0c01 	mov.w	ip, #1
    2948:	e002      	b.n	2950 <__cmpsf2+0x4>
    294a:	bf00      	nop

0000294c <__cmpsf2>:
__cmpsf2():
    294c:	f04f 0c01 	mov.w	ip, #1
    2950:	f84d cd04 	str.w	ip, [sp, #-4]!
    2954:	ea4f 0240 	mov.w	r2, r0, lsl #1
    2958:	ea4f 0341 	mov.w	r3, r1, lsl #1
    295c:	ea7f 6c22 	mvns.w	ip, r2, asr #24
    2960:	bf18      	it	ne
    2962:	ea7f 6c23 	mvnsne.w	ip, r3, asr #24
    2966:	d011      	beq.n	298c <__cmpsf2+0x40>
    2968:	b001      	add	sp, #4
    296a:	ea52 0c53 	orrs.w	ip, r2, r3, lsr #1
    296e:	bf18      	it	ne
    2970:	ea90 0f01 	teqne	r0, r1
    2974:	bf58      	it	pl
    2976:	ebb2 0003 	subspl.w	r0, r2, r3
    297a:	bf88      	it	hi
    297c:	17c8      	asrhi	r0, r1, #31
    297e:	bf38      	it	cc
    2980:	ea6f 70e1 	mvncc.w	r0, r1, asr #31
    2984:	bf18      	it	ne
    2986:	f040 0001 	orrne.w	r0, r0, #1
    298a:	4770      	bx	lr
    298c:	ea7f 6c22 	mvns.w	ip, r2, asr #24
    2990:	d102      	bne.n	2998 <__cmpsf2+0x4c>
    2992:	ea5f 2c40 	movs.w	ip, r0, lsl #9
    2996:	d105      	bne.n	29a4 <__cmpsf2+0x58>
    2998:	ea7f 6c23 	mvns.w	ip, r3, asr #24
    299c:	d1e4      	bne.n	2968 <__cmpsf2+0x1c>
    299e:	ea5f 2c41 	movs.w	ip, r1, lsl #9
    29a2:	d0e1      	beq.n	2968 <__cmpsf2+0x1c>
    29a4:	f85d 0b04 	ldr.w	r0, [sp], #4
    29a8:	4770      	bx	lr
    29aa:	bf00      	nop

000029ac <__aeabi_cfrcmple>:
__aeabi_cfrcmple():
    29ac:	4684      	mov	ip, r0
    29ae:	4608      	mov	r0, r1
    29b0:	4661      	mov	r1, ip
    29b2:	e7ff      	b.n	29b4 <__aeabi_cfcmpeq>

000029b4 <__aeabi_cfcmpeq>:
__aeabi_cfcmpeq():
    29b4:	b50f      	push	{r0, r1, r2, r3, lr}
    29b6:	f7ff ffc9 	bl	294c <__cmpsf2>
    29ba:	2800      	cmp	r0, #0
    29bc:	bf48      	it	mi
    29be:	f110 0f00 	cmnmi.w	r0, #0
    29c2:	bd0f      	pop	{r0, r1, r2, r3, pc}

000029c4 <__aeabi_fcmpeq>:
__aeabi_fcmpeq():
    29c4:	f84d ed08 	str.w	lr, [sp, #-8]!
    29c8:	f7ff fff4 	bl	29b4 <__aeabi_cfcmpeq>
    29cc:	bf0c      	ite	eq
    29ce:	2001      	moveq	r0, #1
    29d0:	2000      	movne	r0, #0
    29d2:	f85d fb08 	ldr.w	pc, [sp], #8
    29d6:	bf00      	nop

000029d8 <__aeabi_fcmplt>:
__aeabi_fcmplt():
    29d8:	f84d ed08 	str.w	lr, [sp, #-8]!
    29dc:	f7ff ffea 	bl	29b4 <__aeabi_cfcmpeq>
    29e0:	bf34      	ite	cc
    29e2:	2001      	movcc	r0, #1
    29e4:	2000      	movcs	r0, #0
    29e6:	f85d fb08 	ldr.w	pc, [sp], #8
    29ea:	bf00      	nop

000029ec <__aeabi_fcmple>:
__aeabi_fcmple():
    29ec:	f84d ed08 	str.w	lr, [sp, #-8]!
    29f0:	f7ff ffe0 	bl	29b4 <__aeabi_cfcmpeq>
    29f4:	bf94      	ite	ls
    29f6:	2001      	movls	r0, #1
    29f8:	2000      	movhi	r0, #0
    29fa:	f85d fb08 	ldr.w	pc, [sp], #8
    29fe:	bf00      	nop

00002a00 <__aeabi_fcmpge>:
__aeabi_fcmpge():
    2a00:	f84d ed08 	str.w	lr, [sp, #-8]!
    2a04:	f7ff ffd2 	bl	29ac <__aeabi_cfrcmple>
    2a08:	bf94      	ite	ls
    2a0a:	2001      	movls	r0, #1
    2a0c:	2000      	movhi	r0, #0
    2a0e:	f85d fb08 	ldr.w	pc, [sp], #8
    2a12:	bf00      	nop

00002a14 <__aeabi_fcmpgt>:
__aeabi_fcmpgt():
    2a14:	f84d ed08 	str.w	lr, [sp, #-8]!
    2a18:	f7ff ffc8 	bl	29ac <__aeabi_cfrcmple>
    2a1c:	bf34      	ite	cc
    2a1e:	2001      	movcc	r0, #1
    2a20:	2000      	movcs	r0, #0
    2a22:	f85d fb08 	ldr.w	pc, [sp], #8
    2a26:	bf00      	nop

00002a28 <__aeabi_f2uiz>:
__fixunssfsi():
    2a28:	0042      	lsls	r2, r0, #1
    2a2a:	d20e      	bcs.n	2a4a <__aeabi_f2uiz+0x22>
    2a2c:	f1b2 4ffe 	cmp.w	r2, #2130706432	; 0x7f000000
    2a30:	d30b      	bcc.n	2a4a <__aeabi_f2uiz+0x22>
    2a32:	f04f 039e 	mov.w	r3, #158	; 0x9e
    2a36:	ebb3 6212 	subs.w	r2, r3, r2, lsr #24
    2a3a:	d409      	bmi.n	2a50 <__aeabi_f2uiz+0x28>
    2a3c:	ea4f 2300 	mov.w	r3, r0, lsl #8
    2a40:	f043 4300 	orr.w	r3, r3, #2147483648	; 0x80000000
    2a44:	fa23 f002 	lsr.w	r0, r3, r2
    2a48:	4770      	bx	lr
    2a4a:	f04f 0000 	mov.w	r0, #0
    2a4e:	4770      	bx	lr
    2a50:	f112 0f61 	cmn.w	r2, #97	; 0x61
    2a54:	d101      	bne.n	2a5a <__aeabi_f2uiz+0x32>
    2a56:	0242      	lsls	r2, r0, #9
    2a58:	d102      	bne.n	2a60 <__aeabi_f2uiz+0x38>
    2a5a:	f04f 30ff 	mov.w	r0, #4294967295
    2a5e:	4770      	bx	lr
    2a60:	f04f 0000 	mov.w	r0, #0
    2a64:	4770      	bx	lr
    2a66:	bf00      	nop

00002a68 <__aeabi_atexit>:
__aeabi_atexit():
    2a68:	460b      	mov	r3, r1
    2a6a:	4601      	mov	r1, r0
    2a6c:	4618      	mov	r0, r3
    2a6e:	f000 b801 	b.w	2a74 <__cxa_atexit>
    2a72:	bf00      	nop

00002a74 <__cxa_atexit>:
__cxa_atexit():
    2a74:	4613      	mov	r3, r2
    2a76:	460a      	mov	r2, r1
    2a78:	4601      	mov	r1, r0
    2a7a:	2002      	movs	r0, #2
    2a7c:	f000 bb0c 	b.w	3098 <__register_exitproc>

00002a80 <__errno>:
__errno():
    2a80:	4b01      	ldr	r3, [pc, #4]	; (2a88 <__errno+0x8>)
    2a82:	6818      	ldr	r0, [r3, #0]
    2a84:	4770      	bx	lr
    2a86:	bf00      	nop
    2a88:	1fff8cb0 	.word	0x1fff8cb0

00002a8c <__libc_init_array>:
__libc_init_array():
    2a8c:	b570      	push	{r4, r5, r6, lr}
    2a8e:	4e0f      	ldr	r6, [pc, #60]	; (2acc <__libc_init_array+0x40>)
    2a90:	4d0f      	ldr	r5, [pc, #60]	; (2ad0 <__libc_init_array+0x44>)
    2a92:	1b76      	subs	r6, r6, r5
    2a94:	10b6      	asrs	r6, r6, #2
    2a96:	bf18      	it	ne
    2a98:	2400      	movne	r4, #0
    2a9a:	d005      	beq.n	2aa8 <__libc_init_array+0x1c>
    2a9c:	3401      	adds	r4, #1
    2a9e:	f855 3b04 	ldr.w	r3, [r5], #4
    2aa2:	4798      	blx	r3
    2aa4:	42a6      	cmp	r6, r4
    2aa6:	d1f9      	bne.n	2a9c <__libc_init_array+0x10>
    2aa8:	4e0a      	ldr	r6, [pc, #40]	; (2ad4 <__libc_init_array+0x48>)
    2aaa:	4d0b      	ldr	r5, [pc, #44]	; (2ad8 <__libc_init_array+0x4c>)
    2aac:	1b76      	subs	r6, r6, r5
    2aae:	f000 fdad 	bl	360c <_init>
    2ab2:	10b6      	asrs	r6, r6, #2
    2ab4:	bf18      	it	ne
    2ab6:	2400      	movne	r4, #0
    2ab8:	d006      	beq.n	2ac8 <__libc_init_array+0x3c>
    2aba:	3401      	adds	r4, #1
    2abc:	f855 3b04 	ldr.w	r3, [r5], #4
    2ac0:	4798      	blx	r3
    2ac2:	42a6      	cmp	r6, r4
    2ac4:	d1f9      	bne.n	2aba <__libc_init_array+0x2e>
    2ac6:	bd70      	pop	{r4, r5, r6, pc}
    2ac8:	bd70      	pop	{r4, r5, r6, pc}
    2aca:	bf00      	nop
    2acc:	00003618 	.word	0x00003618
    2ad0:	00003618 	.word	0x00003618
    2ad4:	00003630 	.word	0x00003630
    2ad8:	00003618 	.word	0x00003618

00002adc <malloc>:
malloc():
    2adc:	4b02      	ldr	r3, [pc, #8]	; (2ae8 <malloc+0xc>)
    2ade:	4601      	mov	r1, r0
    2ae0:	6818      	ldr	r0, [r3, #0]
    2ae2:	f000 b80b 	b.w	2afc <_malloc_r>
    2ae6:	bf00      	nop
    2ae8:	1fff8cb0 	.word	0x1fff8cb0

00002aec <free>:
free():
    2aec:	4b02      	ldr	r3, [pc, #8]	; (2af8 <free+0xc>)
    2aee:	4601      	mov	r1, r0
    2af0:	6818      	ldr	r0, [r3, #0]
    2af2:	f000 bb95 	b.w	3220 <_free_r>
    2af6:	bf00      	nop
    2af8:	1fff8cb0 	.word	0x1fff8cb0

00002afc <_malloc_r>:
_malloc_r():
    2afc:	e92d 4ff0 	stmdb	sp!, {r4, r5, r6, r7, r8, r9, sl, fp, lr}
    2b00:	f101 050b 	add.w	r5, r1, #11
    2b04:	2d16      	cmp	r5, #22
    2b06:	b083      	sub	sp, #12
    2b08:	4606      	mov	r6, r0
    2b0a:	f240 809f 	bls.w	2c4c <_malloc_r+0x150>
    2b0e:	f035 0507 	bics.w	r5, r5, #7
    2b12:	f100 80bf 	bmi.w	2c94 <_malloc_r+0x198>
    2b16:	42a9      	cmp	r1, r5
    2b18:	f200 80bc 	bhi.w	2c94 <_malloc_r+0x198>
    2b1c:	f000 faa6 	bl	306c <__malloc_lock>
    2b20:	f5b5 7ffc 	cmp.w	r5, #504	; 0x1f8
    2b24:	f0c0 829c 	bcc.w	3060 <_malloc_r+0x564>
    2b28:	0a6b      	lsrs	r3, r5, #9
    2b2a:	f000 80ba 	beq.w	2ca2 <_malloc_r+0x1a6>
    2b2e:	2b04      	cmp	r3, #4
    2b30:	f200 8183 	bhi.w	2e3a <_malloc_r+0x33e>
    2b34:	09a8      	lsrs	r0, r5, #6
    2b36:	f100 0e39 	add.w	lr, r0, #57	; 0x39
    2b3a:	ea4f 034e 	mov.w	r3, lr, lsl #1
    2b3e:	3038      	adds	r0, #56	; 0x38
    2b40:	4fc4      	ldr	r7, [pc, #784]	; (2e54 <_malloc_r+0x358>)
    2b42:	eb07 0383 	add.w	r3, r7, r3, lsl #2
    2b46:	f1a3 0108 	sub.w	r1, r3, #8
    2b4a:	685c      	ldr	r4, [r3, #4]
    2b4c:	42a1      	cmp	r1, r4
    2b4e:	d107      	bne.n	2b60 <_malloc_r+0x64>
    2b50:	e0ac      	b.n	2cac <_malloc_r+0x1b0>
    2b52:	2a00      	cmp	r2, #0
    2b54:	f280 80ac 	bge.w	2cb0 <_malloc_r+0x1b4>
    2b58:	68e4      	ldr	r4, [r4, #12]
    2b5a:	42a1      	cmp	r1, r4
    2b5c:	f000 80a6 	beq.w	2cac <_malloc_r+0x1b0>
    2b60:	6863      	ldr	r3, [r4, #4]
    2b62:	f023 0303 	bic.w	r3, r3, #3
    2b66:	1b5a      	subs	r2, r3, r5
    2b68:	2a0f      	cmp	r2, #15
    2b6a:	ddf2      	ble.n	2b52 <_malloc_r+0x56>
    2b6c:	49b9      	ldr	r1, [pc, #740]	; (2e54 <_malloc_r+0x358>)
    2b6e:	693c      	ldr	r4, [r7, #16]
    2b70:	f101 0e08 	add.w	lr, r1, #8
    2b74:	4574      	cmp	r4, lr
    2b76:	f000 81b3 	beq.w	2ee0 <_malloc_r+0x3e4>
    2b7a:	6863      	ldr	r3, [r4, #4]
    2b7c:	f023 0303 	bic.w	r3, r3, #3
    2b80:	1b5a      	subs	r2, r3, r5
    2b82:	2a0f      	cmp	r2, #15
    2b84:	f300 8199 	bgt.w	2eba <_malloc_r+0x3be>
    2b88:	2a00      	cmp	r2, #0
    2b8a:	f8c1 e014 	str.w	lr, [r1, #20]
    2b8e:	f8c1 e010 	str.w	lr, [r1, #16]
    2b92:	f280 809e 	bge.w	2cd2 <_malloc_r+0x1d6>
    2b96:	f5b3 7f00 	cmp.w	r3, #512	; 0x200
    2b9a:	f080 8167 	bcs.w	2e6c <_malloc_r+0x370>
    2b9e:	08db      	lsrs	r3, r3, #3
    2ba0:	f103 0c01 	add.w	ip, r3, #1
    2ba4:	2201      	movs	r2, #1
    2ba6:	109b      	asrs	r3, r3, #2
    2ba8:	fa02 f303 	lsl.w	r3, r2, r3
    2bac:	684a      	ldr	r2, [r1, #4]
    2bae:	f851 803c 	ldr.w	r8, [r1, ip, lsl #3]
    2bb2:	f8c4 8008 	str.w	r8, [r4, #8]
    2bb6:	eb01 09cc 	add.w	r9, r1, ip, lsl #3
    2bba:	431a      	orrs	r2, r3
    2bbc:	f1a9 0308 	sub.w	r3, r9, #8
    2bc0:	60e3      	str	r3, [r4, #12]
    2bc2:	604a      	str	r2, [r1, #4]
    2bc4:	f841 403c 	str.w	r4, [r1, ip, lsl #3]
    2bc8:	f8c8 400c 	str.w	r4, [r8, #12]
    2bcc:	1083      	asrs	r3, r0, #2
    2bce:	2401      	movs	r4, #1
    2bd0:	409c      	lsls	r4, r3
    2bd2:	4294      	cmp	r4, r2
    2bd4:	f200 808a 	bhi.w	2cec <_malloc_r+0x1f0>
    2bd8:	4214      	tst	r4, r2
    2bda:	d106      	bne.n	2bea <_malloc_r+0xee>
    2bdc:	f020 0003 	bic.w	r0, r0, #3
    2be0:	0064      	lsls	r4, r4, #1
    2be2:	4214      	tst	r4, r2
    2be4:	f100 0004 	add.w	r0, r0, #4
    2be8:	d0fa      	beq.n	2be0 <_malloc_r+0xe4>
    2bea:	eb07 09c0 	add.w	r9, r7, r0, lsl #3
    2bee:	46cc      	mov	ip, r9
    2bf0:	4680      	mov	r8, r0
    2bf2:	f8dc 100c 	ldr.w	r1, [ip, #12]
    2bf6:	458c      	cmp	ip, r1
    2bf8:	d107      	bne.n	2c0a <_malloc_r+0x10e>
    2bfa:	e173      	b.n	2ee4 <_malloc_r+0x3e8>
    2bfc:	2a00      	cmp	r2, #0
    2bfe:	f280 8181 	bge.w	2f04 <_malloc_r+0x408>
    2c02:	68c9      	ldr	r1, [r1, #12]
    2c04:	458c      	cmp	ip, r1
    2c06:	f000 816d 	beq.w	2ee4 <_malloc_r+0x3e8>
    2c0a:	684b      	ldr	r3, [r1, #4]
    2c0c:	f023 0303 	bic.w	r3, r3, #3
    2c10:	1b5a      	subs	r2, r3, r5
    2c12:	2a0f      	cmp	r2, #15
    2c14:	ddf2      	ble.n	2bfc <_malloc_r+0x100>
    2c16:	460c      	mov	r4, r1
    2c18:	f8d1 c00c 	ldr.w	ip, [r1, #12]
    2c1c:	f854 8f08 	ldr.w	r8, [r4, #8]!
    2c20:	194b      	adds	r3, r1, r5
    2c22:	f045 0501 	orr.w	r5, r5, #1
    2c26:	604d      	str	r5, [r1, #4]
    2c28:	f042 0101 	orr.w	r1, r2, #1
    2c2c:	f8c8 c00c 	str.w	ip, [r8, #12]
    2c30:	4630      	mov	r0, r6
    2c32:	f8cc 8008 	str.w	r8, [ip, #8]
    2c36:	617b      	str	r3, [r7, #20]
    2c38:	613b      	str	r3, [r7, #16]
    2c3a:	f8c3 e00c 	str.w	lr, [r3, #12]
    2c3e:	f8c3 e008 	str.w	lr, [r3, #8]
    2c42:	6059      	str	r1, [r3, #4]
    2c44:	509a      	str	r2, [r3, r2]
    2c46:	f000 fa13 	bl	3070 <__malloc_unlock>
    2c4a:	e01f      	b.n	2c8c <_malloc_r+0x190>
    2c4c:	2910      	cmp	r1, #16
    2c4e:	d821      	bhi.n	2c94 <_malloc_r+0x198>
    2c50:	f000 fa0c 	bl	306c <__malloc_lock>
    2c54:	2510      	movs	r5, #16
    2c56:	2306      	movs	r3, #6
    2c58:	2002      	movs	r0, #2
    2c5a:	4f7e      	ldr	r7, [pc, #504]	; (2e54 <_malloc_r+0x358>)
    2c5c:	eb07 0383 	add.w	r3, r7, r3, lsl #2
    2c60:	f1a3 0208 	sub.w	r2, r3, #8
    2c64:	685c      	ldr	r4, [r3, #4]
    2c66:	4294      	cmp	r4, r2
    2c68:	f000 8145 	beq.w	2ef6 <_malloc_r+0x3fa>
    2c6c:	6863      	ldr	r3, [r4, #4]
    2c6e:	68e1      	ldr	r1, [r4, #12]
    2c70:	68a5      	ldr	r5, [r4, #8]
    2c72:	f023 0303 	bic.w	r3, r3, #3
    2c76:	4423      	add	r3, r4
    2c78:	4630      	mov	r0, r6
    2c7a:	685a      	ldr	r2, [r3, #4]
    2c7c:	60e9      	str	r1, [r5, #12]
    2c7e:	f042 0201 	orr.w	r2, r2, #1
    2c82:	608d      	str	r5, [r1, #8]
    2c84:	605a      	str	r2, [r3, #4]
    2c86:	f000 f9f3 	bl	3070 <__malloc_unlock>
    2c8a:	3408      	adds	r4, #8
    2c8c:	4620      	mov	r0, r4
    2c8e:	b003      	add	sp, #12
    2c90:	e8bd 8ff0 	ldmia.w	sp!, {r4, r5, r6, r7, r8, r9, sl, fp, pc}
    2c94:	2400      	movs	r4, #0
    2c96:	230c      	movs	r3, #12
    2c98:	4620      	mov	r0, r4
    2c9a:	6033      	str	r3, [r6, #0]
    2c9c:	b003      	add	sp, #12
    2c9e:	e8bd 8ff0 	ldmia.w	sp!, {r4, r5, r6, r7, r8, r9, sl, fp, pc}
    2ca2:	2380      	movs	r3, #128	; 0x80
    2ca4:	f04f 0e40 	mov.w	lr, #64	; 0x40
    2ca8:	203f      	movs	r0, #63	; 0x3f
    2caa:	e749      	b.n	2b40 <_malloc_r+0x44>
    2cac:	4670      	mov	r0, lr
    2cae:	e75d      	b.n	2b6c <_malloc_r+0x70>
    2cb0:	4423      	add	r3, r4
    2cb2:	68e1      	ldr	r1, [r4, #12]
    2cb4:	685a      	ldr	r2, [r3, #4]
    2cb6:	68a5      	ldr	r5, [r4, #8]
    2cb8:	f042 0201 	orr.w	r2, r2, #1
    2cbc:	60e9      	str	r1, [r5, #12]
    2cbe:	4630      	mov	r0, r6
    2cc0:	608d      	str	r5, [r1, #8]
    2cc2:	605a      	str	r2, [r3, #4]
    2cc4:	f000 f9d4 	bl	3070 <__malloc_unlock>
    2cc8:	3408      	adds	r4, #8
    2cca:	4620      	mov	r0, r4
    2ccc:	b003      	add	sp, #12
    2cce:	e8bd 8ff0 	ldmia.w	sp!, {r4, r5, r6, r7, r8, r9, sl, fp, pc}
    2cd2:	4423      	add	r3, r4
    2cd4:	4630      	mov	r0, r6
    2cd6:	685a      	ldr	r2, [r3, #4]
    2cd8:	f042 0201 	orr.w	r2, r2, #1
    2cdc:	605a      	str	r2, [r3, #4]
    2cde:	f000 f9c7 	bl	3070 <__malloc_unlock>
    2ce2:	3408      	adds	r4, #8
    2ce4:	4620      	mov	r0, r4
    2ce6:	b003      	add	sp, #12
    2ce8:	e8bd 8ff0 	ldmia.w	sp!, {r4, r5, r6, r7, r8, r9, sl, fp, pc}
    2cec:	68bc      	ldr	r4, [r7, #8]
    2cee:	6863      	ldr	r3, [r4, #4]
    2cf0:	f023 0803 	bic.w	r8, r3, #3
    2cf4:	45a8      	cmp	r8, r5
    2cf6:	d304      	bcc.n	2d02 <_malloc_r+0x206>
    2cf8:	ebc5 0308 	rsb	r3, r5, r8
    2cfc:	2b0f      	cmp	r3, #15
    2cfe:	f300 808c 	bgt.w	2e1a <_malloc_r+0x31e>
    2d02:	4b55      	ldr	r3, [pc, #340]	; (2e58 <_malloc_r+0x35c>)
    2d04:	f8df 9160 	ldr.w	r9, [pc, #352]	; 2e68 <_malloc_r+0x36c>
    2d08:	681a      	ldr	r2, [r3, #0]
    2d0a:	f8d9 3000 	ldr.w	r3, [r9]
    2d0e:	3301      	adds	r3, #1
    2d10:	442a      	add	r2, r5
    2d12:	eb04 0a08 	add.w	sl, r4, r8
    2d16:	f000 8160 	beq.w	2fda <_malloc_r+0x4de>
    2d1a:	f502 5280 	add.w	r2, r2, #4096	; 0x1000
    2d1e:	320f      	adds	r2, #15
    2d20:	f422 627f 	bic.w	r2, r2, #4080	; 0xff0
    2d24:	f022 020f 	bic.w	r2, r2, #15
    2d28:	4611      	mov	r1, r2
    2d2a:	4630      	mov	r0, r6
    2d2c:	9201      	str	r2, [sp, #4]
    2d2e:	f000 f9a1 	bl	3074 <_sbrk_r>
    2d32:	f1b0 3fff 	cmp.w	r0, #4294967295
    2d36:	4683      	mov	fp, r0
    2d38:	9a01      	ldr	r2, [sp, #4]
    2d3a:	f000 8158 	beq.w	2fee <_malloc_r+0x4f2>
    2d3e:	4582      	cmp	sl, r0
    2d40:	f200 80fc 	bhi.w	2f3c <_malloc_r+0x440>
    2d44:	4b45      	ldr	r3, [pc, #276]	; (2e5c <_malloc_r+0x360>)
    2d46:	6819      	ldr	r1, [r3, #0]
    2d48:	45da      	cmp	sl, fp
    2d4a:	4411      	add	r1, r2
    2d4c:	6019      	str	r1, [r3, #0]
    2d4e:	f000 8153 	beq.w	2ff8 <_malloc_r+0x4fc>
    2d52:	f8d9 0000 	ldr.w	r0, [r9]
    2d56:	f8df e110 	ldr.w	lr, [pc, #272]	; 2e68 <_malloc_r+0x36c>
    2d5a:	3001      	adds	r0, #1
    2d5c:	bf1b      	ittet	ne
    2d5e:	ebca 0a0b 	rsbne	sl, sl, fp
    2d62:	4451      	addne	r1, sl
    2d64:	f8ce b000 	streq.w	fp, [lr]
    2d68:	6019      	strne	r1, [r3, #0]
    2d6a:	f01b 0107 	ands.w	r1, fp, #7
    2d6e:	f000 8117 	beq.w	2fa0 <_malloc_r+0x4a4>
    2d72:	f1c1 0008 	rsb	r0, r1, #8
    2d76:	f5c1 5180 	rsb	r1, r1, #4096	; 0x1000
    2d7a:	4483      	add	fp, r0
    2d7c:	3108      	adds	r1, #8
    2d7e:	445a      	add	r2, fp
    2d80:	f3c2 020b 	ubfx	r2, r2, #0, #12
    2d84:	ebc2 0901 	rsb	r9, r2, r1
    2d88:	4649      	mov	r1, r9
    2d8a:	4630      	mov	r0, r6
    2d8c:	9301      	str	r3, [sp, #4]
    2d8e:	f000 f971 	bl	3074 <_sbrk_r>
    2d92:	1c43      	adds	r3, r0, #1
    2d94:	9b01      	ldr	r3, [sp, #4]
    2d96:	f000 813f 	beq.w	3018 <_malloc_r+0x51c>
    2d9a:	ebcb 0200 	rsb	r2, fp, r0
    2d9e:	444a      	add	r2, r9
    2da0:	f042 0201 	orr.w	r2, r2, #1
    2da4:	6819      	ldr	r1, [r3, #0]
    2da6:	f8c7 b008 	str.w	fp, [r7, #8]
    2daa:	4449      	add	r1, r9
    2dac:	42bc      	cmp	r4, r7
    2dae:	f8cb 2004 	str.w	r2, [fp, #4]
    2db2:	6019      	str	r1, [r3, #0]
    2db4:	f8df 90a4 	ldr.w	r9, [pc, #164]	; 2e5c <_malloc_r+0x360>
    2db8:	d016      	beq.n	2de8 <_malloc_r+0x2ec>
    2dba:	f1b8 0f0f 	cmp.w	r8, #15
    2dbe:	f240 80fd 	bls.w	2fbc <_malloc_r+0x4c0>
    2dc2:	6862      	ldr	r2, [r4, #4]
    2dc4:	f1a8 030c 	sub.w	r3, r8, #12
    2dc8:	f023 0307 	bic.w	r3, r3, #7
    2dcc:	18e0      	adds	r0, r4, r3
    2dce:	f002 0201 	and.w	r2, r2, #1
    2dd2:	f04f 0e05 	mov.w	lr, #5
    2dd6:	431a      	orrs	r2, r3
    2dd8:	2b0f      	cmp	r3, #15
    2dda:	6062      	str	r2, [r4, #4]
    2ddc:	f8c0 e004 	str.w	lr, [r0, #4]
    2de0:	f8c0 e008 	str.w	lr, [r0, #8]
    2de4:	f200 811c 	bhi.w	3020 <_malloc_r+0x524>
    2de8:	4b1d      	ldr	r3, [pc, #116]	; (2e60 <_malloc_r+0x364>)
    2dea:	68bc      	ldr	r4, [r7, #8]
    2dec:	681a      	ldr	r2, [r3, #0]
    2dee:	4291      	cmp	r1, r2
    2df0:	bf88      	it	hi
    2df2:	6019      	strhi	r1, [r3, #0]
    2df4:	4b1b      	ldr	r3, [pc, #108]	; (2e64 <_malloc_r+0x368>)
    2df6:	681a      	ldr	r2, [r3, #0]
    2df8:	4291      	cmp	r1, r2
    2dfa:	6862      	ldr	r2, [r4, #4]
    2dfc:	bf88      	it	hi
    2dfe:	6019      	strhi	r1, [r3, #0]
    2e00:	f022 0203 	bic.w	r2, r2, #3
    2e04:	4295      	cmp	r5, r2
    2e06:	eba2 0305 	sub.w	r3, r2, r5
    2e0a:	d801      	bhi.n	2e10 <_malloc_r+0x314>
    2e0c:	2b0f      	cmp	r3, #15
    2e0e:	dc04      	bgt.n	2e1a <_malloc_r+0x31e>
    2e10:	4630      	mov	r0, r6
    2e12:	f000 f92d 	bl	3070 <__malloc_unlock>
    2e16:	2400      	movs	r4, #0
    2e18:	e738      	b.n	2c8c <_malloc_r+0x190>
    2e1a:	1962      	adds	r2, r4, r5
    2e1c:	f043 0301 	orr.w	r3, r3, #1
    2e20:	f045 0501 	orr.w	r5, r5, #1
    2e24:	6065      	str	r5, [r4, #4]
    2e26:	4630      	mov	r0, r6
    2e28:	60ba      	str	r2, [r7, #8]
    2e2a:	6053      	str	r3, [r2, #4]
    2e2c:	f000 f920 	bl	3070 <__malloc_unlock>
    2e30:	3408      	adds	r4, #8
    2e32:	4620      	mov	r0, r4
    2e34:	b003      	add	sp, #12
    2e36:	e8bd 8ff0 	ldmia.w	sp!, {r4, r5, r6, r7, r8, r9, sl, fp, pc}
    2e3a:	2b14      	cmp	r3, #20
    2e3c:	d971      	bls.n	2f22 <_malloc_r+0x426>
    2e3e:	2b54      	cmp	r3, #84	; 0x54
    2e40:	f200 80a4 	bhi.w	2f8c <_malloc_r+0x490>
    2e44:	0b28      	lsrs	r0, r5, #12
    2e46:	f100 0e6f 	add.w	lr, r0, #111	; 0x6f
    2e4a:	ea4f 034e 	mov.w	r3, lr, lsl #1
    2e4e:	306e      	adds	r0, #110	; 0x6e
    2e50:	e676      	b.n	2b40 <_malloc_r+0x44>
    2e52:	bf00      	nop
    2e54:	1fff8cb4 	.word	0x1fff8cb4
    2e58:	1fff941c 	.word	0x1fff941c
    2e5c:	1fff9420 	.word	0x1fff9420
    2e60:	1fff9418 	.word	0x1fff9418
    2e64:	1fff9414 	.word	0x1fff9414
    2e68:	1fff90c0 	.word	0x1fff90c0
    2e6c:	0a5a      	lsrs	r2, r3, #9
    2e6e:	2a04      	cmp	r2, #4
    2e70:	d95e      	bls.n	2f30 <_malloc_r+0x434>
    2e72:	2a14      	cmp	r2, #20
    2e74:	f200 80b3 	bhi.w	2fde <_malloc_r+0x4e2>
    2e78:	f102 015c 	add.w	r1, r2, #92	; 0x5c
    2e7c:	0049      	lsls	r1, r1, #1
    2e7e:	325b      	adds	r2, #91	; 0x5b
    2e80:	eb07 0c81 	add.w	ip, r7, r1, lsl #2
    2e84:	f857 1021 	ldr.w	r1, [r7, r1, lsl #2]
    2e88:	f8df 81dc 	ldr.w	r8, [pc, #476]	; 3068 <_malloc_r+0x56c>
    2e8c:	f1ac 0c08 	sub.w	ip, ip, #8
    2e90:	458c      	cmp	ip, r1
    2e92:	f000 8088 	beq.w	2fa6 <_malloc_r+0x4aa>
    2e96:	684a      	ldr	r2, [r1, #4]
    2e98:	f022 0203 	bic.w	r2, r2, #3
    2e9c:	4293      	cmp	r3, r2
    2e9e:	d202      	bcs.n	2ea6 <_malloc_r+0x3aa>
    2ea0:	6889      	ldr	r1, [r1, #8]
    2ea2:	458c      	cmp	ip, r1
    2ea4:	d1f7      	bne.n	2e96 <_malloc_r+0x39a>
    2ea6:	f8d1 c00c 	ldr.w	ip, [r1, #12]
    2eaa:	687a      	ldr	r2, [r7, #4]
    2eac:	f8c4 c00c 	str.w	ip, [r4, #12]
    2eb0:	60a1      	str	r1, [r4, #8]
    2eb2:	f8cc 4008 	str.w	r4, [ip, #8]
    2eb6:	60cc      	str	r4, [r1, #12]
    2eb8:	e688      	b.n	2bcc <_malloc_r+0xd0>
    2eba:	1963      	adds	r3, r4, r5
    2ebc:	f042 0701 	orr.w	r7, r2, #1
    2ec0:	f045 0501 	orr.w	r5, r5, #1
    2ec4:	6065      	str	r5, [r4, #4]
    2ec6:	4630      	mov	r0, r6
    2ec8:	614b      	str	r3, [r1, #20]
    2eca:	610b      	str	r3, [r1, #16]
    2ecc:	f8c3 e00c 	str.w	lr, [r3, #12]
    2ed0:	f8c3 e008 	str.w	lr, [r3, #8]
    2ed4:	605f      	str	r7, [r3, #4]
    2ed6:	509a      	str	r2, [r3, r2]
    2ed8:	3408      	adds	r4, #8
    2eda:	f000 f8c9 	bl	3070 <__malloc_unlock>
    2ede:	e6d5      	b.n	2c8c <_malloc_r+0x190>
    2ee0:	684a      	ldr	r2, [r1, #4]
    2ee2:	e673      	b.n	2bcc <_malloc_r+0xd0>
    2ee4:	f108 0801 	add.w	r8, r8, #1
    2ee8:	f018 0f03 	tst.w	r8, #3
    2eec:	f10c 0c08 	add.w	ip, ip, #8
    2ef0:	f47f ae7f 	bne.w	2bf2 <_malloc_r+0xf6>
    2ef4:	e030      	b.n	2f58 <_malloc_r+0x45c>
    2ef6:	68dc      	ldr	r4, [r3, #12]
    2ef8:	42a3      	cmp	r3, r4
    2efa:	bf08      	it	eq
    2efc:	3002      	addeq	r0, #2
    2efe:	f43f ae35 	beq.w	2b6c <_malloc_r+0x70>
    2f02:	e6b3      	b.n	2c6c <_malloc_r+0x170>
    2f04:	440b      	add	r3, r1
    2f06:	460c      	mov	r4, r1
    2f08:	685a      	ldr	r2, [r3, #4]
    2f0a:	68c9      	ldr	r1, [r1, #12]
    2f0c:	f854 5f08 	ldr.w	r5, [r4, #8]!
    2f10:	f042 0201 	orr.w	r2, r2, #1
    2f14:	605a      	str	r2, [r3, #4]
    2f16:	4630      	mov	r0, r6
    2f18:	60e9      	str	r1, [r5, #12]
    2f1a:	608d      	str	r5, [r1, #8]
    2f1c:	f000 f8a8 	bl	3070 <__malloc_unlock>
    2f20:	e6b4      	b.n	2c8c <_malloc_r+0x190>
    2f22:	f103 0e5c 	add.w	lr, r3, #92	; 0x5c
    2f26:	f103 005b 	add.w	r0, r3, #91	; 0x5b
    2f2a:	ea4f 034e 	mov.w	r3, lr, lsl #1
    2f2e:	e607      	b.n	2b40 <_malloc_r+0x44>
    2f30:	099a      	lsrs	r2, r3, #6
    2f32:	f102 0139 	add.w	r1, r2, #57	; 0x39
    2f36:	0049      	lsls	r1, r1, #1
    2f38:	3238      	adds	r2, #56	; 0x38
    2f3a:	e7a1      	b.n	2e80 <_malloc_r+0x384>
    2f3c:	42bc      	cmp	r4, r7
    2f3e:	4b4a      	ldr	r3, [pc, #296]	; (3068 <_malloc_r+0x56c>)
    2f40:	f43f af00 	beq.w	2d44 <_malloc_r+0x248>
    2f44:	689c      	ldr	r4, [r3, #8]
    2f46:	6862      	ldr	r2, [r4, #4]
    2f48:	f022 0203 	bic.w	r2, r2, #3
    2f4c:	e75a      	b.n	2e04 <_malloc_r+0x308>
    2f4e:	f859 3908 	ldr.w	r3, [r9], #-8
    2f52:	4599      	cmp	r9, r3
    2f54:	f040 8082 	bne.w	305c <_malloc_r+0x560>
    2f58:	f010 0f03 	tst.w	r0, #3
    2f5c:	f100 30ff 	add.w	r0, r0, #4294967295
    2f60:	d1f5      	bne.n	2f4e <_malloc_r+0x452>
    2f62:	687b      	ldr	r3, [r7, #4]
    2f64:	ea23 0304 	bic.w	r3, r3, r4
    2f68:	607b      	str	r3, [r7, #4]
    2f6a:	0064      	lsls	r4, r4, #1
    2f6c:	429c      	cmp	r4, r3
    2f6e:	f63f aebd 	bhi.w	2cec <_malloc_r+0x1f0>
    2f72:	2c00      	cmp	r4, #0
    2f74:	f43f aeba 	beq.w	2cec <_malloc_r+0x1f0>
    2f78:	421c      	tst	r4, r3
    2f7a:	4640      	mov	r0, r8
    2f7c:	f47f ae35 	bne.w	2bea <_malloc_r+0xee>
    2f80:	0064      	lsls	r4, r4, #1
    2f82:	421c      	tst	r4, r3
    2f84:	f100 0004 	add.w	r0, r0, #4
    2f88:	d0fa      	beq.n	2f80 <_malloc_r+0x484>
    2f8a:	e62e      	b.n	2bea <_malloc_r+0xee>
    2f8c:	f5b3 7faa 	cmp.w	r3, #340	; 0x154
    2f90:	d818      	bhi.n	2fc4 <_malloc_r+0x4c8>
    2f92:	0be8      	lsrs	r0, r5, #15
    2f94:	f100 0e78 	add.w	lr, r0, #120	; 0x78
    2f98:	ea4f 034e 	mov.w	r3, lr, lsl #1
    2f9c:	3077      	adds	r0, #119	; 0x77
    2f9e:	e5cf      	b.n	2b40 <_malloc_r+0x44>
    2fa0:	f44f 5180 	mov.w	r1, #4096	; 0x1000
    2fa4:	e6eb      	b.n	2d7e <_malloc_r+0x282>
    2fa6:	2101      	movs	r1, #1
    2fa8:	f8d8 3004 	ldr.w	r3, [r8, #4]
    2fac:	1092      	asrs	r2, r2, #2
    2fae:	fa01 f202 	lsl.w	r2, r1, r2
    2fb2:	431a      	orrs	r2, r3
    2fb4:	f8c8 2004 	str.w	r2, [r8, #4]
    2fb8:	4661      	mov	r1, ip
    2fba:	e777      	b.n	2eac <_malloc_r+0x3b0>
    2fbc:	2301      	movs	r3, #1
    2fbe:	f8cb 3004 	str.w	r3, [fp, #4]
    2fc2:	e725      	b.n	2e10 <_malloc_r+0x314>
    2fc4:	f240 5254 	movw	r2, #1364	; 0x554
    2fc8:	4293      	cmp	r3, r2
    2fca:	d820      	bhi.n	300e <_malloc_r+0x512>
    2fcc:	0ca8      	lsrs	r0, r5, #18
    2fce:	f100 0e7d 	add.w	lr, r0, #125	; 0x7d
    2fd2:	ea4f 034e 	mov.w	r3, lr, lsl #1
    2fd6:	307c      	adds	r0, #124	; 0x7c
    2fd8:	e5b2      	b.n	2b40 <_malloc_r+0x44>
    2fda:	3210      	adds	r2, #16
    2fdc:	e6a4      	b.n	2d28 <_malloc_r+0x22c>
    2fde:	2a54      	cmp	r2, #84	; 0x54
    2fe0:	d826      	bhi.n	3030 <_malloc_r+0x534>
    2fe2:	0b1a      	lsrs	r2, r3, #12
    2fe4:	f102 016f 	add.w	r1, r2, #111	; 0x6f
    2fe8:	0049      	lsls	r1, r1, #1
    2fea:	326e      	adds	r2, #110	; 0x6e
    2fec:	e748      	b.n	2e80 <_malloc_r+0x384>
    2fee:	68bc      	ldr	r4, [r7, #8]
    2ff0:	6862      	ldr	r2, [r4, #4]
    2ff2:	f022 0203 	bic.w	r2, r2, #3
    2ff6:	e705      	b.n	2e04 <_malloc_r+0x308>
    2ff8:	f3ca 000b 	ubfx	r0, sl, #0, #12
    2ffc:	2800      	cmp	r0, #0
    2ffe:	f47f aea8 	bne.w	2d52 <_malloc_r+0x256>
    3002:	4442      	add	r2, r8
    3004:	68bb      	ldr	r3, [r7, #8]
    3006:	f042 0201 	orr.w	r2, r2, #1
    300a:	605a      	str	r2, [r3, #4]
    300c:	e6ec      	b.n	2de8 <_malloc_r+0x2ec>
    300e:	23fe      	movs	r3, #254	; 0xfe
    3010:	f04f 0e7f 	mov.w	lr, #127	; 0x7f
    3014:	207e      	movs	r0, #126	; 0x7e
    3016:	e593      	b.n	2b40 <_malloc_r+0x44>
    3018:	2201      	movs	r2, #1
    301a:	f04f 0900 	mov.w	r9, #0
    301e:	e6c1      	b.n	2da4 <_malloc_r+0x2a8>
    3020:	f104 0108 	add.w	r1, r4, #8
    3024:	4630      	mov	r0, r6
    3026:	f000 f8fb 	bl	3220 <_free_r>
    302a:	f8d9 1000 	ldr.w	r1, [r9]
    302e:	e6db      	b.n	2de8 <_malloc_r+0x2ec>
    3030:	f5b2 7faa 	cmp.w	r2, #340	; 0x154
    3034:	d805      	bhi.n	3042 <_malloc_r+0x546>
    3036:	0bda      	lsrs	r2, r3, #15
    3038:	f102 0178 	add.w	r1, r2, #120	; 0x78
    303c:	0049      	lsls	r1, r1, #1
    303e:	3277      	adds	r2, #119	; 0x77
    3040:	e71e      	b.n	2e80 <_malloc_r+0x384>
    3042:	f240 5154 	movw	r1, #1364	; 0x554
    3046:	428a      	cmp	r2, r1
    3048:	d805      	bhi.n	3056 <_malloc_r+0x55a>
    304a:	0c9a      	lsrs	r2, r3, #18
    304c:	f102 017d 	add.w	r1, r2, #125	; 0x7d
    3050:	0049      	lsls	r1, r1, #1
    3052:	327c      	adds	r2, #124	; 0x7c
    3054:	e714      	b.n	2e80 <_malloc_r+0x384>
    3056:	21fe      	movs	r1, #254	; 0xfe
    3058:	227e      	movs	r2, #126	; 0x7e
    305a:	e711      	b.n	2e80 <_malloc_r+0x384>
    305c:	687b      	ldr	r3, [r7, #4]
    305e:	e784      	b.n	2f6a <_malloc_r+0x46e>
    3060:	08e8      	lsrs	r0, r5, #3
    3062:	1c43      	adds	r3, r0, #1
    3064:	005b      	lsls	r3, r3, #1
    3066:	e5f8      	b.n	2c5a <_malloc_r+0x15e>
    3068:	1fff8cb4 	.word	0x1fff8cb4

0000306c <__malloc_lock>:
__malloc_lock():
    306c:	4770      	bx	lr
    306e:	bf00      	nop

00003070 <__malloc_unlock>:
__malloc_unlock():
    3070:	4770      	bx	lr
    3072:	bf00      	nop

00003074 <_sbrk_r>:
_sbrk_r():
    3074:	b538      	push	{r3, r4, r5, lr}
    3076:	4c07      	ldr	r4, [pc, #28]	; (3094 <_sbrk_r+0x20>)
    3078:	2300      	movs	r3, #0
    307a:	4605      	mov	r5, r0
    307c:	4608      	mov	r0, r1
    307e:	6023      	str	r3, [r4, #0]
    3080:	f7fd fff0 	bl	1064 <_sbrk>
    3084:	1c43      	adds	r3, r0, #1
    3086:	d000      	beq.n	308a <_sbrk_r+0x16>
    3088:	bd38      	pop	{r3, r4, r5, pc}
    308a:	6823      	ldr	r3, [r4, #0]
    308c:	2b00      	cmp	r3, #0
    308e:	d0fb      	beq.n	3088 <_sbrk_r+0x14>
    3090:	602b      	str	r3, [r5, #0]
    3092:	bd38      	pop	{r3, r4, r5, pc}
    3094:	1fff945c 	.word	0x1fff945c

00003098 <__register_exitproc>:
__register_exitproc():
    3098:	e92d 47f0 	stmdb	sp!, {r4, r5, r6, r7, r8, r9, sl, lr}
    309c:	4c25      	ldr	r4, [pc, #148]	; (3134 <__register_exitproc+0x9c>)
    309e:	6825      	ldr	r5, [r4, #0]
    30a0:	f8d5 4148 	ldr.w	r4, [r5, #328]	; 0x148
    30a4:	4606      	mov	r6, r0
    30a6:	4688      	mov	r8, r1
    30a8:	4692      	mov	sl, r2
    30aa:	4699      	mov	r9, r3
    30ac:	b3c4      	cbz	r4, 3120 <__register_exitproc+0x88>
    30ae:	6860      	ldr	r0, [r4, #4]
    30b0:	281f      	cmp	r0, #31
    30b2:	dc17      	bgt.n	30e4 <__register_exitproc+0x4c>
    30b4:	1c43      	adds	r3, r0, #1
    30b6:	b176      	cbz	r6, 30d6 <__register_exitproc+0x3e>
    30b8:	eb04 0580 	add.w	r5, r4, r0, lsl #2
    30bc:	2201      	movs	r2, #1
    30be:	f8c5 a088 	str.w	sl, [r5, #136]	; 0x88
    30c2:	f8d4 1188 	ldr.w	r1, [r4, #392]	; 0x188
    30c6:	4082      	lsls	r2, r0
    30c8:	4311      	orrs	r1, r2
    30ca:	2e02      	cmp	r6, #2
    30cc:	f8c4 1188 	str.w	r1, [r4, #392]	; 0x188
    30d0:	f8c5 9108 	str.w	r9, [r5, #264]	; 0x108
    30d4:	d01e      	beq.n	3114 <__register_exitproc+0x7c>
    30d6:	3002      	adds	r0, #2
    30d8:	6063      	str	r3, [r4, #4]
    30da:	f844 8020 	str.w	r8, [r4, r0, lsl #2]
    30de:	2000      	movs	r0, #0
    30e0:	e8bd 87f0 	ldmia.w	sp!, {r4, r5, r6, r7, r8, r9, sl, pc}
    30e4:	4b14      	ldr	r3, [pc, #80]	; (3138 <__register_exitproc+0xa0>)
    30e6:	b303      	cbz	r3, 312a <__register_exitproc+0x92>
    30e8:	f44f 70c8 	mov.w	r0, #400	; 0x190
    30ec:	f7ff fcf6 	bl	2adc <malloc>
    30f0:	4604      	mov	r4, r0
    30f2:	b1d0      	cbz	r0, 312a <__register_exitproc+0x92>
    30f4:	f8d5 3148 	ldr.w	r3, [r5, #328]	; 0x148
    30f8:	2700      	movs	r7, #0
    30fa:	e880 0088 	stmia.w	r0, {r3, r7}
    30fe:	f8c5 4148 	str.w	r4, [r5, #328]	; 0x148
    3102:	4638      	mov	r0, r7
    3104:	2301      	movs	r3, #1
    3106:	f8c4 7188 	str.w	r7, [r4, #392]	; 0x188
    310a:	f8c4 718c 	str.w	r7, [r4, #396]	; 0x18c
    310e:	2e00      	cmp	r6, #0
    3110:	d0e1      	beq.n	30d6 <__register_exitproc+0x3e>
    3112:	e7d1      	b.n	30b8 <__register_exitproc+0x20>
    3114:	f8d4 118c 	ldr.w	r1, [r4, #396]	; 0x18c
    3118:	430a      	orrs	r2, r1
    311a:	f8c4 218c 	str.w	r2, [r4, #396]	; 0x18c
    311e:	e7da      	b.n	30d6 <__register_exitproc+0x3e>
    3120:	f505 74a6 	add.w	r4, r5, #332	; 0x14c
    3124:	f8c5 4148 	str.w	r4, [r5, #328]	; 0x148
    3128:	e7c1      	b.n	30ae <__register_exitproc+0x16>
    312a:	f04f 30ff 	mov.w	r0, #4294967295
    312e:	e8bd 87f0 	ldmia.w	sp!, {r4, r5, r6, r7, r8, r9, sl, pc}
    3132:	bf00      	nop
    3134:	00003608 	.word	0x00003608
    3138:	00002add 	.word	0x00002add

0000313c <register_fini>:
register_fini():
    313c:	4b02      	ldr	r3, [pc, #8]	; (3148 <register_fini+0xc>)
    313e:	b113      	cbz	r3, 3146 <register_fini+0xa>
    3140:	4802      	ldr	r0, [pc, #8]	; (314c <register_fini+0x10>)
    3142:	f000 b805 	b.w	3150 <atexit>
    3146:	4770      	bx	lr
    3148:	00000000 	.word	0x00000000
    314c:	0000315d 	.word	0x0000315d

00003150 <atexit>:
atexit():
    3150:	2300      	movs	r3, #0
    3152:	4601      	mov	r1, r0
    3154:	461a      	mov	r2, r3
    3156:	4618      	mov	r0, r3
    3158:	f7ff bf9e 	b.w	3098 <__register_exitproc>

0000315c <__libc_fini_array>:
__libc_fini_array():
    315c:	b538      	push	{r3, r4, r5, lr}
    315e:	4d07      	ldr	r5, [pc, #28]	; (317c <__libc_fini_array+0x20>)
    3160:	4c07      	ldr	r4, [pc, #28]	; (3180 <__libc_fini_array+0x24>)
    3162:	1b2c      	subs	r4, r5, r4
    3164:	10a4      	asrs	r4, r4, #2
    3166:	d005      	beq.n	3174 <__libc_fini_array+0x18>
    3168:	3c01      	subs	r4, #1
    316a:	f855 3d04 	ldr.w	r3, [r5, #-4]!
    316e:	4798      	blx	r3
    3170:	2c00      	cmp	r4, #0
    3172:	d1f9      	bne.n	3168 <__libc_fini_array+0xc>
    3174:	e8bd 4038 	ldmia.w	sp!, {r3, r4, r5, lr}
    3178:	f000 ba5a 	b.w	3630 <__init_array_end>
	...

00003184 <_malloc_trim_r>:
_malloc_trim_r():
    3184:	b5f8      	push	{r3, r4, r5, r6, r7, lr}
    3186:	4f23      	ldr	r7, [pc, #140]	; (3214 <_malloc_trim_r+0x90>)
    3188:	460c      	mov	r4, r1
    318a:	4606      	mov	r6, r0
    318c:	f7ff ff6e 	bl	306c <__malloc_lock>
    3190:	68bb      	ldr	r3, [r7, #8]
    3192:	685d      	ldr	r5, [r3, #4]
    3194:	f025 0503 	bic.w	r5, r5, #3
    3198:	1b29      	subs	r1, r5, r4
    319a:	f601 71ef 	addw	r1, r1, #4079	; 0xfef
    319e:	f421 617f 	bic.w	r1, r1, #4080	; 0xff0
    31a2:	f021 010f 	bic.w	r1, r1, #15
    31a6:	f5a1 5480 	sub.w	r4, r1, #4096	; 0x1000
    31aa:	f5b4 5f80 	cmp.w	r4, #4096	; 0x1000
    31ae:	db07      	blt.n	31c0 <_malloc_trim_r+0x3c>
    31b0:	2100      	movs	r1, #0
    31b2:	4630      	mov	r0, r6
    31b4:	f7ff ff5e 	bl	3074 <_sbrk_r>
    31b8:	68bb      	ldr	r3, [r7, #8]
    31ba:	442b      	add	r3, r5
    31bc:	4298      	cmp	r0, r3
    31be:	d004      	beq.n	31ca <_malloc_trim_r+0x46>
    31c0:	4630      	mov	r0, r6
    31c2:	f7ff ff55 	bl	3070 <__malloc_unlock>
    31c6:	2000      	movs	r0, #0
    31c8:	bdf8      	pop	{r3, r4, r5, r6, r7, pc}
    31ca:	4261      	negs	r1, r4
    31cc:	4630      	mov	r0, r6
    31ce:	f7ff ff51 	bl	3074 <_sbrk_r>
    31d2:	3001      	adds	r0, #1
    31d4:	d00d      	beq.n	31f2 <_malloc_trim_r+0x6e>
    31d6:	4b10      	ldr	r3, [pc, #64]	; (3218 <_malloc_trim_r+0x94>)
    31d8:	68ba      	ldr	r2, [r7, #8]
    31da:	6819      	ldr	r1, [r3, #0]
    31dc:	1b2d      	subs	r5, r5, r4
    31de:	f045 0501 	orr.w	r5, r5, #1
    31e2:	4630      	mov	r0, r6
    31e4:	1b09      	subs	r1, r1, r4
    31e6:	6055      	str	r5, [r2, #4]
    31e8:	6019      	str	r1, [r3, #0]
    31ea:	f7ff ff41 	bl	3070 <__malloc_unlock>
    31ee:	2001      	movs	r0, #1
    31f0:	bdf8      	pop	{r3, r4, r5, r6, r7, pc}
    31f2:	2100      	movs	r1, #0
    31f4:	4630      	mov	r0, r6
    31f6:	f7ff ff3d 	bl	3074 <_sbrk_r>
    31fa:	68ba      	ldr	r2, [r7, #8]
    31fc:	1a83      	subs	r3, r0, r2
    31fe:	2b0f      	cmp	r3, #15
    3200:	ddde      	ble.n	31c0 <_malloc_trim_r+0x3c>
    3202:	4c06      	ldr	r4, [pc, #24]	; (321c <_malloc_trim_r+0x98>)
    3204:	4904      	ldr	r1, [pc, #16]	; (3218 <_malloc_trim_r+0x94>)
    3206:	6824      	ldr	r4, [r4, #0]
    3208:	f043 0301 	orr.w	r3, r3, #1
    320c:	1b00      	subs	r0, r0, r4
    320e:	6053      	str	r3, [r2, #4]
    3210:	6008      	str	r0, [r1, #0]
    3212:	e7d5      	b.n	31c0 <_malloc_trim_r+0x3c>
    3214:	1fff8cb4 	.word	0x1fff8cb4
    3218:	1fff9420 	.word	0x1fff9420
    321c:	1fff90c0 	.word	0x1fff90c0

00003220 <_free_r>:
_free_r():
    3220:	2900      	cmp	r1, #0
    3222:	d045      	beq.n	32b0 <_free_r+0x90>
    3224:	e92d 41f0 	stmdb	sp!, {r4, r5, r6, r7, r8, lr}
    3228:	460d      	mov	r5, r1
    322a:	4680      	mov	r8, r0
    322c:	f7ff ff1e 	bl	306c <__malloc_lock>
    3230:	f855 7c04 	ldr.w	r7, [r5, #-4]
    3234:	496a      	ldr	r1, [pc, #424]	; (33e0 <_free_r+0x1c0>)
    3236:	f027 0301 	bic.w	r3, r7, #1
    323a:	f1a5 0408 	sub.w	r4, r5, #8
    323e:	18e2      	adds	r2, r4, r3
    3240:	688e      	ldr	r6, [r1, #8]
    3242:	6850      	ldr	r0, [r2, #4]
    3244:	42b2      	cmp	r2, r6
    3246:	f020 0003 	bic.w	r0, r0, #3
    324a:	d062      	beq.n	3312 <_free_r+0xf2>
    324c:	07fe      	lsls	r6, r7, #31
    324e:	6050      	str	r0, [r2, #4]
    3250:	d40b      	bmi.n	326a <_free_r+0x4a>
    3252:	f855 7c08 	ldr.w	r7, [r5, #-8]
    3256:	1be4      	subs	r4, r4, r7
    3258:	f101 0e08 	add.w	lr, r1, #8
    325c:	68a5      	ldr	r5, [r4, #8]
    325e:	4575      	cmp	r5, lr
    3260:	443b      	add	r3, r7
    3262:	d06f      	beq.n	3344 <_free_r+0x124>
    3264:	68e7      	ldr	r7, [r4, #12]
    3266:	60ef      	str	r7, [r5, #12]
    3268:	60bd      	str	r5, [r7, #8]
    326a:	1815      	adds	r5, r2, r0
    326c:	686d      	ldr	r5, [r5, #4]
    326e:	07ed      	lsls	r5, r5, #31
    3270:	d542      	bpl.n	32f8 <_free_r+0xd8>
    3272:	f043 0201 	orr.w	r2, r3, #1
    3276:	6062      	str	r2, [r4, #4]
    3278:	50e3      	str	r3, [r4, r3]
    327a:	f5b3 7f00 	cmp.w	r3, #512	; 0x200
    327e:	d218      	bcs.n	32b2 <_free_r+0x92>
    3280:	08db      	lsrs	r3, r3, #3
    3282:	1c5a      	adds	r2, r3, #1
    3284:	684d      	ldr	r5, [r1, #4]
    3286:	f851 7032 	ldr.w	r7, [r1, r2, lsl #3]
    328a:	60a7      	str	r7, [r4, #8]
    328c:	2001      	movs	r0, #1
    328e:	109b      	asrs	r3, r3, #2
    3290:	fa00 f303 	lsl.w	r3, r0, r3
    3294:	eb01 00c2 	add.w	r0, r1, r2, lsl #3
    3298:	431d      	orrs	r5, r3
    329a:	3808      	subs	r0, #8
    329c:	60e0      	str	r0, [r4, #12]
    329e:	604d      	str	r5, [r1, #4]
    32a0:	f841 4032 	str.w	r4, [r1, r2, lsl #3]
    32a4:	60fc      	str	r4, [r7, #12]
    32a6:	4640      	mov	r0, r8
    32a8:	e8bd 41f0 	ldmia.w	sp!, {r4, r5, r6, r7, r8, lr}
    32ac:	f7ff bee0 	b.w	3070 <__malloc_unlock>
    32b0:	4770      	bx	lr
    32b2:	0a5a      	lsrs	r2, r3, #9
    32b4:	2a04      	cmp	r2, #4
    32b6:	d853      	bhi.n	3360 <_free_r+0x140>
    32b8:	099a      	lsrs	r2, r3, #6
    32ba:	f102 0739 	add.w	r7, r2, #57	; 0x39
    32be:	007f      	lsls	r7, r7, #1
    32c0:	f102 0538 	add.w	r5, r2, #56	; 0x38
    32c4:	eb01 0087 	add.w	r0, r1, r7, lsl #2
    32c8:	f851 2027 	ldr.w	r2, [r1, r7, lsl #2]
    32cc:	4944      	ldr	r1, [pc, #272]	; (33e0 <_free_r+0x1c0>)
    32ce:	3808      	subs	r0, #8
    32d0:	4290      	cmp	r0, r2
    32d2:	d04d      	beq.n	3370 <_free_r+0x150>
    32d4:	6851      	ldr	r1, [r2, #4]
    32d6:	f021 0103 	bic.w	r1, r1, #3
    32da:	428b      	cmp	r3, r1
    32dc:	d202      	bcs.n	32e4 <_free_r+0xc4>
    32de:	6892      	ldr	r2, [r2, #8]
    32e0:	4290      	cmp	r0, r2
    32e2:	d1f7      	bne.n	32d4 <_free_r+0xb4>
    32e4:	68d0      	ldr	r0, [r2, #12]
    32e6:	60e0      	str	r0, [r4, #12]
    32e8:	60a2      	str	r2, [r4, #8]
    32ea:	6084      	str	r4, [r0, #8]
    32ec:	60d4      	str	r4, [r2, #12]
    32ee:	4640      	mov	r0, r8
    32f0:	e8bd 41f0 	ldmia.w	sp!, {r4, r5, r6, r7, r8, lr}
    32f4:	f7ff bebc 	b.w	3070 <__malloc_unlock>
    32f8:	6895      	ldr	r5, [r2, #8]
    32fa:	4f3a      	ldr	r7, [pc, #232]	; (33e4 <_free_r+0x1c4>)
    32fc:	42bd      	cmp	r5, r7
    32fe:	4403      	add	r3, r0
    3300:	d03f      	beq.n	3382 <_free_r+0x162>
    3302:	68d0      	ldr	r0, [r2, #12]
    3304:	60e8      	str	r0, [r5, #12]
    3306:	f043 0201 	orr.w	r2, r3, #1
    330a:	6085      	str	r5, [r0, #8]
    330c:	6062      	str	r2, [r4, #4]
    330e:	50e3      	str	r3, [r4, r3]
    3310:	e7b3      	b.n	327a <_free_r+0x5a>
    3312:	07ff      	lsls	r7, r7, #31
    3314:	4403      	add	r3, r0
    3316:	d407      	bmi.n	3328 <_free_r+0x108>
    3318:	f855 2c08 	ldr.w	r2, [r5, #-8]
    331c:	1aa4      	subs	r4, r4, r2
    331e:	4413      	add	r3, r2
    3320:	68a0      	ldr	r0, [r4, #8]
    3322:	68e2      	ldr	r2, [r4, #12]
    3324:	60c2      	str	r2, [r0, #12]
    3326:	6090      	str	r0, [r2, #8]
    3328:	4a2f      	ldr	r2, [pc, #188]	; (33e8 <_free_r+0x1c8>)
    332a:	6812      	ldr	r2, [r2, #0]
    332c:	f043 0001 	orr.w	r0, r3, #1
    3330:	4293      	cmp	r3, r2
    3332:	6060      	str	r0, [r4, #4]
    3334:	608c      	str	r4, [r1, #8]
    3336:	d3b6      	bcc.n	32a6 <_free_r+0x86>
    3338:	4b2c      	ldr	r3, [pc, #176]	; (33ec <_free_r+0x1cc>)
    333a:	4640      	mov	r0, r8
    333c:	6819      	ldr	r1, [r3, #0]
    333e:	f7ff ff21 	bl	3184 <_malloc_trim_r>
    3342:	e7b0      	b.n	32a6 <_free_r+0x86>
    3344:	1811      	adds	r1, r2, r0
    3346:	6849      	ldr	r1, [r1, #4]
    3348:	07c9      	lsls	r1, r1, #31
    334a:	d444      	bmi.n	33d6 <_free_r+0x1b6>
    334c:	6891      	ldr	r1, [r2, #8]
    334e:	68d2      	ldr	r2, [r2, #12]
    3350:	60ca      	str	r2, [r1, #12]
    3352:	4403      	add	r3, r0
    3354:	f043 0001 	orr.w	r0, r3, #1
    3358:	6091      	str	r1, [r2, #8]
    335a:	6060      	str	r0, [r4, #4]
    335c:	50e3      	str	r3, [r4, r3]
    335e:	e7a2      	b.n	32a6 <_free_r+0x86>
    3360:	2a14      	cmp	r2, #20
    3362:	d817      	bhi.n	3394 <_free_r+0x174>
    3364:	f102 075c 	add.w	r7, r2, #92	; 0x5c
    3368:	007f      	lsls	r7, r7, #1
    336a:	f102 055b 	add.w	r5, r2, #91	; 0x5b
    336e:	e7a9      	b.n	32c4 <_free_r+0xa4>
    3370:	10aa      	asrs	r2, r5, #2
    3372:	684b      	ldr	r3, [r1, #4]
    3374:	2501      	movs	r5, #1
    3376:	fa05 f202 	lsl.w	r2, r5, r2
    337a:	4313      	orrs	r3, r2
    337c:	604b      	str	r3, [r1, #4]
    337e:	4602      	mov	r2, r0
    3380:	e7b1      	b.n	32e6 <_free_r+0xc6>
    3382:	f043 0201 	orr.w	r2, r3, #1
    3386:	614c      	str	r4, [r1, #20]
    3388:	610c      	str	r4, [r1, #16]
    338a:	60e5      	str	r5, [r4, #12]
    338c:	60a5      	str	r5, [r4, #8]
    338e:	6062      	str	r2, [r4, #4]
    3390:	50e3      	str	r3, [r4, r3]
    3392:	e788      	b.n	32a6 <_free_r+0x86>
    3394:	2a54      	cmp	r2, #84	; 0x54
    3396:	d806      	bhi.n	33a6 <_free_r+0x186>
    3398:	0b1a      	lsrs	r2, r3, #12
    339a:	f102 076f 	add.w	r7, r2, #111	; 0x6f
    339e:	007f      	lsls	r7, r7, #1
    33a0:	f102 056e 	add.w	r5, r2, #110	; 0x6e
    33a4:	e78e      	b.n	32c4 <_free_r+0xa4>
    33a6:	f5b2 7faa 	cmp.w	r2, #340	; 0x154
    33aa:	d806      	bhi.n	33ba <_free_r+0x19a>
    33ac:	0bda      	lsrs	r2, r3, #15
    33ae:	f102 0778 	add.w	r7, r2, #120	; 0x78
    33b2:	007f      	lsls	r7, r7, #1
    33b4:	f102 0577 	add.w	r5, r2, #119	; 0x77
    33b8:	e784      	b.n	32c4 <_free_r+0xa4>
    33ba:	f240 5054 	movw	r0, #1364	; 0x554
    33be:	4282      	cmp	r2, r0
    33c0:	d806      	bhi.n	33d0 <_free_r+0x1b0>
    33c2:	0c9a      	lsrs	r2, r3, #18
    33c4:	f102 077d 	add.w	r7, r2, #125	; 0x7d
    33c8:	007f      	lsls	r7, r7, #1
    33ca:	f102 057c 	add.w	r5, r2, #124	; 0x7c
    33ce:	e779      	b.n	32c4 <_free_r+0xa4>
    33d0:	27fe      	movs	r7, #254	; 0xfe
    33d2:	257e      	movs	r5, #126	; 0x7e
    33d4:	e776      	b.n	32c4 <_free_r+0xa4>
    33d6:	f043 0201 	orr.w	r2, r3, #1
    33da:	6062      	str	r2, [r4, #4]
    33dc:	50e3      	str	r3, [r4, r3]
    33de:	e762      	b.n	32a6 <_free_r+0x86>
    33e0:	1fff8cb4 	.word	0x1fff8cb4
    33e4:	1fff8cbc 	.word	0x1fff8cbc
    33e8:	1fff90bc 	.word	0x1fff90bc
    33ec:	1fff941c 	.word	0x1fff941c

000033f0 <vtable for TeensyTimerTool::FTM_Channel>:
	...
    33f8:	00000c21 1fff8755 1fff8721 00000909     !...U...!.......
    3408:	00000911 00000901 000005a1 000005c1     ................
    3418:	000008f9 000005d9 000008f1 000008e9     ................
    3428:	000008e1 0000059d 000005ed 000008a9     ................

00003438 <vtable for TeensyTimerTool::TckChannel<unsigned long>>:
	...
    3440:	00000d49 00000cd9 0000076d 00000909     I.......m.......
    3450:	0000093d 00000901 00000785 00000799     =...............
    3460:	000008f9 000007a1 000008f1 000008e9     ................
    3470:	000008e1 0000059d 000007bd 00000809     ................
    3480:	000008b9                                ....

00003484 <TeensyTimerTool::FTM0>:
    3484:	00000985                                ....

00003488 <TeensyTimerTool::FTM1>:
    3488:	00000a65                                e...

0000348c <TeensyTimerTool::FTM2>:
    348c:	00000b45                                E...

00003490 <TeensyTimerTool::TCK>:
    3490:	00000829                                )...

00003494 <vtable for EventResponder>:
	...
    349c:	00000f19                                ....

000034a0 <digital_pin_to_info_PGM>:
    34a0:	43fe0840 4004a040 43fe0844 4004a044     @..C@..@D..CD..@
    34b0:	43fe1800 4004c000 43fe0030 40049030     ...C...@0..C0..@
    34c0:	43fe0034 40049034 43fe181c 4004c01c     4..C4..@...C...@
    34d0:	43fe1810 4004c010 43fe1808 4004c008     ...C...@...C...@
    34e0:	43fe180c 4004c00c 43fe100c 4004b00c     ...C...@...C...@
    34f0:	43fe1010 4004b010 43fe1018 4004b018     ...C...@...C...@
    3500:	43fe101c 4004b01c 43fe1014 4004b014     ...C...@...C...@
    3510:	43fe1804 4004c004 43fe1000 4004b000     ...C...@...C...@
    3520:	43fe0800 4004a000 43fe0804 4004a004     ...C...@...C...@
    3530:	43fe080c 4004a00c 43fe0808 4004a008     ...C...@...C...@
    3540:	43fe1814 4004c014 43fe1818 4004c018     ...C...@...C...@
    3550:	43fe1004 4004b004 43fe1008 4004b008     ...C...@...C...@
    3560:	43fe0014 40049014 43fe084c 4004a04c     ...C...@L..CL..@
    3570:	43fe2004 4004d004 43fe1024 4004b024     . .C...@$..C$..@
    3580:	43fe1020 4004b020 43fe1028 4004b028      ..C ..@(..C(..@
    3590:	43fe102c 4004b02c 43fe2000 4004d000     ,..C,..@. .C...@
    35a0:	43fe0848 4004a048 43fe0010 40049010     H..CH..@...C...@

000035b0 <usb_endpoint_config_table>:
    35b0:	15191500                                ....

000035b4 <usb_descriptor_list>:
    35b4:	00000100 1fff87dc 00000012 00000200     ................
    35c4:	1fff8808 00000043 00000300 1fff8864     ....C.......d...
    35d4:	00000000 04090301 1fff87f0 00000000     ................
    35e4:	04090302 1fff884c 00000000 04090303     ....L...........
    35f4:	1fff8868 00000000 00000000 00000000     h...............
    3604:	00000000                                ....

00003608 <_global_impure_ptr>:
    3608:	1fff8888                                ....

0000360c <_init>:
_init():
    360c:	b5f8      	push	{r3, r4, r5, r6, r7, lr}
    360e:	bf00      	nop
    3610:	bcf8      	pop	{r3, r4, r5, r6, r7}
    3612:	bc08      	pop	{r3}
    3614:	469e      	mov	lr, r3
    3616:	4770      	bx	lr

00003618 <__init_array_start>:
__preinit_array_start():
    3618:	0000313d 	.word	0x0000313d

0000361c <__frame_dummy_init_array_entry>:
    361c:	00000435 0000055d 00000df1 00000ed9     5...]...........
    362c:	00000fed                                ....

Disassembly of section .fini:

00003630 <_fini>:
_fini():
    3630:	b5f8      	push	{r3, r4, r5, r6, r7, lr}
    3632:	bf00      	nop

Disassembly of section .data:

1fff8720 <TeensyTimerTool::FTM_Channel::triggerDirect(unsigned long)>:
_ZN15TeensyTimerTool11FTM_Channel13triggerDirectEm():
C:\Users\lutz\source\Teensy\tttest/lib/TeensyTimerTool/src//Teensy/FTM/FTM_Channel.h:89
1fff8720:	6882      	ldr	r2, [r0, #8]
C:\Users\lutz\source\Teensy\tttest/lib/TeensyTimerTool/src//Teensy/FTM/FTM_Channel.h:88
1fff8722:	68c3      	ldr	r3, [r0, #12]
C:\Users\lutz\source\Teensy\tttest/lib/TeensyTimerTool/src//Teensy/FTM/FTM_Channel.h:87
1fff8724:	b430      	push	{r4, r5}
C:\Users\lutz\source\Teensy\tttest/lib/TeensyTimerTool/src//Teensy/FTM/FTM_Channel.h:89
1fff8726:	6994      	ldr	r4, [r2, #24]
C:\Users\lutz\source\Teensy\tttest/lib/TeensyTimerTool/src//Teensy/FTM/FTM_Channel.h:88
1fff8728:	685a      	ldr	r2, [r3, #4]
C:\Users\lutz\source\Teensy\tttest/lib/TeensyTimerTool/src//Teensy/FTM/FTM_Channel.h:89
1fff872a:	6820      	ldr	r0, [r4, #0]
1fff872c:	f020 0080 	bic.w	r0, r0, #128	; 0x80
1fff8730:	6020      	str	r0, [r4, #0]
C:\Users\lutz\source\Teensy\tttest/lib/TeensyTimerTool/src//Teensy/FTM/FTM_Channel.h:91
1fff8732:	6818      	ldr	r0, [r3, #0]
C:\Users\lutz\source\Teensy\tttest/lib/TeensyTimerTool/src//Teensy/FTM/FTM_Channel.h:88
1fff8734:	3201      	adds	r2, #1
1fff8736:	4411      	add	r1, r2
C:\Users\lutz\source\Teensy\tttest/lib/TeensyTimerTool/src//Teensy/FTM/FTM_Channel.h:91
1fff8738:	f020 0018 	bic.w	r0, r0, #24
1fff873c:	6018      	str	r0, [r3, #0]
C:\Users\lutz\source\Teensy\tttest/lib/TeensyTimerTool/src//Teensy/FTM/FTM_Channel.h:92
1fff873e:	6061      	str	r1, [r4, #4]
C:\Users\lutz\source\Teensy\tttest/lib/TeensyTimerTool/src//Teensy/FTM/FTM_Channel.h:93
1fff8740:	681a      	ldr	r2, [r3, #0]
C:\Users\lutz\source\Teensy\tttest/lib/TeensyTimerTool/src//Teensy/FTM/FTM_Channel.h:95
1fff8742:	2550      	movs	r5, #80	; 0x50
C:\Users\lutz\source\Teensy\tttest/lib/TeensyTimerTool/src//Teensy/FTM/FTM_Channel.h:93
1fff8744:	f042 0208 	orr.w	r2, r2, #8
1fff8748:	601a      	str	r2, [r3, #0]
C:\Users\lutz\source\Teensy\tttest/lib/TeensyTimerTool/src//Teensy/FTM/FTM_Channel.h:98
1fff874a:	2000      	movs	r0, #0
C:\Users\lutz\source\Teensy\tttest/lib/TeensyTimerTool/src//Teensy/FTM/FTM_Channel.h:95
1fff874c:	6025      	str	r5, [r4, #0]
C:\Users\lutz\source\Teensy\tttest/lib/TeensyTimerTool/src//Teensy/FTM/FTM_Channel.h:98
1fff874e:	bc30      	pop	{r4, r5}
1fff8750:	4770      	bx	lr
1fff8752:	bf00      	nop

1fff8754 <TeensyTimerTool::FTM_Channel::trigger(float)>:
_ZN15TeensyTimerTool11FTM_Channel7triggerEf():
C:\Users\lutz\source\Teensy\tttest/lib/TeensyTimerTool/src//Teensy/FTM/FTM_Channel.h:82
1fff8754:	b570      	push	{r4, r5, r6, lr}
1fff8756:	4604      	mov	r4, r0
1fff8758:	4608      	mov	r0, r1
_ZN15TeensyTimerTool11FTM_Channel15ticksFromMicrosEf():
C:\Users\lutz\source\Teensy\tttest/lib/TeensyTimerTool/src//Teensy/FTM/FTM_Channel.h:107
1fff875a:	68a2      	ldr	r2, [r4, #8]
_ZN15TeensyTimerTool11FTM_Channel7triggerEf():
C:\Users\lutz\source\Teensy\tttest/lib/TeensyTimerTool/src//Teensy/FTM/FTM_Channel.h:83
1fff875c:	6823      	ldr	r3, [r4, #0]
_ZN15TeensyTimerTool11FTM_Channel15ticksFromMicrosEf():
C:\Users\lutz\source\Teensy\tttest/lib/TeensyTimerTool/src//Teensy/FTM/FTM_Channel.h:107
1fff875e:	69d1      	ldr	r1, [r2, #28]
_ZN15TeensyTimerTool11FTM_Channel7triggerEf():
C:\Users\lutz\source\Teensy\tttest/lib/TeensyTimerTool/src//Teensy/FTM/FTM_Channel.h:83
1fff8760:	689d      	ldr	r5, [r3, #8]
_ZN15TeensyTimerTool11FTM_Channel15ticksFromMicrosEf():
C:\Users\lutz\source\Teensy\tttest/lib/TeensyTimerTool/src//Teensy/FTM/FTM_Channel.h:107
1fff8762:	f000 f819 	bl	1fff8798 <____aeabi_fmul_veneer>
1fff8766:	f000 f81b 	bl	1fff87a0 <____aeabi_f2uiz_veneer>
C:\Users\lutz\source\Teensy\tttest/lib/TeensyTimerTool/src//Teensy/FTM/FTM_Channel.h:108
1fff876a:	f5b0 3f80 	cmp.w	r0, #65536	; 0x10000
1fff876e:	d205      	bcs.n	1fff877c <TeensyTimerTool::FTM_Channel::trigger(float)+0x28>
1fff8770:	4601      	mov	r1, r0
_ZN15TeensyTimerTool11FTM_Channel7triggerEf():
C:\Users\lutz\source\Teensy\tttest/lib/TeensyTimerTool/src//Teensy/FTM/FTM_Channel.h:83
1fff8772:	462b      	mov	r3, r5
1fff8774:	4620      	mov	r0, r4
C:\Users\lutz\source\Teensy\tttest/lib/TeensyTimerTool/src//Teensy/FTM/FTM_Channel.h:84
1fff8776:	e8bd 4070 	ldmia.w	sp!, {r4, r5, r6, lr}
C:\Users\lutz\source\Teensy\tttest/lib/TeensyTimerTool/src//Teensy/FTM/FTM_Channel.h:83
1fff877a:	4718      	bx	r3
_ZN15TeensyTimerTool11FTM_Channel15ticksFromMicrosEf():
C:\Users\lutz\source\Teensy\tttest/lib/TeensyTimerTool/src//Teensy/FTM/FTM_Channel.h:110
1fff877c:	f06f 0063 	mvn.w	r0, #99	; 0x63
1fff8780:	f000 f812 	bl	1fff87a8 <___ZN15TeensyTimerTool9postErrorENS_9errorCodeE_veneer>
_ZN15TeensyTimerTool11FTM_Channel7triggerEf():
C:\Users\lutz\source\Teensy\tttest/lib/TeensyTimerTool/src//Teensy/FTM/FTM_Channel.h:83
1fff8784:	4620      	mov	r0, r4
1fff8786:	462b      	mov	r3, r5
_ZN15TeensyTimerTool11FTM_Channel15ticksFromMicrosEf():
C:\Users\lutz\source\Teensy\tttest/lib/TeensyTimerTool/src//Teensy/FTM/FTM_Channel.h:111
1fff8788:	f64f 71ff 	movw	r1, #65535	; 0xffff
_ZN15TeensyTimerTool11FTM_Channel7triggerEf():
C:\Users\lutz\source\Teensy\tttest/lib/TeensyTimerTool/src//Teensy/FTM/FTM_Channel.h:84
1fff878c:	e8bd 4070 	ldmia.w	sp!, {r4, r5, r6, lr}
C:\Users\lutz\source\Teensy\tttest/lib/TeensyTimerTool/src//Teensy/FTM/FTM_Channel.h:83
1fff8790:	4718      	bx	r3
1fff8792:	bf00      	nop
1fff8794:	0000      	movs	r0, r0
	...

1fff8798 <____aeabi_fmul_veneer>:
____aeabi_fmul_veneer():
1fff8798:	f85f f000 	ldr.w	pc, [pc]	; 1fff879c <____aeabi_fmul_veneer+0x4>
1fff879c:	0000269d 	.word	0x0000269d

1fff87a0 <____aeabi_f2uiz_veneer>:
____aeabi_f2uiz_veneer():
1fff87a0:	f85f f000 	ldr.w	pc, [pc]	; 1fff87a4 <____aeabi_f2uiz_veneer+0x4>
1fff87a4:	00002a29 	.word	0x00002a29

1fff87a8 <___ZN15TeensyTimerTool9postErrorENS_9errorCodeE_veneer>:
___ZN15TeensyTimerTool9postErrorENS_9errorCodeE_veneer():
1fff87a8:	f85f f000 	ldr.w	pc, [pc]	; 1fff87ac <___ZN15TeensyTimerTool9postErrorENS_9errorCodeE_veneer+0x4>
1fff87ac:	00000eb5 	.word	0x00000eb5

1fff87b0 <__dso_handle>:
1fff87b0:	00000000                                ....

1fff87b4 <TeensyTimerTool::er>:
1fff87b4:	0000349c 00000000 00000000 00000000     .4..............
	...

1fff87d4 <__brkval>:
1fff87d4:	1fff9460                                `...

1fff87d8 <yield_active_check_flags>:
1fff87d8:	                                         .

1fff87d9 <_serialEvent_default>:
1fff87d9:	                                         .

1fff87da <analog_config_bits>:
1fff87da:	                                         .

1fff87db <analog_num_average>:
1fff87db:	                                         .

1fff87dc <device_descriptor>:
1fff87dc:	01100112 40000002 048316c0 02010275     .......@....u...
1fff87ec:	00000103                                ....

1fff87f0 <usb_string_manufacturer_name_default>:
1fff87f0:	00540318 00650065 0073006e 00640079     ..T.e.e.n.s.y.d.
1fff8800:	00690075 006f006e                       u.i.n.o.

1fff8808 <config_descriptor>:
1fff8808:	00430209 c0000102 00040932 02020100     ..C.....2.......
1fff8818:	24050001 05011000 01010124 06022404     ...$....$....$..
1fff8828:	00062405 82050701 40001003 00010409     .$.........@....
1fff8838:	00000a02 03050700 00004002 02840507     .........@......
1fff8848:	00000040                                @...

1fff884c <usb_string_product_name_default>:
1fff884c:	00550316 00420053 00530020 00720065     ..U.S.B. .S.e.r.
1fff885c:	00610069 0000006c                       i.a.l...

1fff8864 <string0>:
1fff8864:	04090304                                ....

1fff8868 <usb_string_serial_number_default>:
1fff8868:	0000030c 00000000 00000000 00000000     ................
	...

1fff8880 <usb_buffer_available>:
1fff8880:	ffffffff 00000000                       ........

1fff8888 <impure_data>:
1fff8888:	00000000 1fff8b74 1fff8bdc 1fff8c44     ....t.......D...
	...
1fff8930:	00000001 00000000 abcd330e e66d1234     .........3..4.m.
1fff8940:	0005deec 0000000b 00000000 00000000     ................
	...

1fff8cb0 <_impure_ptr>:
1fff8cb0:	1fff8888                                ....

1fff8cb4 <__malloc_av_>:
	...
1fff8cbc:	1fff8cb4 1fff8cb4 1fff8cbc 1fff8cbc     ................
1fff8ccc:	1fff8cc4 1fff8cc4 1fff8ccc 1fff8ccc     ................
1fff8cdc:	1fff8cd4 1fff8cd4 1fff8cdc 1fff8cdc     ................
1fff8cec:	1fff8ce4 1fff8ce4 1fff8cec 1fff8cec     ................
1fff8cfc:	1fff8cf4 1fff8cf4 1fff8cfc 1fff8cfc     ................
1fff8d0c:	1fff8d04 1fff8d04 1fff8d0c 1fff8d0c     ................
1fff8d1c:	1fff8d14 1fff8d14 1fff8d1c 1fff8d1c     ................
1fff8d2c:	1fff8d24 1fff8d24 1fff8d2c 1fff8d2c     $...$...,...,...
1fff8d3c:	1fff8d34 1fff8d34 1fff8d3c 1fff8d3c     4...4...<...<...
1fff8d4c:	1fff8d44 1fff8d44 1fff8d4c 1fff8d4c     D...D...L...L...
1fff8d5c:	1fff8d54 1fff8d54 1fff8d5c 1fff8d5c     T...T...\...\...
1fff8d6c:	1fff8d64 1fff8d64 1fff8d6c 1fff8d6c     d...d...l...l...
1fff8d7c:	1fff8d74 1fff8d74 1fff8d7c 1fff8d7c     t...t...|...|...
1fff8d8c:	1fff8d84 1fff8d84 1fff8d8c 1fff8d8c     ................
1fff8d9c:	1fff8d94 1fff8d94 1fff8d9c 1fff8d9c     ................
1fff8dac:	1fff8da4 1fff8da4 1fff8dac 1fff8dac     ................
1fff8dbc:	1fff8db4 1fff8db4 1fff8dbc 1fff8dbc     ................
1fff8dcc:	1fff8dc4 1fff8dc4 1fff8dcc 1fff8dcc     ................
1fff8ddc:	1fff8dd4 1fff8dd4 1fff8ddc 1fff8ddc     ................
1fff8dec:	1fff8de4 1fff8de4 1fff8dec 1fff8dec     ................
1fff8dfc:	1fff8df4 1fff8df4 1fff8dfc 1fff8dfc     ................
1fff8e0c:	1fff8e04 1fff8e04 1fff8e0c 1fff8e0c     ................
1fff8e1c:	1fff8e14 1fff8e14 1fff8e1c 1fff8e1c     ................
1fff8e2c:	1fff8e24 1fff8e24 1fff8e2c 1fff8e2c     $...$...,...,...
1fff8e3c:	1fff8e34 1fff8e34 1fff8e3c 1fff8e3c     4...4...<...<...
1fff8e4c:	1fff8e44 1fff8e44 1fff8e4c 1fff8e4c     D...D...L...L...
1fff8e5c:	1fff8e54 1fff8e54 1fff8e5c 1fff8e5c     T...T...\...\...
1fff8e6c:	1fff8e64 1fff8e64 1fff8e6c 1fff8e6c     d...d...l...l...
1fff8e7c:	1fff8e74 1fff8e74 1fff8e7c 1fff8e7c     t...t...|...|...
1fff8e8c:	1fff8e84 1fff8e84 1fff8e8c 1fff8e8c     ................
1fff8e9c:	1fff8e94 1fff8e94 1fff8e9c 1fff8e9c     ................
1fff8eac:	1fff8ea4 1fff8ea4 1fff8eac 1fff8eac     ................
1fff8ebc:	1fff8eb4 1fff8eb4 1fff8ebc 1fff8ebc     ................
1fff8ecc:	1fff8ec4 1fff8ec4 1fff8ecc 1fff8ecc     ................
1fff8edc:	1fff8ed4 1fff8ed4 1fff8edc 1fff8edc     ................
1fff8eec:	1fff8ee4 1fff8ee4 1fff8eec 1fff8eec     ................
1fff8efc:	1fff8ef4 1fff8ef4 1fff8efc 1fff8efc     ................
1fff8f0c:	1fff8f04 1fff8f04 1fff8f0c 1fff8f0c     ................
1fff8f1c:	1fff8f14 1fff8f14 1fff8f1c 1fff8f1c     ................
1fff8f2c:	1fff8f24 1fff8f24 1fff8f2c 1fff8f2c     $...$...,...,...
1fff8f3c:	1fff8f34 1fff8f34 1fff8f3c 1fff8f3c     4...4...<...<...
1fff8f4c:	1fff8f44 1fff8f44 1fff8f4c 1fff8f4c     D...D...L...L...
1fff8f5c:	1fff8f54 1fff8f54 1fff8f5c 1fff8f5c     T...T...\...\...
1fff8f6c:	1fff8f64 1fff8f64 1fff8f6c 1fff8f6c     d...d...l...l...
1fff8f7c:	1fff8f74 1fff8f74 1fff8f7c 1fff8f7c     t...t...|...|...
1fff8f8c:	1fff8f84 1fff8f84 1fff8f8c 1fff8f8c     ................
1fff8f9c:	1fff8f94 1fff8f94 1fff8f9c 1fff8f9c     ................
1fff8fac:	1fff8fa4 1fff8fa4 1fff8fac 1fff8fac     ................
1fff8fbc:	1fff8fb4 1fff8fb4 1fff8fbc 1fff8fbc     ................
1fff8fcc:	1fff8fc4 1fff8fc4 1fff8fcc 1fff8fcc     ................
1fff8fdc:	1fff8fd4 1fff8fd4 1fff8fdc 1fff8fdc     ................
1fff8fec:	1fff8fe4 1fff8fe4 1fff8fec 1fff8fec     ................
1fff8ffc:	1fff8ff4 1fff8ff4 1fff8ffc 1fff8ffc     ................
1fff900c:	1fff9004 1fff9004 1fff900c 1fff900c     ................
1fff901c:	1fff9014 1fff9014 1fff901c 1fff901c     ................
1fff902c:	1fff9024 1fff9024 1fff902c 1fff902c     $...$...,...,...
1fff903c:	1fff9034 1fff9034 1fff903c 1fff903c     4...4...<...<...
1fff904c:	1fff9044 1fff9044 1fff904c 1fff904c     D...D...L...L...
1fff905c:	1fff9054 1fff9054 1fff905c 1fff905c     T...T...\...\...
1fff906c:	1fff9064 1fff9064 1fff906c 1fff906c     d...d...l...l...
1fff907c:	1fff9074 1fff9074 1fff907c 1fff907c     t...t...|...|...
1fff908c:	1fff9084 1fff9084 1fff908c 1fff908c     ................
1fff909c:	1fff9094 1fff9094 1fff909c 1fff909c     ................
1fff90ac:	1fff90a4 1fff90a4 1fff90ac 1fff90ac     ................

1fff90bc <__malloc_trim_threshold>:
1fff90bc:	00020000                                ....

1fff90c0 <__malloc_sbrk_base>:
1fff90c0:	ffffffff                                ....
