
tttest32.elf:     file format elf32-littlearm
tttest32.elf

SYMBOL TABLE:
00000000 l    d  .text	00000000 .text
00003630 l    d  .fini	00000000 .fini
1fff8000 l    d  .usbdescriptortable	00000000 .usbdescriptortable
1fff8200 l    d  .dmabuffers	00000000 .dmabuffers
1fff83bc l    d  .usbbuffers	00000000 .usbbuffers
1fff8720 l    d  .data	00000000 .data
1fff90c4 l    d  .bss	00000000 .bss
00000000 l    d  .ARM.attributes	00000000 .ARM.attributes
00000000 l    d  .comment	00000000 .comment
00000000 l    d  .debug_info	00000000 .debug_info
00000000 l    d  .debug_abbrev	00000000 .debug_abbrev
00000000 l    d  .debug_loc	00000000 .debug_loc
00000000 l    d  .debug_aranges	00000000 .debug_aranges
00000000 l    d  .debug_ranges	00000000 .debug_ranges
00000000 l    d  .debug_line	00000000 .debug_line
00000000 l    d  .debug_str	00000000 .debug_str
00000000 l    d  .debug_frame	00000000 .debug_frame
00000000 l    df *ABS*	00000000 mk20dx128.c
00001054 l     F .text	0000000c startup_default_early_hook
00001060 l     F .text	00000002 startup_default_late_hook
00000000 l    df *ABS*	00000000 crtstuff.c
00000410 l     F .text	00000000 __do_global_dtors_aux
1fff90c4 l       .bss	00000000 completed.8603
00000434 l     F .text	00000000 frame_dummy
1fff90c8 l       .bss	00000000 object.8608
0000361c l     O .text	00000000 __frame_dummy_init_array_entry
00000000 l    df *ABS*	00000000 main.cpp
0000046c l     F .text	0000000c std::_Function_handler<void (), setup::{lambda()#1}>::_M_invoke(std::_Any_data const&)
00000478 l     F .text	0000000a std::_Function_base::_Base_manager<setup::{lambda()#1}>::_M_manager(std::_Any_data&, std::_Function_base::_Base_manager<setup::{lambda()#1}> const&, std::_Manager_operation)
0000055c l     F .text	00000040 _GLOBAL__sub_I_t1
1fff90f0 l     O .bss	00000010 TeensyTimerTool::timerPool
00000000 l    df *ABS*	00000000 config.cpp
000006f4 l     F .text	00000020 __tcf_0
00000714 l     F .text	0000002c __tcf_1
00000740 l     F .text	0000002c __tcf_2
00000df0 l     F .text	000000a0 _GLOBAL__sub_I__ZN15TeensyTimerTool3TCKE
00000000 l    df *ABS*	00000000 baseTimer.cpp
00000000 l    df *ABS*	00000000 error_handler.cpp
00000ed8 l     F .text	00000020 _GLOBAL__sub_I__ZN15TeensyTimerTool12ErrorHandlerC2ER6Stream
00000000 l    df *ABS*	00000000 TCK.cpp
00000f30 l     F .text	0000005c TeensyTimerTool::initYieldHook()::{lambda(EventResponder&)#1}::_FUN(EventResponder&)
00000fec l     F .text	00000018 _GLOBAL__sub_I__ZN15TeensyTimerTool5TCK_t13isInitializedE
1fff87b4 l     O .data	00000020 TeensyTimerTool::er
00000000 l    df *ABS*	00000000 pins_teensy.c
00001090 l     F .text	00000078 pinMode.part.2
00000000 l    df *ABS*	00000000 usb_dev.c
1fff92f8 l     O .bss	00000004 ep0_tx_ptr
1fff92fc l     O .bss	00000010 rx_last
1fff930c l     O .bss	00000002 ep0_tx_len
1fff9310 l     O .bss	00000040 ep0_rx0_buf
1fff9350 l     O .bss	00000010 rx_first
1fff9360 l     O .bss	00000001 ep0_tx_data_toggle
1fff9364 l     O .bss	00000040 ep0_rx1_buf
1fff93a4 l     O .bss	00000010 tx_first
1fff8000 l     O .usbdescriptortable	000000a0 table
1fff93b4 l     O .bss	00000010 tx_last
1fff93c4 l     O .bss	00000008 setup
1fff93cc l     O .bss	00000001 ep0_tx_bdt_bank
1fff93d0 l     O .bss	00000008 reply_buffer
1fff93dc l     O .bss	00000004 tx_state
00000000 l    df *ABS*	00000000 yield.cpp
1fff93e0 l     O .bss	00000001 yield::running
00000000 l    df *ABS*	00000000 EventResponder.cpp
00000000 l    df *ABS*	00000000 main.cpp
00000000 l    df *ABS*	00000000 serialEvent.cpp
00000000 l    df *ABS*	00000000 new.cpp
00000000 l    df *ABS*	00000000 usb_serial.c
1fff9406 l     O .bss	00000001 tx_noautoflush
1fff9408 l     O .bss	00000004 tx_packet
1fff940c l     O .bss	00000004 rx_packet
00000000 l    df *ABS*	00000000 analog.c
1fff9411 l     O .bss	00000001 calibrating
1fff87da l     O .data	00000001 analog_config_bits
1fff9412 l     O .bss	00000001 analog_reference_internal
1fff87db l     O .data	00000001 analog_num_average
00000000 l    df *ABS*	00000000 usb_desc.c
1fff87dc l     O .data	00000012 device_descriptor
1fff8808 l     O .data	00000043 config_descriptor
00000000 l    df *ABS*	00000000 nonstd.c
00000000 l    df *ABS*	00000000 usb_mem.c
1fff8880 l     O .data	00000004 usb_buffer_available
00000000 l    df *ABS*	00000000 _arm_addsubsf3.o
00000000 l    df *ABS*	00000000 _arm_muldivsf3.o
00000000 l    df *ABS*	00000000 _arm_cmpsf2.o
00000000 l    df *ABS*	00000000 _arm_fixunssfsi.o
00000000 l    df *ABS*	00000000 aeabi_atexit.c
00000000 l    df *ABS*	00000000 cxa_atexit.c
00000000 l    df *ABS*	00000000 errno.c
00000000 l    df *ABS*	00000000 init.c
00000000 l    df *ABS*	00000000 malloc.c
00000000 l    df *ABS*	00000000 mallocr.c
00000000 l    df *ABS*	00000000 mlock.c
00000000 l    df *ABS*	00000000 sbrkr.c
00000000 l    df *ABS*	00000000 __atexit.c
00000000 l    df *ABS*	00000000 __call_atexit.c
0000313c l     F .text	00000014 register_fini
00000000 l    df *ABS*	00000000 atexit.c
00000000 l    df *ABS*	00000000 fini.c
00000000 l    df *ABS*	00000000 mallocr.c
00000000 l    df *ABS*	00000000 impure.c
1fff8888 l     O .data	00000428 impure_data
00000000 l    df *ABS*	00000000 c:/toolchain/gcc/gcc-arm-none-eabi-5_4-2016q3-20160926-win32/bin/../lib/gcc/arm-none-eabi/5.4.1/armv7e-m/crti.o
00000000 l    df *ABS*	00000000 c:/toolchain/gcc/gcc-arm-none-eabi-5_4-2016q3-20160926-win32/bin/../lib/gcc/arm-none-eabi/5.4.1/armv7e-m/crtn.o
00000000 l    df *ABS*	00000000 HardwareSerial.cpp
00000000 l    df *ABS*	00000000 reent.c
00000000 l    df *ABS*	00000000 
1fff90c4 l       .bss	00000000 __bss_start__
1fff9460 l       .bss	00000000 __bss_end__
00000000 l       *UND*	00000000 software_init_hook
00000000 l       *UND*	00000000 hardware_init_hook
00000000 l       *UND*	00000000 __stack
1fff8798 l     F .data	00000008 ____aeabi_fmul_veneer
1fff87a0 l     F .data	00000008 ____aeabi_f2uiz_veneer
1fff87a8 l     F .data	00000008 ___ZN15TeensyTimerTool9postErrorENS_9errorCodeE_veneer
0000104c  w    F .text	00000006 adc0_isr
000021e0 g     F .text	0000001c usb_serial_available
0000064c  w    F .text	00000054 TeensyTimerTool::FTM_t<1u>::isr()
00001f94  w    F .text	000000ec yield
00000908  w    F .text	00000006 TeensyTimerTool::ITimerChannel::triggerDirect(unsigned long long)
1fff87f0 g     O .data	00000018 usb_string_manufacturer_name_default
0000348c g     O .text	00000004 TeensyTimerTool::FTM2
00001004  w    F .text	00000048 hard_fault_isr
0000104c  w    F .text	00000006 dma_ch6_isr
0000104c  w    F .text	00000006 uart0_lon_isr
000012c4 g     F .text	000000c8 usb_rx_memory
000008f8  w    F .text	00000006 TeensyTimerTool::ITimerChannel::setPrescaler(int)
000008e0  w    F .text	00000006 TeensyTimerTool::ITimerChannel::setNextPeriod(unsigned long)
0000104c  w    F .text	00000006 dma_ch8_isr
00003070 g     F .text	00000002 __malloc_unlock
00000c20  w    F .text	000000b8 TeensyTimerTool::FTM_Channel::begin(std::function<void ()>, float, bool)
00002244 g     F .text	000000e0 analog_init
0000138c g     F .text	00000084 usb_tx
00002804 g     F .text	00000136 .hidden __divsf3
0000104c  w    F .text	00000006 portcd_isr
000005ec  w    F .text	00000002 TeensyTimerTool::FTM_Channel::~FTM_Channel()
0000104c  w    F .text	00000006 can1_rx_warn_isr
00003634 g       .fini	00000000 __exidx_end
0000104c  w    F .text	00000006 dma_error_isr
1fff93f4 g     O .bss	00000001 EventResponder::runningFromYield
0000104c  w    F .text	00000006 i2c0_isr
00002a80 g     F .text	0000000c __errno
0000104c  w    F .text	00000006 portd_isr
0000104c  w    F .text	00000006 enet_error_isr
1fff93e4 g     O .bss	00000004 EventResponder::firstInterrupt
000005a0  w    F .text	0000001e TeensyTimerTool::FTM_Channel::start()
0000104c  w    F .text	00000006 tpm1_isr
1fff9290 g     O .bss	00000010 TeensyTimerTool::errFunc
000034a0 g     O .text	00000110 digital_pin_to_info_PGM
1fff945c g     O .bss	00000004 errno
00003634 g       .fini	00000000 _etext
1fff90c4 g       .bss	00000000 _sbss
0000248c g     F .text	00000160 .hidden __aeabi_fadd
00002488 g     F .text	00000164 .hidden __subsf3
0000104c  w    F .text	00000006 porte_isr
00000558 g     F .text	00000002 loop
0000104c  w    F .text	00000006 portb_isr
0000104c  w    F .text	00000006 spi1_isr
0000104c  w    F .text	00000006 uart3_status_isr
0000104c  w    F .text	00000006 mcm_isr
1fff93e8 g     O .bss	00000004 EventResponder::lastInterrupt
0000104c  w    F .text	00000006 uart1_status_isr
0000104c  w    F .text	00000006 randnum_isr
00000798  w    F .text	00000008 TeensyTimerTool::TckChannel<unsigned long>::stop()
00000cd8  w    F .text	00000070 TeensyTimerTool::TckChannel<unsigned long>::trigger(float)
00002a14 g     F .text	00000012 .hidden __aeabi_fcmpgt
1fff92f4 g     O .bss	00000004 systick_millis_count
00001004  w    F .text	00000048 bus_fault_isr
00000828  w    F .text	00000080 TeensyTimerTool::ITimerChannel* TeensyTimerTool::TCK_t::getTimer<unsigned long>()
0000104c  w    F .text	00000006 watchdog_isr
0000104c  w    F .text	00000006 i2c1_isr
1fff93d8 g     O .bss	00000001 usb_configuration
1fff9102  w    O .bss	00000001 TeensyTimerTool::FTM_t<1u>::isInitialized
0000104c  w    F .text	00000006 dma_ch11_isr
00003490 g     O .text	00000004 TeensyTimerTool::TCK
00000000  w      *UND*	00000000 __fini_array_end
0000104c  w    F .text	00000006 i2c2_isr
1fff87f0  w    O .data	00000018 usb_string_manufacturer_name
1fff9448 g     O .bss	00000008 usb_rx_byte_count_data
0000104c  w    F .text	00000006 pit1_isr
00002adc g     F .text	00000010 malloc
0000104c  w    F .text	00000006 dma_ch4_isr
0000104c  w    F .text	00000006 software_isr
0000104c  w    F .text	00000006 dma_ch7_isr
000025f4 g     F .text	0000001c .hidden __aeabi_i2f
00000f18  w    F .text	00000018 EventResponder::triggerEvent(int, void*)
00001edc g     F .text	000000b8 usb_init
1fff9108  w    O .bss	00000004 guard variable for TeensyTimerTool::FTM_t<1u>::channelInfo
00002944 g     F .text	00000066 .hidden __lesf2
0000104c  w    F .text	00000006 lptmr_isr
1fff941c g     O .bss	00000004 __malloc_top_pad
00001118 g     F .text	00000024 rtc_set
1fff87b0 g     O .data	00000000 .hidden __dso_handle
00001108 g     F .text	00000010 attachInterruptVector
1fff8720 g       .data	00000000 _sdata
00000a64  w    F .text	000000e0 TeensyTimerTool::FTM_t<1u>::getTimer()
00003074 g     F .text	00000024 _sbrk_r
000001bc g     F .text	000001d8 ResetHandler
0000104c  w    F .text	00000006 can1_bus_off_isr
00000900  w    F .text	00000006 TeensyTimerTool::ITimerChannel::getTriggerReload(float, unsigned long long*)
0000104c  w    F .text	00000006 ftm2_isr
1fff9450 g     O .bss	00000008 usb_cdc_line_coding
1fff93ec g     O .bss	00000004 EventResponder::lastYield
0000104c  w    F .text	00000006 uart5_status_isr
0000104c  w    F .text	00000006 lpuart0_status_isr
000035b0 g     O .text	00000004 usb_endpoint_config_table
0000104c  w    F .text	00000006 dma_ch9_isr
0000104c  w    F .text	00000006 pit2_isr
00000ef8  w    F .text	00000020 EventResponder::~EventResponder()
1fff9418 g     O .bss	00000004 __malloc_max_sbrked_mem
0000113c g     F .text	0000000a pinMode
00002434 g     F .text	0000004c usb_free
0000104c  w    F .text	00000006 i2c3_isr
0000294c g     F .text	0000005e .hidden __nesf2
00000d48  w    F .text	000000a8 TeensyTimerTool::TckChannel<unsigned long>::begin(std::function<void ()>, float, bool)
00003634 g       .fini	00000000 __exidx_start
0000104c  w    F .text	00000006 pit0_isr
1fff93f0 g     O .bss	00000004 EventResponder::firstYield
00003484 g     O .text	00000004 TeensyTimerTool::FTM0
00003608 g     O .text	00000004 _global_impure_ptr
0000104c  w    F .text	00000006 can1_error_isr
00002a8c g     F .text	00000050 __libc_init_array
1fff9460 g       .bss	00000000 __bss_end
0000104c  w    F .text	00000006 can0_wakeup_isr
1fff9100  w    O .bss	00000001 TeensyTimerTool::TckChannel<unsigned long>::tick()::lock
0000104c  w    F .text	00000006 flash_cmd_isr
0000104c  w    F .text	00000006 uart2_status_isr
00001064 g     F .text	0000002c _sbrk
1fff87d4 g     O .data	00000004 __brkval
1fff9410 g     O .bss	00000001 usb_cdc_line_rtsdtr
000021fc g     F .text	00000048 usb_serial_flush_callback
000033f0  w    O .text	00000048 vtable for TeensyTimerTool::FTM_Channel
0000360c g     F .text	00000000 _init
0000104c  w    F .text	00000006 svcall_isr
00000e90 g     F .text	00000010 TeensyTimerTool::BaseTimer::BaseTimer(TeensyTimerTool::ITimerChannel* (*)(), bool)
0000104c  w    F .text	00000006 dma_ch15_isr
1fff92f0 g     O .bss	00000001 TeensyTimerTool::TCK_t::isInitialized
00002488 g     F .text	00000164 .hidden __aeabi_fsub
0000104c  w    F .text	00000006 uart1_error_isr
0000315c g     F .text	00000028 __libc_fini_array
0000104c  w    F .text	00000006 usbhs_phy_isr
1fff9460 g       .bss	00000000 _ebss
0000093c  w    F .text	00000048 TeensyTimerTool::TckChannel<unsigned long>::getTriggerReload(float, unsigned long*)
00002a00 g     F .text	00000012 .hidden __aeabi_fcmpge
0000104c g     F .text	00000006 unused_isr
0000104c  w    F .text	00000006 spi0_isr
00002620 g     F .text	0000007c .hidden __floatdisf
0000104c  w    F .text	00000006 dma_ch3_isr
000008a8  w    F .text	0000000e TeensyTimerTool::FTM_Channel::~FTM_Channel()
0000293c g     F .text	0000006e .hidden __gtsf2
000021dc g     F .text	00000004 operator delete(void*, unsigned int)
00000b44  w    F .text	000000dc TeensyTimerTool::FTM_t<2u>::getTimer()
0000104c  w    F .text	00000006 flash_error_isr
000029ec g     F .text	00000012 .hidden __aeabi_fcmple
0000104c  w    F .text	00000006 uart5_error_isr
0000104c  w    F .text	00000006 rtc_seconds_isr
0000076c  w    F .text	00000018 TeensyTimerTool::TckChannel<unsigned long>::triggerDirect(unsigned long)
0000104c  w    F .text	00000006 pdb_isr
00001004  w    F .text	00000048 usage_fault_isr
0000104c  w    F .text	00000006 dac1_isr
00000000 g     O .text	000001bc _VectorsFlash
0000104c  w    F .text	00000006 dma_ch14_isr
00000000  w      *UND*	00000000 __deregister_frame_info
1fff9458 g     O .bss	00000004 usb_cdc_line_rtsdtr_millis
1fff8720  w    F .data	00000032 TeensyTimerTool::FTM_Channel::triggerDirect(unsigned long)
000021b4 g     F .text	00000010 systick_isr
0000104c  w    F .text	00000006 rtc_alarm_isr
0000104c  w    F .text	00000006 dma_ch2_isr
0000104c  w    F .text	00000006 ftm1_isr
00001054  w    F .text	0000000c startup_early_hook
0000104c  w    F .text	00000006 dma_ch13_isr
0000104c  w    F .text	00000006 uart2_error_isr
1fff8868 g     O .data	00000016 usb_string_serial_number_default
00001004 g     F .text	00000048 fault_isr
00003220 g     F .text	000001d0 _free_r
0000104c  w    F .text	00000006 usb_charge_isr
0000104c  w    F .text	00000006 cmt_isr
000008e8  w    F .text	00000006 TeensyTimerTool::ITimerChannel::setCurrentPeriod(unsigned long)
0000104c  w    F .text	00000006 usbhs_isr
1fff90c0 g     O .data	00000004 __malloc_sbrk_base
0000104c  w    F .text	00000006 ftm3_isr
0000104c  w    F .text	00000006 tsi0_isr
1fff9190  w    O .bss	00000100 TeensyTimerTool::FTM_t<0u>::channelInfo
0000104c  w    F .text	00000006 spi2_isr
00000808  w    F .text	00000020 TeensyTimerTool::TckChannel<unsigned long>::~TckChannel()
000025f4 g     F .text	0000001c .hidden __floatsisf
00000ef8  w    F .text	00000020 EventResponder::~EventResponder()
000021d4  w    F .text	00000002 serialEvent()
1fff9361 g     O .bss	00000001 usb_reboot_timer
00003098 g     F .text	000000a4 __register_exitproc
000007bc  w    F .text	0000004c TeensyTimerTool::TckChannel<unsigned long>::tick()
00000021 g       *ABS*	00000000 _teensy_model_identifier
1fff9420 g     O .bss	00000028 __malloc_current_mallinfo
0000294c g     F .text	0000005e .hidden __eqsf2
1fff9103  w    O .bss	00000001 TeensyTimerTool::FTM_t<0u>::isInitialized
1fff93f8 g     O .bss	0000000c HardwareSerial::s_serials_with_serial_events
0000104c  w    F .text	00000006 can0_bus_off_isr
00003494  w    O .text	0000000c vtable for EventResponder
00000e90 g     F .text	00000010 TeensyTimerTool::BaseTimer::BaseTimer(TeensyTimerTool::ITimerChannel* (*)(), bool)
1fff93cd g     O .bss	00000001 usb_rx_memory_needed
00001410 g     F .text	00000acc usb_isr
00002a74 g     F .text	0000000c __cxa_atexit
00002804 g     F .text	00000136 .hidden __aeabi_fdiv
0000104c  w    F .text	00000006 uart3_error_isr
00002610 g     F .text	0000008c .hidden __floatundisf
0000104c  w    F .text	00000006 porta_isr
1fff83bc g     O .usbbuffers	00000360 usb_buffer_memory
0000104c  w    F .text	00000006 low_voltage_isr
1fff8cb4 g     O .data	00000408 __malloc_av_
000025ec g     F .text	00000024 .hidden __aeabi_ui2f
0000104c  w    F .text	00000006 can0_error_isr
000011e4 g     F .text	000000e0 _init_Teensyduino_internal_
0000104c  w    F .text	00000006 dma_ch12_isr
0000306c g     F .text	00000002 __malloc_lock
00000000  w      *UND*	00000000 __fini_array_start
0000104c  w    F .text	00000006 can1_wakeup_isr
000006a0  w    F .text	00000054 TeensyTimerTool::FTM_t<2u>::isr()
1fff8200 g     O .dmabuffers	000001bc _VectorsRam
0000104c  w    F .text	00000006 pit3_isr
0000294c g     F .text	0000005e .hidden __cmpsf2
1fff90e0 g     O .bss	00000010 t1
1fff87d8 g     O .data	00000001 yield_active_check_flags
0000104c  w    F .text	00000006 enet_rx_isr
0000104c  w    F .text	00000006 portc_isr
00003488 g     O .text	00000004 TeensyTimerTool::FTM1
000021c4 g     F .text	00000010 main
1fff8754  w    F .data	0000003e TeensyTimerTool::FTM_Channel::trigger(float)
1fff9414 g     O .bss	00000004 __malloc_max_total_mem
00002620 g     F .text	0000007c .hidden __aeabi_l2f
00002944 g     F .text	00000066 .hidden __ltsf2
00001004  w    F .text	00000048 memmanage_fault_isr
00002324 g     F .text	00000084 usb_init_serialnumber
00003630 g       .text	00000000 __init_array_end
00002afc g     F .text	00000570 _malloc_r
1fff9404 g     O .bss	00000001 HardwareSerial::s_count_serials_with_serial_events
0000104c  w    F .text	00000006 debugmonitor_isr
00002080 g     F .text	00000080 EventResponder::triggerEventNotImmediate()
00000031 g       *ABS*	00000000 __rtc_localtime
000005d8  w    F .text	00000014 TeensyTimerTool::FTM_Channel::getMaxPeriod() const
00000000  w      *UND*	00000000 __libc_fini
00002610 g     F .text	0000008c .hidden __aeabi_ul2f
000005c0  w    F .text	00000018 TeensyTimerTool::FTM_Channel::stop()
0000104c  w    F .text	00000006 cmp1_isr
0000104c  w    F .text	00000006 ftm0_isr
000029b4 g     F .text	00000010 .hidden __aeabi_cfcmple
00003184 g     F .text	0000009c _malloc_trim_r
1fff9150  w    O .bss	00000040 TeensyTimerTool::FTM_t<1u>::channelInfo
1fff8864 g     O .data	00000004 string0
0000269c g     F .text	00000168 .hidden __mulsf3
00001060  w    F .text	00000002 startup_late_hook
1fff87d9 g     O .data	00000001 _serialEvent_default
1fff884c  w    O .data	00000016 usb_string_product_name
00001148 g     F .text	0000009c delay
0000104c  w    F .text	00000006 tpm0_isr
00003630 g     F .fini	00000000 _fini
00000910  w    F .text	0000002a TeensyTimerTool::FTM_Channel::getTriggerReload(float, unsigned long*)
0000104c  w    F .text	00000006 i2s0_rx_isr
0000104c  w    F .text	00000006 uart4_error_isr
00003150 g     F .text	0000000c atexit
0000293c g     F .text	0000006e .hidden __gesf2
00002480 g     F .text	0000016c .hidden __aeabi_frsub
0000104c  w    F .text	00000006 can0_message_isr
1fff8cb0 g     O .data	00000004 _impure_ptr
000029c4 g     F .text	00000012 .hidden __aeabi_fcmpeq
0000104c  w    F .text	00000006 can1_message_isr
00003438  w    O .text	0000004c vtable for TeensyTimerTool::TckChannel<unsigned long>
0000104c  w    F .text	00000006 nmi_isr
0000269c g     F .text	00000168 .hidden __aeabi_fmul
000008f0  w    F .text	00000006 TeensyTimerTool::ITimerChannel::setPeriod(unsigned long)
00003618 g       .text	00000000 __preinit_array_end
000029ac g     F .text	00000018 .hidden __aeabi_cfrcmple
0000104c  w    F .text	00000006 sdhc_isr
00000484 g     F .text	000000d4 setup
000035b4 g     O .text	00000054 usb_descriptor_list
0000104c  w    F .text	00000006 dma_ch10_isr
0000104c  w    F .text	00000006 uart0_error_isr
1fff910c  w    O .bss	00000004 guard variable for TeensyTimerTool::FTM_t<0u>::channelInfo
000023f4 g     F .text	00000040 usb_malloc
000029d8 g     F .text	00000012 .hidden __aeabi_fcmplt
0000104c  w    F .text	00000006 i2s0_isr
20008000 g       .bss	00000000 _estack
00000808  w    F .text	00000020 TeensyTimerTool::TckChannel<unsigned long>::~TckChannel()
0000104c  w    F .text	00000006 enet_timer_isr
00000784  w    F .text	00000014 TeensyTimerTool::TckChannel<unsigned long>::start()
1fff9104  w    O .bss	00000004 guard variable for TeensyTimerTool::FTM_t<2u>::channelInfo
1fff90c4 g       .data	00000000 _edata
00000eb4 g     F .text	00000024 TeensyTimerTool::postError(TeensyTimerTool::errorCode)
0000104c  w    F .text	00000006 i2s0_tx_isr
0000104c  w    F .text	00000006 adc1_isr
0000104c  w    F .text	00000006 cmp0_isr
000023a8 g     F .text	0000004c ultoa
00002a28 g     F .text	0000003e .hidden __aeabi_f2uiz
1fff92a0 g     O .bss	00000050 TeensyTimerTool::TCK_t::channels
00000ea0  w    F .text	00000012 std::function<void (TeensyTimerTool::errorCode)>::~function()
000021d8 g     F .text	00000004 operator new(unsigned int)
00002100 g     F .text	00000044 EventResponder::runFromInterrupt()
1fff90bc g     O .data	00000004 __malloc_trim_threshold
000025ec g     F .text	00000024 .hidden __floatunsisf
1fff9405 g     O .bss	00000001 usb_cdc_transmit_flush_timer
000029b4 g     F .text	00000010 .hidden __aeabi_cfcmpeq
1fff9110  w    O .bss	00000040 TeensyTimerTool::FTM_t<2u>::channelInfo
0000104c  w    F .text	00000006 pit_isr
1fff9101  w    O .bss	00000001 TeensyTimerTool::FTM_t<2u>::isInitialized
0000104c  w    F .text	00000006 dac0_isr
00003618 g       .text	00000000 __init_array_start
0000104c  w    F .text	00000006 can1_tx_warn_isr
0000059c  w    F .text	00000004 TeensyTimerTool::ITimerChannel::getPeriod()
00002a28 g     F .text	0000003e .hidden __fixunssfsi
0000104c  w    F .text	00000006 uart0_status_isr
0000104c  w    F .text	00000006 mcg_isr
00000400 g     O .text	00000010 flashconfigbytes
1fff884c g     O .data	00000016 usb_string_product_name_default
0000104c  w    F .text	00000006 dma_ch1_isr
00002148 g     F .text	0000006c EventResponder::detachNoInterrupts()
0000104c  w    F .text	00000006 dma_ch5_isr
0000104c  w    F .text	00000006 can0_rx_warn_isr
00000f8c g     F .text	00000060 TeensyTimerTool::initYieldHook()
000007a0  w    F .text	0000001c TeensyTimerTool::TckChannel<unsigned long>::getMaxPeriod() const
0000104c  w    F .text	00000006 can0_tx_warn_isr
0000104c  w    F .text	00000006 uart4_status_isr
00000000  w      *UND*	00000000 _Jv_RegisterClasses
000005ec  w    F .text	00000002 TeensyTimerTool::FTM_Channel::~FTM_Channel()
00000984  w    F .text	000000e0 TeensyTimerTool::FTM_t<0u>::getTimer()
00003618 g       .text	00000000 __preinit_array_start
00002a68 g     F .text	0000000a __aeabi_atexit
00000000  w      *UND*	00000000 __register_frame_info
000008b8  w    F .text	00000028 TeensyTimerTool::TckChannel<unsigned long>::~TckChannel()
0000104c  w    F .text	00000006 cmp2_isr
0000248c g     F .text	00000160 .hidden __addsf3
00002144 g     F .text	00000004 pendablesrvreq_isr
0000104c  w    F .text	00000006 wakeup_isr
000005f0  w    F .text	0000005c TeensyTimerTool::FTM_t<0u>::isr()
0000104c  w    F .text	00000006 cmp3_isr
00002aec g     F .text	00000010 free
0000104c  w    F .text	00000006 tpm2_isr
00000ea0  w    F .text	00000012 std::function<void (TeensyTimerTool::errorCode)>::~function()
0000104c  w    F .text	00000006 dma_ch0_isr
1fff8868  w    O .data	00000016 usb_string_serial_number
0000104c  w    F .text	00000006 enet_tx_isr



Disassembly of section .text:

00000000 <_VectorsFlash>:
_ZN14HardwareSerial21addToSerialEventsListEv():
C:\toolchain\Teensyduino\current_fork\cores\teensy3/HardwareSerial.cpp:41
       0:	00 80 00 20 bd 01 00 00 4d 10 00 00 05 10 00 00     ... ....M.......
C:\toolchain\Teensyduino\current_fork\cores\teensy3/HardwareSerial.cpp:43
      10:	05 10 00 00 05 10 00 00 05 10 00 00 05 10 00 00     ................
C:\toolchain\Teensyduino\current_fork\cores\teensy3/HardwareSerial.cpp:42 (discriminator 2)
      20:	05 10 00 00 05 10 00 00 05 10 00 00 4d 10 00 00     ............M...
C:\toolchain\Teensyduino\current_fork\cores\teensy3/HardwareSerial.cpp:47
      30:	4d 10 00 00 05 10 00 00 45 21 00 00 b5 21 00 00     M.......E!...!..
C:\toolchain\Teensyduino\current_fork\cores\teensy3/HardwareSerial.cpp:42
      40:	4d 10 00 00 4d 10 00 00 4d 10 00 00 4d 10 00 00     M...M...M...M...
      50:	4d 10 00 00 4d 10 00 00 4d 10 00 00 4d 10 00 00     M...M...M...M...
      60:	4d 10 00 00 4d 10 00 00 4d 10 00 00 4d 10 00 00     M...M...M...M...
      70:	4d 10 00 00 4d 10 00 00 4d 10 00 00 4d 10 00 00     M...M...M...M...
      80:	4d 10 00 00 4d 10 00 00 4d 10 00 00 4d 10 00 00     M...M...M...M...
      90:	4d 10 00 00 4d 10 00 00 4d 10 00 00 4d 10 00 00     M...M...M...M...
      a0:	4d 10 00 00 4d 10 00 00 4d 10 00 00 4d 10 00 00     M...M...M...M...
      b0:	4d 10 00 00 4d 10 00 00 4d 10 00 00 4d 10 00 00     M...M...M...M...
      c0:	4d 10 00 00 4d 10 00 00 4d 10 00 00 4d 10 00 00     M...M...M...M...
      d0:	4d 10 00 00 4d 10 00 00 4d 10 00 00 4d 10 00 00     M...M...M...M...
      e0:	4d 10 00 00 4d 10 00 00 4d 10 00 00 4d 10 00 00     M...M...M...M...
      f0:	4d 10 00 00 4d 10 00 00 4d 10 00 00 4d 10 00 00     M...M...M...M...
     100:	4d 10 00 00 4d 10 00 00 4d 10 00 00 4d 10 00 00     M...M...M...M...
     110:	4d 10 00 00 4d 10 00 00 4d 10 00 00 4d 10 00 00     M...M...M...M...
     120:	4d 10 00 00 4d 10 00 00 4d 10 00 00 4d 10 00 00     M...M...M...M...
     130:	4d 10 00 00 4d 10 00 00 4d 10 00 00 4d 10 00 00     M...M...M...M...
     140:	4d 10 00 00 4d 10 00 00 4d 10 00 00 4d 10 00 00     M...M...M...M...
     150:	4d 10 00 00 4d 10 00 00 4d 10 00 00 4d 10 00 00     M...M...M...M...
     160:	4d 10 00 00 11 14 00 00 4d 10 00 00 4d 10 00 00     M.......M...M...
     170:	4d 10 00 00 4d 10 00 00 4d 10 00 00 4d 10 00 00     M...M...M...M...
     180:	4d 10 00 00 4d 10 00 00 4d 10 00 00 4d 10 00 00     M...M...M...M...
     190:	4d 10 00 00 4d 10 00 00 4d 10 00 00 4d 10 00 00     M...M...M...M...
     1a0:	4d 10 00 00 4d 10 00 00 4d 10 00 00 4d 10 00 00     M...M...M...M...
     1b0:	4d 10 00 00 4d 10 00 00 4d 10 00 00                 M...M...M...

000001bc <ResetHandler>:
ResetHandler():
C:\toolchain\Teensyduino\current_fork\cores\teensy3/mk20dx128.c:701
     1bc:	4b56      	ldr	r3, [pc, #344]	; (318 <ResetHandler+0x15c>)
     1be:	f24c 5220 	movw	r2, #50464	; 0xc520
C:\toolchain\Teensyduino\current_fork\cores\teensy3/mk20dx128.c:691
     1c2:	b510      	push	{r4, lr}
C:\toolchain\Teensyduino\current_fork\cores\teensy3/mk20dx128.c:701
     1c4:	801a      	strh	r2, [r3, #0]
C:\toolchain\Teensyduino\current_fork\cores\teensy3/mk20dx128.c:702
     1c6:	f64d 1228 	movw	r2, #55592	; 0xd928
     1ca:	801a      	strh	r2, [r3, #0]
C:\toolchain\Teensyduino\current_fork\cores\teensy3/mk20dx128.c:703
     1cc:	bf00      	nop
C:\toolchain\Teensyduino\current_fork\cores\teensy3/mk20dx128.c:704
     1ce:	bf00      	nop
C:\toolchain\Teensyduino\current_fork\cores\teensy3/mk20dx128.c:708
     1d0:	f000 ff40 	bl	1054 <startup_early_hook>
C:\toolchain\Teensyduino\current_fork\cores\teensy3/mk20dx128.c:715
     1d4:	4b51      	ldr	r3, [pc, #324]	; (31c <ResetHandler+0x160>)
     1d6:	f04f 6210 	mov.w	r2, #150994944	; 0x9000000
     1da:	601a      	str	r2, [r3, #0]
C:\toolchain\Teensyduino\current_fork\cores\teensy3/mk20dx128.c:716
     1dc:	4a50      	ldr	r2, [pc, #320]	; (320 <ResetHandler+0x164>)
     1de:	609a      	str	r2, [r3, #8]
C:\toolchain\Teensyduino\current_fork\cores\teensy3/mk20dx128.c:717
     1e0:	4a50      	ldr	r2, [pc, #320]	; (324 <ResetHandler+0x168>)
     1e2:	60da      	str	r2, [r3, #12]
C:\toolchain\Teensyduino\current_fork\cores\teensy3/mk20dx128.c:752
     1e4:	4a50      	ldr	r2, [pc, #320]	; (328 <ResetHandler+0x16c>)
     1e6:	6813      	ldr	r3, [r2, #0]
     1e8:	f413 7380 	ands.w	r3, r3, #256	; 0x100
     1ec:	d104      	bne.n	1f8 <ResetHandler+0x3c>
C:\toolchain\Teensyduino\current_fork\cores\teensy3/mk20dx128.c:753
     1ee:	494f      	ldr	r1, [pc, #316]	; (32c <ResetHandler+0x170>)
     1f0:	600b      	str	r3, [r1, #0]
C:\toolchain\Teensyduino\current_fork\cores\teensy3/mk20dx128.c:754
     1f2:	f44f 53a8 	mov.w	r3, #5376	; 0x1500
     1f6:	6013      	str	r3, [r2, #0]
C:\toolchain\Teensyduino\current_fork\cores\teensy3/mk20dx128.c:758
     1f8:	4b4d      	ldr	r3, [pc, #308]	; (330 <ResetHandler+0x174>)
     1fa:	781a      	ldrb	r2, [r3, #0]
     1fc:	0711      	lsls	r1, r2, #28
     1fe:	d503      	bpl.n	208 <ResetHandler+0x4c>
C:\toolchain\Teensyduino\current_fork\cores\teensy3/mk20dx128.c:758 (discriminator 1)
     200:	781a      	ldrb	r2, [r3, #0]
     202:	f042 0208 	orr.w	r2, r2, #8
     206:	701a      	strb	r2, [r3, #0]
C:\toolchain\Teensyduino\current_fork\cores\teensy3/mk20dx128.c:765
     208:	4b4a      	ldr	r3, [pc, #296]	; (334 <ResetHandler+0x178>)
C:\toolchain\Teensyduino\current_fork\cores\teensy3/mk20dx128.c:769
     20a:	494b      	ldr	r1, [pc, #300]	; (338 <ResetHandler+0x17c>)
C:\toolchain\Teensyduino\current_fork\cores\teensy3/mk20dx128.c:765
     20c:	222a      	movs	r2, #42	; 0x2a
     20e:	701a      	strb	r2, [r3, #0]
     210:	4a4a      	ldr	r2, [pc, #296]	; (33c <ResetHandler+0x180>)
     212:	4b4b      	ldr	r3, [pc, #300]	; (340 <ResetHandler+0x184>)
C:\toolchain\Teensyduino\current_fork\cores\teensy3/mk20dx128.c:769 (discriminator 1)
     214:	428b      	cmp	r3, r1
     216:	d204      	bcs.n	222 <ResetHandler+0x66>
C:\toolchain\Teensyduino\current_fork\cores\teensy3/mk20dx128.c:769 (discriminator 2)
     218:	f852 0f04 	ldr.w	r0, [r2, #4]!
     21c:	f843 0b04 	str.w	r0, [r3], #4
     220:	e7f8      	b.n	214 <ResetHandler+0x58>
     222:	4b48      	ldr	r3, [pc, #288]	; (344 <ResetHandler+0x188>)
C:\toolchain\Teensyduino\current_fork\cores\teensy3/mk20dx128.c:771 (discriminator 1)
     224:	4948      	ldr	r1, [pc, #288]	; (348 <ResetHandler+0x18c>)
     226:	2200      	movs	r2, #0
     228:	428b      	cmp	r3, r1
     22a:	d202      	bcs.n	232 <ResetHandler+0x76>
C:\toolchain\Teensyduino\current_fork\cores\teensy3/mk20dx128.c:771 (discriminator 2)
     22c:	f843 2b04 	str.w	r2, [r3], #4
     230:	e7fa      	b.n	228 <ResetHandler+0x6c>
C:\toolchain\Teensyduino\current_fork\cores\teensy3/mk20dx128.c:774 (discriminator 3)
     232:	4946      	ldr	r1, [pc, #280]	; (34c <ResetHandler+0x190>)
     234:	4a46      	ldr	r2, [pc, #280]	; (350 <ResetHandler+0x194>)
     236:	2300      	movs	r3, #0
     238:	f852 0023 	ldr.w	r0, [r2, r3, lsl #2]
     23c:	f841 0023 	str.w	r0, [r1, r3, lsl #2]
     240:	3301      	adds	r3, #1
     242:	2b6f      	cmp	r3, #111	; 0x6f
     244:	d1f8      	bne.n	238 <ResetHandler+0x7c>
     246:	4b43      	ldr	r3, [pc, #268]	; (354 <ResetHandler+0x198>)
C:\toolchain\Teensyduino\current_fork\cores\teensy3/mk20dx128.c:775 (discriminator 3)
     248:	4a43      	ldr	r2, [pc, #268]	; (358 <ResetHandler+0x19c>)
     24a:	2180      	movs	r1, #128	; 0x80
     24c:	f803 1b01 	strb.w	r1, [r3], #1
     250:	4293      	cmp	r3, r2
     252:	d1fb      	bne.n	24c <ResetHandler+0x90>
C:\toolchain\Teensyduino\current_fork\cores\teensy3/mk20dx128.c:776
     254:	4b41      	ldr	r3, [pc, #260]	; (35c <ResetHandler+0x1a0>)
     256:	4a3d      	ldr	r2, [pc, #244]	; (34c <ResetHandler+0x190>)
     258:	601a      	str	r2, [r3, #0]
C:\toolchain\Teensyduino\current_fork\cores\teensy3/mk20dx128.c:810
     25a:	4b41      	ldr	r3, [pc, #260]	; (360 <ResetHandler+0x1a4>)
     25c:	228a      	movs	r2, #138	; 0x8a
     25e:	701a      	strb	r2, [r3, #0]
C:\toolchain\Teensyduino\current_fork\cores\teensy3/mk20dx128.c:816
     260:	f5a3 5380 	sub.w	r3, r3, #4096	; 0x1000
     264:	2224      	movs	r2, #36	; 0x24
     266:	705a      	strb	r2, [r3, #1]
C:\toolchain\Teensyduino\current_fork\cores\teensy3/mk20dx128.c:818
     268:	22a0      	movs	r2, #160	; 0xa0
     26a:	701a      	strb	r2, [r3, #0]
C:\toolchain\Teensyduino\current_fork\cores\teensy3/mk20dx128.c:820 (discriminator 1)
     26c:	799a      	ldrb	r2, [r3, #6]
     26e:	0792      	lsls	r2, r2, #30
     270:	d5fc      	bpl.n	26c <ResetHandler+0xb0>
C:\toolchain\Teensyduino\current_fork\cores\teensy3/mk20dx128.c:822 (discriminator 1)
     272:	799a      	ldrb	r2, [r3, #6]
     274:	06d4      	lsls	r4, r2, #27
     276:	d4fc      	bmi.n	272 <ResetHandler+0xb6>
C:\toolchain\Teensyduino\current_fork\cores\teensy3/mk20dx128.c:824
     278:	4a3a      	ldr	r2, [pc, #232]	; (364 <ResetHandler+0x1a8>)
C:\toolchain\Teensyduino\current_fork\cores\teensy3/mk20dx128.c:824 (discriminator 1)
     27a:	7993      	ldrb	r3, [r2, #6]
     27c:	f003 030c 	and.w	r3, r3, #12
     280:	2b08      	cmp	r3, #8
     282:	4b38      	ldr	r3, [pc, #224]	; (364 <ResetHandler+0x1a8>)
     284:	d1f9      	bne.n	27a <ResetHandler+0xbe>
C:\toolchain\Teensyduino\current_fork\cores\teensy3/mk20dx128.c:885
     286:	2203      	movs	r2, #3
     288:	711a      	strb	r2, [r3, #4]
C:\toolchain\Teensyduino\current_fork\cores\teensy3/mk20dx128.c:896
     28a:	2240      	movs	r2, #64	; 0x40
     28c:	715a      	strb	r2, [r3, #5]
C:\toolchain\Teensyduino\current_fork\cores\teensy3/mk20dx128.c:903 (discriminator 1)
     28e:	799a      	ldrb	r2, [r3, #6]
     290:	0690      	lsls	r0, r2, #26
     292:	d5fc      	bpl.n	28e <ResetHandler+0xd2>
C:\toolchain\Teensyduino\current_fork\cores\teensy3/mk20dx128.c:905 (discriminator 1)
     294:	4a33      	ldr	r2, [pc, #204]	; (364 <ResetHandler+0x1a8>)
     296:	7991      	ldrb	r1, [r2, #6]
     298:	4b32      	ldr	r3, [pc, #200]	; (364 <ResetHandler+0x1a8>)
     29a:	0649      	lsls	r1, r1, #25
     29c:	d5fb      	bpl.n	296 <ResetHandler+0xda>
C:\toolchain\Teensyduino\current_fork\cores\teensy3/mk20dx128.c:998
     29e:	4a32      	ldr	r2, [pc, #200]	; (368 <ResetHandler+0x1ac>)
     2a0:	4932      	ldr	r1, [pc, #200]	; (36c <ResetHandler+0x1b0>)
     2a2:	6011      	str	r1, [r2, #0]
C:\toolchain\Teensyduino\current_fork\cores\teensy3/mk20dx128.c:1004
     2a4:	2102      	movs	r1, #2
     2a6:	6051      	str	r1, [r2, #4]
C:\toolchain\Teensyduino\current_fork\cores\teensy3/mk20dx128.c:1073
     2a8:	2220      	movs	r2, #32
     2aa:	701a      	strb	r2, [r3, #0]
C:\toolchain\Teensyduino\current_fork\cores\teensy3/mk20dx128.c:1075 (discriminator 1)
     2ac:	799a      	ldrb	r2, [r3, #6]
     2ae:	f002 020c 	and.w	r2, r2, #12
     2b2:	2a0c      	cmp	r2, #12
     2b4:	d1fa      	bne.n	2ac <ResetHandler+0xf0>
C:\toolchain\Teensyduino\current_fork\cores\teensy3/mk20dx128.c:1084
     2b6:	4b2e      	ldr	r3, [pc, #184]	; (370 <ResetHandler+0x1b4>)
     2b8:	4a2e      	ldr	r2, [pc, #184]	; (374 <ResetHandler+0x1b8>)
     2ba:	601a      	str	r2, [r3, #0]
C:\toolchain\Teensyduino\current_fork\cores\teensy3/mk20dx128.c:1115
     2bc:	4b2e      	ldr	r3, [pc, #184]	; (378 <ResetHandler+0x1bc>)
     2be:	4a2f      	ldr	r2, [pc, #188]	; (37c <ResetHandler+0x1c0>)
     2c0:	601a      	str	r2, [r3, #0]
C:\toolchain\Teensyduino\current_fork\cores\teensy3/mk20dx128.c:1116
     2c2:	2200      	movs	r2, #0
     2c4:	605a      	str	r2, [r3, #4]
C:\toolchain\Teensyduino\current_fork\cores\teensy3/mk20dx128.c:1117
     2c6:	2207      	movs	r2, #7
     2c8:	f843 2c04 	str.w	r2, [r3, #-4]
C:\toolchain\Teensyduino\current_fork\cores\teensy3/mk20dx128.c:1118
     2cc:	4a2c      	ldr	r2, [pc, #176]	; (380 <ResetHandler+0x1c4>)
     2ce:	f8c3 2d0c 	str.w	r2, [r3, #3340]	; 0xd0c
C:\toolchain\Teensyduino\current_fork\cores\teensy3/mk20dx128.c:1121
     2d2:	b662      	cpsie	i
C:\toolchain\Teensyduino\current_fork\cores\teensy3/mk20dx128.c:1123
     2d4:	f000 ff86 	bl	11e4 <_init_Teensyduino_internal_>
C:\toolchain\Teensyduino\current_fork\cores\teensy3/mk20dx128.c:1127
     2d8:	4b14      	ldr	r3, [pc, #80]	; (32c <ResetHandler+0x170>)
     2da:	681b      	ldr	r3, [r3, #0]
     2dc:	07da      	lsls	r2, r3, #31
     2de:	d505      	bpl.n	2ec <ResetHandler+0x130>
C:\toolchain\Teensyduino\current_fork\cores\teensy3/mk20dx128.c:1135
     2e0:	4828      	ldr	r0, [pc, #160]	; (384 <ResetHandler+0x1c8>)
     2e2:	f000 ff19 	bl	1118 <rtc_set>
C:\toolchain\Teensyduino\current_fork\cores\teensy3/mk20dx128.c:1139
     2e6:	4b28      	ldr	r3, [pc, #160]	; (388 <ResetHandler+0x1cc>)
     2e8:	4a28      	ldr	r2, [pc, #160]	; (38c <ResetHandler+0x1d0>)
     2ea:	601a      	str	r2, [r3, #0]
C:\toolchain\Teensyduino\current_fork\cores\teensy3/mk20dx128.c:1141
     2ec:	4b28      	ldr	r3, [pc, #160]	; (390 <ResetHandler+0x1d4>)
     2ee:	781b      	ldrb	r3, [r3, #0]
     2f0:	065b      	lsls	r3, r3, #25
     2f2:	d509      	bpl.n	308 <ResetHandler+0x14c>
C:\toolchain\Teensyduino\current_fork\cores\teensy3/mk20dx128.c:1141 (discriminator 1)
     2f4:	4c24      	ldr	r4, [pc, #144]	; (388 <ResetHandler+0x1cc>)
     2f6:	4b25      	ldr	r3, [pc, #148]	; (38c <ResetHandler+0x1d0>)
     2f8:	6822      	ldr	r2, [r4, #0]
     2fa:	429a      	cmp	r2, r3
     2fc:	d104      	bne.n	308 <ResetHandler+0x14c>
C:\toolchain\Teensyduino\current_fork\cores\teensy3/mk20dx128.c:1149
     2fe:	4821      	ldr	r0, [pc, #132]	; (384 <ResetHandler+0x1c8>)
     300:	f000 ff0a 	bl	1118 <rtc_set>
C:\toolchain\Teensyduino\current_fork\cores\teensy3/mk20dx128.c:1153
     304:	2300      	movs	r3, #0
     306:	6023      	str	r3, [r4, #0]
C:\toolchain\Teensyduino\current_fork\cores\teensy3/mk20dx128.c:1157
     308:	f002 fbc0 	bl	2a8c <__libc_init_array>
C:\toolchain\Teensyduino\current_fork\cores\teensy3/mk20dx128.c:1159
     30c:	f000 fea8 	bl	1060 <startup_late_hook>
C:\toolchain\Teensyduino\current_fork\cores\teensy3/mk20dx128.c:1160
     310:	f001 ff58 	bl	21c4 <main>
     314:	e7fe      	b.n	314 <ResetHandler+0x158>
     316:	bf00      	nop
     318:	4005200e 	.word	0x4005200e
     31c:	40048030 	.word	0x40048030
     320:	00043f82 	.word	0x00043f82
     324:	2b000001 	.word	0x2b000001
     328:	4003d010 	.word	0x4003d010
     32c:	4003d014 	.word	0x4003d014
     330:	4007d002 	.word	0x4007d002
     334:	4007e000 	.word	0x4007e000
     338:	1fff90c4 	.word	0x1fff90c4
     33c:	00003630 	.word	0x00003630
     340:	1fff8720 	.word	0x1fff8720
     344:	1fff90c4 	.word	0x1fff90c4
     348:	1fff9460 	.word	0x1fff9460
     34c:	1fff8200 	.word	0x1fff8200
     350:	00000000 	.word	0x00000000
     354:	e000e400 	.word	0xe000e400
     358:	e000e45f 	.word	0xe000e45f
     35c:	e000ed08 	.word	0xe000ed08
     360:	40065000 	.word	0x40065000
     364:	40064000 	.word	0x40064000
     368:	40048044 	.word	0x40048044
     36c:	01030000 	.word	0x01030000
     370:	40048004 	.word	0x40048004
     374:	000510c0 	.word	0x000510c0
     378:	e000e014 	.word	0xe000e014
     37c:	000176ff 	.word	0x000176ff
     380:	20200000 	.word	0x20200000
     384:	00000031 	.word	0x00000031
     388:	4003e01c 	.word	0x4003e01c
     38c:	5a94c3a5 	.word	0x5a94c3a5
     390:	4007f000 	.word	0x4007f000
     394:	ffffffff 	.word	0xffffffff
     398:	ffffffff 	.word	0xffffffff
     39c:	ffffffff 	.word	0xffffffff
     3a0:	ffffffff 	.word	0xffffffff
     3a4:	ffffffff 	.word	0xffffffff
     3a8:	ffffffff 	.word	0xffffffff
     3ac:	ffffffff 	.word	0xffffffff
     3b0:	ffffffff 	.word	0xffffffff
     3b4:	ffffffff 	.word	0xffffffff
     3b8:	ffffffff 	.word	0xffffffff
     3bc:	ffffffff 	.word	0xffffffff
     3c0:	ffffffff 	.word	0xffffffff
     3c4:	ffffffff 	.word	0xffffffff
     3c8:	ffffffff 	.word	0xffffffff
     3cc:	ffffffff 	.word	0xffffffff
     3d0:	ffffffff 	.word	0xffffffff
     3d4:	ffffffff 	.word	0xffffffff
     3d8:	ffffffff 	.word	0xffffffff
     3dc:	ffffffff 	.word	0xffffffff
     3e0:	ffffffff 	.word	0xffffffff
     3e4:	ffffffff 	.word	0xffffffff
     3e8:	ffffffff 	.word	0xffffffff
     3ec:	ffffffff 	.word	0xffffffff
     3f0:	ffffffff 	.word	0xffffffff
     3f4:	ffffffff 	.word	0xffffffff
     3f8:	ffffffff 	.word	0xffffffff
     3fc:	ffffffff 	.word	0xffffffff

00000400 <flashconfigbytes>:
     400:	ffffffff ffffffff ffffffff fffff9de     ................

00000410 <__do_global_dtors_aux>:
__do_global_dtors_aux():
     410:	b510      	push	{r4, lr}
     412:	4c05      	ldr	r4, [pc, #20]	; (428 <__do_global_dtors_aux+0x18>)
     414:	7823      	ldrb	r3, [r4, #0]
     416:	b933      	cbnz	r3, 426 <__do_global_dtors_aux+0x16>
     418:	4b04      	ldr	r3, [pc, #16]	; (42c <__do_global_dtors_aux+0x1c>)
     41a:	b113      	cbz	r3, 422 <__do_global_dtors_aux+0x12>
     41c:	4804      	ldr	r0, [pc, #16]	; (430 <__do_global_dtors_aux+0x20>)
     41e:	f3af 8000 	nop.w
     422:	2301      	movs	r3, #1
     424:	7023      	strb	r3, [r4, #0]
     426:	bd10      	pop	{r4, pc}
     428:	1fff90c4 	.word	0x1fff90c4
     42c:	00000000 	.word	0x00000000
     430:	00003634 	.word	0x00003634

00000434 <frame_dummy>:
frame_dummy():
     434:	4b08      	ldr	r3, [pc, #32]	; (458 <frame_dummy+0x24>)
     436:	b510      	push	{r4, lr}
     438:	b11b      	cbz	r3, 442 <frame_dummy+0xe>
     43a:	4908      	ldr	r1, [pc, #32]	; (45c <frame_dummy+0x28>)
     43c:	4808      	ldr	r0, [pc, #32]	; (460 <frame_dummy+0x2c>)
     43e:	f3af 8000 	nop.w
     442:	4808      	ldr	r0, [pc, #32]	; (464 <frame_dummy+0x30>)
     444:	6803      	ldr	r3, [r0, #0]
     446:	b903      	cbnz	r3, 44a <frame_dummy+0x16>
     448:	bd10      	pop	{r4, pc}
     44a:	4b07      	ldr	r3, [pc, #28]	; (468 <frame_dummy+0x34>)
     44c:	2b00      	cmp	r3, #0
     44e:	d0fb      	beq.n	448 <frame_dummy+0x14>
     450:	e8bd 4010 	ldmia.w	sp!, {r4, lr}
     454:	4718      	bx	r3
     456:	bf00      	nop
     458:	00000000 	.word	0x00000000
     45c:	1fff90c8 	.word	0x1fff90c8
     460:	00003634 	.word	0x00003634
     464:	1fff90c4 	.word	0x1fff90c4
     468:	00000000 	.word	0x00000000

0000046c <std::_Function_handler<void (), setup::{lambda()#1}>::_M_invoke(std::_Any_data const&)>:
_ZNSt17_Function_handlerIFvvEZ5setupEUlvE_E9_M_invokeERKSt9_Any_data():
C:\toolchain\Teensyduino\current_fork\cores\teensy3/core_pins.h:1938
     46c:	4b01      	ldr	r3, [pc, #4]	; (474 <std::_Function_handler<void (), setup::{lambda()#1}>::_M_invoke(std::_Any_data const&)+0x8>)
     46e:	2220      	movs	r2, #32
     470:	601a      	str	r2, [r3, #0]
     472:	4770      	bx	lr
     474:	400ff08c 	.word	0x400ff08c

00000478 <std::_Function_base::_Base_manager<setup::{lambda()#1}>::_M_manager(std::_Any_data&, std::_Function_base::_Base_manager<setup::{lambda()#1}> const&, std::_Manager_operation)>:
_ZNSt14_Function_base13_Base_managerIZ5setupEUlvE_E10_M_managerERSt9_Any_dataRKS3_St18_Manager_operation():
c:\toolchain\gcc\gcc-arm-none-eabi-5_4-2016q3-20160926-win32\arm-none-eabi\include\c++\5.4.1/functional:1734
     478:	2a01      	cmp	r2, #1
c:\toolchain\gcc\gcc-arm-none-eabi-5_4-2016q3-20160926-win32\arm-none-eabi\include\c++\5.4.1/functional:1742
     47a:	bf08      	it	eq
     47c:	6001      	streq	r1, [r0, #0]
c:\toolchain\gcc\gcc-arm-none-eabi-5_4-2016q3-20160926-win32\arm-none-eabi\include\c++\5.4.1/functional:1754
     47e:	2000      	movs	r0, #0
     480:	4770      	bx	lr
     482:	bf00      	nop

00000484 <setup>:
setup():
C:\Users\lutz\source\Teensy\tttest/src/main.cpp:10
     484:	b5f0      	push	{r4, r5, r6, r7, lr}
_ZN15TeensyTimerTool9BaseTimer5beginINSt6chrono8durationIxSt5ratioILx1ELx1000EEEEEENS_9errorCodeESt8functionIFvvEET_b():
C:\Users\lutz\source\Teensy\tttest/lib/TeensyTimerTool/src/baseTimer.h:64
     486:	4d2f      	ldr	r5, [pc, #188]	; (544 <setup+0xc0>)
setup():
C:\Users\lutz\source\Teensy\tttest/src/main.cpp:10
     488:	b089      	sub	sp, #36	; 0x24
C:\Users\lutz\source\Teensy\tttest/src/main.cpp:11
     48a:	2101      	movs	r1, #1
     48c:	200d      	movs	r0, #13
     48e:	f000 fe55 	bl	113c <pinMode>
_ZN15TeensyTimerTool9BaseTimer5beginINSt6chrono8durationIxSt5ratioILx1ELx1000EEEEEENS_9errorCodeESt8functionIFvvEET_b():
C:\Users\lutz\source\Teensy\tttest/lib/TeensyTimerTool/src/baseTimer.h:64
     492:	686c      	ldr	r4, [r5, #4]
function<setup()::<lambda()>, void, void>():
c:\toolchain\gcc\gcc-arm-none-eabi-5_4-2016q3-20160926-win32\arm-none-eabi\include\c++\5.4.1/functional:2255
     494:	4a2c      	ldr	r2, [pc, #176]	; (548 <setup+0xc4>)
c:\toolchain\gcc\gcc-arm-none-eabi-5_4-2016q3-20160926-win32\arm-none-eabi\include\c++\5.4.1/functional:2256
     496:	4b2d      	ldr	r3, [pc, #180]	; (54c <setup+0xc8>)
c:\toolchain\gcc\gcc-arm-none-eabi-5_4-2016q3-20160926-win32\arm-none-eabi\include\c++\5.4.1/functional:2255
     498:	9203      	str	r2, [sp, #12]
c:\toolchain\gcc\gcc-arm-none-eabi-5_4-2016q3-20160926-win32\arm-none-eabi\include\c++\5.4.1/functional:2256
     49a:	9302      	str	r3, [sp, #8]
_ZN15TeensyTimerTool9BaseTimer5beginINSt6chrono8durationIxSt5ratioILx1ELx1000EEEEEENS_9errorCodeESt8functionIFvvEET_b():
C:\Users\lutz\source\Teensy\tttest/lib/TeensyTimerTool/src/baseTimer.h:64
     49c:	2c00      	cmp	r4, #0
     49e:	d02d      	beq.n	4fc <setup+0x78>
C:\Users\lutz\source\Teensy\tttest/lib/TeensyTimerTool/src/baseTimer.h:80
     4a0:	6821      	ldr	r1, [r4, #0]
_ZNSt14_Function_baseC4Ev():
c:\toolchain\gcc\gcc-arm-none-eabi-5_4-2016q3-20160926-win32\arm-none-eabi\include\c++\5.4.1/functional:1825
     4a2:	2200      	movs	r2, #0
_ZN15TeensyTimerTool9BaseTimer5beginINSt6chrono8durationIxSt5ratioILx1ELx1000EEEEEENS_9errorCodeESt8functionIFvvEET_b():
C:\Users\lutz\source\Teensy\tttest/lib/TeensyTimerTool/src/baseTimer.h:80
     4a4:	680f      	ldr	r7, [r1, #0]
_ZNSt14_Function_baseC4Ev():
c:\toolchain\gcc\gcc-arm-none-eabi-5_4-2016q3-20160926-win32\arm-none-eabi\include\c++\5.4.1/functional:1825
     4a6:	9206      	str	r2, [sp, #24]
_ZNSt8functionIFvvEEC4ERKS1_():
c:\toolchain\gcc\gcc-arm-none-eabi-5_4-2016q3-20160926-win32\arm-none-eabi\include\c++\5.4.1/functional:2238
     4a8:	ae04      	add	r6, sp, #16
     4aa:	2202      	movs	r2, #2
     4ac:	4630      	mov	r0, r6
     4ae:	4669      	mov	r1, sp
     4b0:	4798      	blx	r3
c:\toolchain\gcc\gcc-arm-none-eabi-5_4-2016q3-20160926-win32\arm-none-eabi\include\c++\5.4.1/functional:2239
     4b2:	9a03      	ldr	r2, [sp, #12]
c:\toolchain\gcc\gcc-arm-none-eabi-5_4-2016q3-20160926-win32\arm-none-eabi\include\c++\5.4.1/functional:2240
     4b4:	9b02      	ldr	r3, [sp, #8]
c:\toolchain\gcc\gcc-arm-none-eabi-5_4-2016q3-20160926-win32\arm-none-eabi\include\c++\5.4.1/functional:2239
     4b6:	9207      	str	r2, [sp, #28]
c:\toolchain\gcc\gcc-arm-none-eabi-5_4-2016q3-20160926-win32\arm-none-eabi\include\c++\5.4.1/functional:2240
     4b8:	9306      	str	r3, [sp, #24]
_ZN15TeensyTimerTool9BaseTimer5beginINSt6chrono8durationIxSt5ratioILx1ELx1000EEEEEENS_9errorCodeESt8functionIFvvEET_b():
C:\Users\lutz\source\Teensy\tttest/lib/TeensyTimerTool/src/baseTimer.h:80
     4ba:	4620      	mov	r0, r4
     4bc:	7a2b      	ldrb	r3, [r5, #8]
     4be:	4a24      	ldr	r2, [pc, #144]	; (550 <setup+0xcc>)
     4c0:	4631      	mov	r1, r6
     4c2:	47b8      	blx	r7
_ZNSt14_Function_baseD4Ev():
c:\toolchain\gcc\gcc-arm-none-eabi-5_4-2016q3-20160926-win32\arm-none-eabi\include\c++\5.4.1/functional:1829
     4c4:	9b06      	ldr	r3, [sp, #24]
_ZN15TeensyTimerTool9BaseTimer5beginINSt6chrono8durationIxSt5ratioILx1ELx1000EEEEEENS_9errorCodeESt8functionIFvvEET_b():
C:\Users\lutz\source\Teensy\tttest/lib/TeensyTimerTool/src/baseTimer.h:80
     4c6:	4604      	mov	r4, r0
_ZNSt14_Function_baseD4Ev():
c:\toolchain\gcc\gcc-arm-none-eabi-5_4-2016q3-20160926-win32\arm-none-eabi\include\c++\5.4.1/functional:1829
     4c8:	b11b      	cbz	r3, 4d2 <setup+0x4e>
c:\toolchain\gcc\gcc-arm-none-eabi-5_4-2016q3-20160926-win32\arm-none-eabi\include\c++\5.4.1/functional:1830
     4ca:	2203      	movs	r2, #3
     4cc:	4631      	mov	r1, r6
     4ce:	4630      	mov	r0, r6
     4d0:	4798      	blx	r3
_ZN15TeensyTimerTool9BaseTimer5beginINSt6chrono8durationIxSt5ratioILx1ELx1000EEEEEENS_9errorCodeESt8functionIFvvEET_b():
C:\Users\lutz\source\Teensy\tttest/lib/TeensyTimerTool/src/baseTimer.h:82
     4d2:	b154      	cbz	r4, 4ea <setup+0x66>
C:\Users\lutz\source\Teensy\tttest/lib/TeensyTimerTool/src/baseTimer.h:86
     4d4:	4620      	mov	r0, r4
     4d6:	f000 fced 	bl	eb4 <TeensyTimerTool::postError(TeensyTimerTool::errorCode)>
_ZNSt14_Function_baseD4Ev():
c:\toolchain\gcc\gcc-arm-none-eabi-5_4-2016q3-20160926-win32\arm-none-eabi\include\c++\5.4.1/functional:1829
     4da:	9b02      	ldr	r3, [sp, #8]
     4dc:	b11b      	cbz	r3, 4e6 <setup+0x62>
c:\toolchain\gcc\gcc-arm-none-eabi-5_4-2016q3-20160926-win32\arm-none-eabi\include\c++\5.4.1/functional:1830
     4de:	4669      	mov	r1, sp
     4e0:	4668      	mov	r0, sp
     4e2:	2203      	movs	r2, #3
     4e4:	4798      	blx	r3
setup():
C:\Users\lutz\source\Teensy\tttest/src/main.cpp:13
     4e6:	b009      	add	sp, #36	; 0x24
     4e8:	bdf0      	pop	{r4, r5, r6, r7, pc}
_ZN15TeensyTimerTool9BaseTimer5beginINSt6chrono8durationIxSt5ratioILx1ELx1000EEEEEENS_9errorCodeESt8functionIFvvEET_b():
C:\Users\lutz\source\Teensy\tttest/lib/TeensyTimerTool/src/baseTimer.h:84
     4ea:	7a2b      	ldrb	r3, [r5, #8]
     4ec:	4a15      	ldr	r2, [pc, #84]	; (544 <setup+0xc0>)
     4ee:	2b00      	cmp	r3, #0
     4f0:	d0f0      	beq.n	4d4 <setup+0x50>
     4f2:	6850      	ldr	r0, [r2, #4]
     4f4:	6803      	ldr	r3, [r0, #0]
     4f6:	699b      	ldr	r3, [r3, #24]
     4f8:	4798      	blx	r3
     4fa:	e7eb      	b.n	4d4 <setup+0x50>
C:\Users\lutz\source\Teensy\tttest/lib/TeensyTimerTool/src/baseTimer.h:66
     4fc:	682b      	ldr	r3, [r5, #0]
     4fe:	b163      	cbz	r3, 51a <setup+0x96>
C:\Users\lutz\source\Teensy\tttest/lib/TeensyTimerTool/src/baseTimer.h:68
     500:	4798      	blx	r3
     502:	4604      	mov	r4, r0
     504:	6068      	str	r0, [r5, #4]
C:\Users\lutz\source\Teensy\tttest/lib/TeensyTimerTool/src/baseTimer.h:69
     506:	b1c0      	cbz	r0, 53a <setup+0xb6>
C:\Users\lutz\source\Teensy\tttest/lib/TeensyTimerTool/src/baseTimer.h:80
     508:	6822      	ldr	r2, [r4, #0]
     50a:	9b02      	ldr	r3, [sp, #8]
     50c:	6817      	ldr	r7, [r2, #0]
_ZNSt14_Function_baseC4Ev():
c:\toolchain\gcc\gcc-arm-none-eabi-5_4-2016q3-20160926-win32\arm-none-eabi\include\c++\5.4.1/functional:1825
     50e:	2200      	movs	r2, #0
     510:	9206      	str	r2, [sp, #24]
_ZNSt8functionIFvvEEC4ERKS1_():
c:\toolchain\gcc\gcc-arm-none-eabi-5_4-2016q3-20160926-win32\arm-none-eabi\include\c++\5.4.1/functional:2236
     512:	2b00      	cmp	r3, #0
     514:	d1c8      	bne.n	4a8 <setup+0x24>
     516:	ae04      	add	r6, sp, #16
     518:	e7cf      	b.n	4ba <setup+0x36>
     51a:	4e0e      	ldr	r6, [pc, #56]	; (554 <setup+0xd0>)
     51c:	f106 0710 	add.w	r7, r6, #16
_ZN15TeensyTimerTool9BaseTimer5beginINSt6chrono8durationIxSt5ratioILx1ELx1000EEEEEENS_9errorCodeESt8functionIFvvEET_b():
C:\Users\lutz\source\Teensy\tttest/lib/TeensyTimerTool/src/baseTimer.h:74
     520:	f856 3b04 	ldr.w	r3, [r6], #4
     524:	4798      	blx	r3
     526:	4604      	mov	r4, r0
     528:	6068      	str	r0, [r5, #4]
C:\Users\lutz\source\Teensy\tttest/lib/TeensyTimerTool/src/baseTimer.h:72
     52a:	2800      	cmp	r0, #0
     52c:	d1ec      	bne.n	508 <setup+0x84>
     52e:	42be      	cmp	r6, r7
     530:	d1f6      	bne.n	520 <setup+0x9c>
C:\Users\lutz\source\Teensy\tttest/lib/TeensyTimerTool/src/baseTimer.h:77
     532:	2067      	movs	r0, #103	; 0x67
     534:	f000 fcbe 	bl	eb4 <TeensyTimerTool::postError(TeensyTimerTool::errorCode)>
     538:	e7cf      	b.n	4da <setup+0x56>
C:\Users\lutz\source\Teensy\tttest/lib/TeensyTimerTool/src/baseTimer.h:69
     53a:	2068      	movs	r0, #104	; 0x68
     53c:	f000 fcba 	bl	eb4 <TeensyTimerTool::postError(TeensyTimerTool::errorCode)>
     540:	e7cb      	b.n	4da <setup+0x56>
     542:	bf00      	nop
     544:	1fff90e0 	.word	0x1fff90e0
     548:	0000046d 	.word	0x0000046d
     54c:	00000479 	.word	0x00000479
     550:	48742400 	.word	0x48742400
     554:	1fff90f0 	.word	0x1fff90f0

00000558 <loop>:
loop():
C:\Users\lutz\source\Teensy\tttest/src/main.cpp:15
     558:	4770      	bx	lr
     55a:	bf00      	nop

0000055c <_GLOBAL__sub_I_t1>:
_GLOBAL__sub_I_t1():
C:\Users\lutz\source\Teensy\tttest/src/main.cpp:16
     55c:	b470      	push	{r4, r5, r6}
__static_initialization_and_destruction_0():
C:\Users\lutz\source\Teensy\tttest/lib/TeensyTimerTool/src/defaultConfig.h:23
     55e:	4b09      	ldr	r3, [pc, #36]	; (584 <_GLOBAL__sub_I_t1+0x28>)
     560:	4c09      	ldr	r4, [pc, #36]	; (588 <_GLOBAL__sub_I_t1+0x2c>)
     562:	480a      	ldr	r0, [pc, #40]	; (58c <_GLOBAL__sub_I_t1+0x30>)
     564:	4a0a      	ldr	r2, [pc, #40]	; (590 <_GLOBAL__sub_I_t1+0x34>)
     566:	6819      	ldr	r1, [r3, #0]
     568:	4b0a      	ldr	r3, [pc, #40]	; (594 <_GLOBAL__sub_I_t1+0x38>)
     56a:	6826      	ldr	r6, [r4, #0]
     56c:	6805      	ldr	r5, [r0, #0]
     56e:	6814      	ldr	r4, [r2, #0]
     570:	601e      	str	r6, [r3, #0]
     572:	605d      	str	r5, [r3, #4]
     574:	609c      	str	r4, [r3, #8]
_ZN15TeensyTimerTool13PeriodicTimerC4EPFPNS_13ITimerChannelEvE():
C:\Users\lutz\source\Teensy\tttest/lib/TeensyTimerTool/src/periodicTimer.h:11
     576:	4808      	ldr	r0, [pc, #32]	; (598 <_GLOBAL__sub_I_t1+0x3c>)
__static_initialization_and_destruction_0():
C:\Users\lutz\source\Teensy\tttest/lib/TeensyTimerTool/src/defaultConfig.h:23
     578:	60d9      	str	r1, [r3, #12]
_ZN15TeensyTimerTool13PeriodicTimerC4EPFPNS_13ITimerChannelEvE():
C:\Users\lutz\source\Teensy\tttest/lib/TeensyTimerTool/src/periodicTimer.h:11
     57a:	2201      	movs	r2, #1
_GLOBAL__sub_I_t1():
C:\Users\lutz\source\Teensy\tttest/src/main.cpp:16
     57c:	bc70      	pop	{r4, r5, r6}
_ZN15TeensyTimerTool13PeriodicTimerC4EPFPNS_13ITimerChannelEvE():
C:\Users\lutz\source\Teensy\tttest/lib/TeensyTimerTool/src/periodicTimer.h:11
     57e:	f000 bc87 	b.w	e90 <TeensyTimerTool::BaseTimer::BaseTimer(TeensyTimerTool::ITimerChannel* (*)(), bool)>
     582:	bf00      	nop
     584:	00003490 	.word	0x00003490
     588:	00003484 	.word	0x00003484
     58c:	00003488 	.word	0x00003488
     590:	0000348c 	.word	0x0000348c
     594:	1fff90f0 	.word	0x1fff90f0
     598:	1fff90e0 	.word	0x1fff90e0

0000059c <TeensyTimerTool::ITimerChannel::getPeriod()>:
_ZN15TeensyTimerTool13ITimerChannel9getPeriodEv():
C:\Users\lutz\source\Teensy\tttest/lib/TeensyTimerTool/src//Teensy/FTM/../../ITimerChannel.h:26
     59c:	2000      	movs	r0, #0
     59e:	4770      	bx	lr

000005a0 <TeensyTimerTool::FTM_Channel::start()>:
_ZN15TeensyTimerTool11FTM_Channel5startEv():
C:\Users\lutz\source\Teensy\tttest/lib/TeensyTimerTool/src//Teensy/FTM/FTM_Channel.h:61
     5a0:	6883      	ldr	r3, [r0, #8]
     5a2:	68c0      	ldr	r0, [r0, #12]
     5a4:	695a      	ldr	r2, [r3, #20]
     5a6:	6840      	ldr	r0, [r0, #4]
     5a8:	699b      	ldr	r3, [r3, #24]
     5aa:	4402      	add	r2, r0
     5ac:	605a      	str	r2, [r3, #4]
C:\Users\lutz\source\Teensy\tttest/lib/TeensyTimerTool/src//Teensy/FTM/FTM_Channel.h:62
     5ae:	681a      	ldr	r2, [r3, #0]
C:\Users\lutz\source\Teensy\tttest/lib/TeensyTimerTool/src//Teensy/FTM/FTM_Channel.h:63
     5b0:	2150      	movs	r1, #80	; 0x50
C:\Users\lutz\source\Teensy\tttest/lib/TeensyTimerTool/src//Teensy/FTM/FTM_Channel.h:62
     5b2:	f022 0280 	bic.w	r2, r2, #128	; 0x80
     5b6:	601a      	str	r2, [r3, #0]
C:\Users\lutz\source\Teensy\tttest/lib/TeensyTimerTool/src//Teensy/FTM/FTM_Channel.h:65
     5b8:	2000      	movs	r0, #0
C:\Users\lutz\source\Teensy\tttest/lib/TeensyTimerTool/src//Teensy/FTM/FTM_Channel.h:63
     5ba:	6019      	str	r1, [r3, #0]
C:\Users\lutz\source\Teensy\tttest/lib/TeensyTimerTool/src//Teensy/FTM/FTM_Channel.h:65
     5bc:	4770      	bx	lr
     5be:	bf00      	nop

000005c0 <TeensyTimerTool::FTM_Channel::stop()>:
_ZN15TeensyTimerTool11FTM_Channel4stopEv():
C:\Users\lutz\source\Teensy\tttest/lib/TeensyTimerTool/src//Teensy/FTM/FTM_Channel.h:69
     5c0:	6883      	ldr	r3, [r0, #8]
     5c2:	699b      	ldr	r3, [r3, #24]
     5c4:	681a      	ldr	r2, [r3, #0]
     5c6:	f022 0240 	bic.w	r2, r2, #64	; 0x40
     5ca:	601a      	str	r2, [r3, #0]
C:\Users\lutz\source\Teensy\tttest/lib/TeensyTimerTool/src//Teensy/FTM/FTM_Channel.h:70
     5cc:	681a      	ldr	r2, [r3, #0]
     5ce:	f022 0280 	bic.w	r2, r2, #128	; 0x80
     5d2:	601a      	str	r2, [r3, #0]
C:\Users\lutz\source\Teensy\tttest/lib/TeensyTimerTool/src//Teensy/FTM/FTM_Channel.h:73
     5d4:	2000      	movs	r0, #0
     5d6:	4770      	bx	lr

000005d8 <TeensyTimerTool::FTM_Channel::getMaxPeriod() const>:
_ZNK15TeensyTimerTool11FTM_Channel12getMaxPeriodEv():
C:\Users\lutz\source\Teensy\tttest/lib/TeensyTimerTool/src//Teensy/FTM/FTM_Channel.h:101
     5d8:	b508      	push	{r3, lr}
C:\Users\lutz\source\Teensy\tttest/lib/TeensyTimerTool/src//Teensy/FTM/FTM_Channel.h:102
     5da:	6883      	ldr	r3, [r0, #8]
     5dc:	4802      	ldr	r0, [pc, #8]	; (5e8 <TeensyTimerTool::FTM_Channel::getMaxPeriod() const+0x10>)
     5de:	69d9      	ldr	r1, [r3, #28]
     5e0:	f002 f910 	bl	2804 <__aeabi_fdiv>
C:\Users\lutz\source\Teensy\tttest/lib/TeensyTimerTool/src//Teensy/FTM/FTM_Channel.h:103
     5e4:	bd08      	pop	{r3, pc}
     5e6:	bf00      	nop
     5e8:	3d863737 	.word	0x3d863737

000005ec <TeensyTimerTool::FTM_Channel::~FTM_Channel()>:
_ZN15TeensyTimerTool11FTM_ChannelD2Ev():
C:\Users\lutz\source\Teensy\tttest/lib/TeensyTimerTool/src//Teensy/FTM/FTM_Channel.h:118
     5ec:	4770      	bx	lr
     5ee:	bf00      	nop

000005f0 <TeensyTimerTool::FTM_t<0u>::isr()>:
_ZN15TeensyTimerTool5FTM_tILj0EE3isrEv():
C:\Users\lutz\source\Teensy\tttest/lib/TeensyTimerTool/src//Teensy/FTM/FTM.h:65
     5f0:	b570      	push	{r4, r5, r6, lr}
     5f2:	4c14      	ldr	r4, [pc, #80]	; (644 <TeensyTimerTool::FTM_t<0u>::isr()+0x54>)
C:\Users\lutz\source\Teensy\tttest/lib/TeensyTimerTool/src//Teensy/FTM/FTM.h:76
     5f4:	4e14      	ldr	r6, [pc, #80]	; (648 <TeensyTimerTool::FTM_t<0u>::isr()+0x58>)
     5f6:	f504 7580 	add.w	r5, r4, #256	; 0x100
     5fa:	e002      	b.n	602 <TeensyTimerTool::FTM_t<0u>::isr()+0x12>
     5fc:	3420      	adds	r4, #32
C:\Users\lutz\source\Teensy\tttest/lib/TeensyTimerTool/src//Teensy/FTM/FTM.h:67 (discriminator 2)
     5fe:	42ac      	cmp	r4, r5
     600:	d018      	beq.n	634 <TeensyTimerTool::FTM_t<0u>::isr()+0x44>
C:\Users\lutz\source\Teensy\tttest/lib/TeensyTimerTool/src//Teensy/FTM/FTM.h:70
     602:	6962      	ldr	r2, [r4, #20]
C:\Users\lutz\source\Teensy\tttest/lib/TeensyTimerTool/src//Teensy/FTM/FTM.h:71
     604:	6813      	ldr	r3, [r2, #0]
     606:	f003 03c0 	and.w	r3, r3, #192	; 0xc0
     60a:	2bc0      	cmp	r3, #192	; 0xc0
     60c:	d1f6      	bne.n	5fc <TeensyTimerTool::FTM_t<0u>::isr()+0xc>
C:\Users\lutz\source\Teensy\tttest/lib/TeensyTimerTool/src//Teensy/FTM/FTM.h:73
     60e:	f814 3c03 	ldrb.w	r3, [r4, #-3]
     612:	b18b      	cbz	r3, 638 <TeensyTimerTool::FTM_t<0u>::isr()+0x48>
C:\Users\lutz\source\Teensy\tttest/lib/TeensyTimerTool/src//Teensy/FTM/FTM.h:75
     614:	6813      	ldr	r3, [r2, #0]
     616:	f023 0380 	bic.w	r3, r3, #128	; 0x80
     61a:	6013      	str	r3, [r2, #0]
C:\Users\lutz\source\Teensy\tttest/lib/TeensyTimerTool/src//Teensy/FTM/FTM.h:76
     61c:	6871      	ldr	r1, [r6, #4]
     61e:	6923      	ldr	r3, [r4, #16]
     620:	440b      	add	r3, r1
     622:	6053      	str	r3, [r2, #4]
_ZNKSt8functionIFvvEEclEv():
c:\toolchain\gcc\gcc-arm-none-eabi-5_4-2016q3-20160926-win32\arm-none-eabi\include\c++\5.4.1/functional:2265
     624:	68a3      	ldr	r3, [r4, #8]
c:\toolchain\gcc\gcc-arm-none-eabi-5_4-2016q3-20160926-win32\arm-none-eabi\include\c++\5.4.1/functional:2267
     626:	4620      	mov	r0, r4
c:\toolchain\gcc\gcc-arm-none-eabi-5_4-2016q3-20160926-win32\arm-none-eabi\include\c++\5.4.1/functional:2265
     628:	b12b      	cbz	r3, 636 <TeensyTimerTool::FTM_t<0u>::isr()+0x46>
c:\toolchain\gcc\gcc-arm-none-eabi-5_4-2016q3-20160926-win32\arm-none-eabi\include\c++\5.4.1/functional:2267
     62a:	68e3      	ldr	r3, [r4, #12]
     62c:	3420      	adds	r4, #32
     62e:	4798      	blx	r3
_ZN15TeensyTimerTool5FTM_tILj0EE3isrEv():
C:\Users\lutz\source\Teensy\tttest/lib/TeensyTimerTool/src//Teensy/FTM/FTM.h:67
     630:	42ac      	cmp	r4, r5
     632:	d1e6      	bne.n	602 <TeensyTimerTool::FTM_t<0u>::isr()+0x12>
C:\Users\lutz\source\Teensy\tttest/lib/TeensyTimerTool/src//Teensy/FTM/FTM.h:84
     634:	bd70      	pop	{r4, r5, r6, pc}
     636:	e7fe      	b.n	636 <TeensyTimerTool::FTM_t<0u>::isr()+0x46>
C:\Users\lutz\source\Teensy\tttest/lib/TeensyTimerTool/src//Teensy/FTM/FTM.h:79
     638:	6813      	ldr	r3, [r2, #0]
     63a:	f023 0340 	bic.w	r3, r3, #64	; 0x40
     63e:	6013      	str	r3, [r2, #0]
     640:	e7f0      	b.n	624 <TeensyTimerTool::FTM_t<0u>::isr()+0x34>
     642:	bf00      	nop
     644:	1fff9194 	.word	0x1fff9194
     648:	40038000 	.word	0x40038000

0000064c <TeensyTimerTool::FTM_t<1u>::isr()>:
_ZN15TeensyTimerTool5FTM_tILj1EE3isrEv():
C:\Users\lutz\source\Teensy\tttest/lib/TeensyTimerTool/src//Teensy/FTM/FTM.h:65
     64c:	b570      	push	{r4, r5, r6, lr}
     64e:	4c12      	ldr	r4, [pc, #72]	; (698 <TeensyTimerTool::FTM_t<1u>::isr()+0x4c>)
C:\Users\lutz\source\Teensy\tttest/lib/TeensyTimerTool/src//Teensy/FTM/FTM.h:76
     650:	4e12      	ldr	r6, [pc, #72]	; (69c <TeensyTimerTool::FTM_t<1u>::isr()+0x50>)
     652:	f104 0540 	add.w	r5, r4, #64	; 0x40
C:\Users\lutz\source\Teensy\tttest/lib/TeensyTimerTool/src//Teensy/FTM/FTM.h:70
     656:	6962      	ldr	r2, [r4, #20]
C:\Users\lutz\source\Teensy\tttest/lib/TeensyTimerTool/src//Teensy/FTM/FTM.h:71
     658:	6813      	ldr	r3, [r2, #0]
     65a:	f003 03c0 	and.w	r3, r3, #192	; 0xc0
     65e:	2bc0      	cmp	r3, #192	; 0xc0
     660:	d003      	beq.n	66a <TeensyTimerTool::FTM_t<1u>::isr()+0x1e>
     662:	3420      	adds	r4, #32
C:\Users\lutz\source\Teensy\tttest/lib/TeensyTimerTool/src//Teensy/FTM/FTM.h:67 (discriminator 2)
     664:	42ac      	cmp	r4, r5
     666:	d1f6      	bne.n	656 <TeensyTimerTool::FTM_t<1u>::isr()+0xa>
C:\Users\lutz\source\Teensy\tttest/lib/TeensyTimerTool/src//Teensy/FTM/FTM.h:84
     668:	bd70      	pop	{r4, r5, r6, pc}
C:\Users\lutz\source\Teensy\tttest/lib/TeensyTimerTool/src//Teensy/FTM/FTM.h:73
     66a:	f814 3c03 	ldrb.w	r3, [r4, #-3]
     66e:	b953      	cbnz	r3, 686 <TeensyTimerTool::FTM_t<1u>::isr()+0x3a>
C:\Users\lutz\source\Teensy\tttest/lib/TeensyTimerTool/src//Teensy/FTM/FTM.h:79
     670:	6813      	ldr	r3, [r2, #0]
     672:	f023 0340 	bic.w	r3, r3, #64	; 0x40
     676:	6013      	str	r3, [r2, #0]
_ZNKSt8functionIFvvEEclEv():
c:\toolchain\gcc\gcc-arm-none-eabi-5_4-2016q3-20160926-win32\arm-none-eabi\include\c++\5.4.1/functional:2265
     678:	68a3      	ldr	r3, [r4, #8]
c:\toolchain\gcc\gcc-arm-none-eabi-5_4-2016q3-20160926-win32\arm-none-eabi\include\c++\5.4.1/functional:2267
     67a:	4620      	mov	r0, r4
c:\toolchain\gcc\gcc-arm-none-eabi-5_4-2016q3-20160926-win32\arm-none-eabi\include\c++\5.4.1/functional:2265
     67c:	b113      	cbz	r3, 684 <TeensyTimerTool::FTM_t<1u>::isr()+0x38>
c:\toolchain\gcc\gcc-arm-none-eabi-5_4-2016q3-20160926-win32\arm-none-eabi\include\c++\5.4.1/functional:2267
     67e:	68e3      	ldr	r3, [r4, #12]
     680:	4798      	blx	r3
     682:	e7ee      	b.n	662 <TeensyTimerTool::FTM_t<1u>::isr()+0x16>
     684:	e7fe      	b.n	684 <TeensyTimerTool::FTM_t<1u>::isr()+0x38>
_ZN15TeensyTimerTool5FTM_tILj1EE3isrEv():
C:\Users\lutz\source\Teensy\tttest/lib/TeensyTimerTool/src//Teensy/FTM/FTM.h:75
     686:	6813      	ldr	r3, [r2, #0]
     688:	f023 0380 	bic.w	r3, r3, #128	; 0x80
     68c:	6013      	str	r3, [r2, #0]
C:\Users\lutz\source\Teensy\tttest/lib/TeensyTimerTool/src//Teensy/FTM/FTM.h:76
     68e:	6871      	ldr	r1, [r6, #4]
     690:	6923      	ldr	r3, [r4, #16]
     692:	440b      	add	r3, r1
     694:	6053      	str	r3, [r2, #4]
     696:	e7ef      	b.n	678 <TeensyTimerTool::FTM_t<1u>::isr()+0x2c>
     698:	1fff9154 	.word	0x1fff9154
     69c:	40039000 	.word	0x40039000

000006a0 <TeensyTimerTool::FTM_t<2u>::isr()>:
_ZN15TeensyTimerTool5FTM_tILj2EE3isrEv():
C:\Users\lutz\source\Teensy\tttest/lib/TeensyTimerTool/src//Teensy/FTM/FTM.h:65
     6a0:	b570      	push	{r4, r5, r6, lr}
     6a2:	4c12      	ldr	r4, [pc, #72]	; (6ec <TeensyTimerTool::FTM_t<2u>::isr()+0x4c>)
C:\Users\lutz\source\Teensy\tttest/lib/TeensyTimerTool/src//Teensy/FTM/FTM.h:76
     6a4:	4e12      	ldr	r6, [pc, #72]	; (6f0 <TeensyTimerTool::FTM_t<2u>::isr()+0x50>)
     6a6:	f104 0540 	add.w	r5, r4, #64	; 0x40
C:\Users\lutz\source\Teensy\tttest/lib/TeensyTimerTool/src//Teensy/FTM/FTM.h:70
     6aa:	6962      	ldr	r2, [r4, #20]
C:\Users\lutz\source\Teensy\tttest/lib/TeensyTimerTool/src//Teensy/FTM/FTM.h:71
     6ac:	6813      	ldr	r3, [r2, #0]
     6ae:	f003 03c0 	and.w	r3, r3, #192	; 0xc0
     6b2:	2bc0      	cmp	r3, #192	; 0xc0
     6b4:	d003      	beq.n	6be <TeensyTimerTool::FTM_t<2u>::isr()+0x1e>
     6b6:	3420      	adds	r4, #32
C:\Users\lutz\source\Teensy\tttest/lib/TeensyTimerTool/src//Teensy/FTM/FTM.h:67 (discriminator 2)
     6b8:	42ac      	cmp	r4, r5
     6ba:	d1f6      	bne.n	6aa <TeensyTimerTool::FTM_t<2u>::isr()+0xa>
C:\Users\lutz\source\Teensy\tttest/lib/TeensyTimerTool/src//Teensy/FTM/FTM.h:84
     6bc:	bd70      	pop	{r4, r5, r6, pc}
C:\Users\lutz\source\Teensy\tttest/lib/TeensyTimerTool/src//Teensy/FTM/FTM.h:73
     6be:	f814 3c03 	ldrb.w	r3, [r4, #-3]
     6c2:	b953      	cbnz	r3, 6da <TeensyTimerTool::FTM_t<2u>::isr()+0x3a>
C:\Users\lutz\source\Teensy\tttest/lib/TeensyTimerTool/src//Teensy/FTM/FTM.h:79
     6c4:	6813      	ldr	r3, [r2, #0]
     6c6:	f023 0340 	bic.w	r3, r3, #64	; 0x40
     6ca:	6013      	str	r3, [r2, #0]
_ZNKSt8functionIFvvEEclEv():
c:\toolchain\gcc\gcc-arm-none-eabi-5_4-2016q3-20160926-win32\arm-none-eabi\include\c++\5.4.1/functional:2265
     6cc:	68a3      	ldr	r3, [r4, #8]
c:\toolchain\gcc\gcc-arm-none-eabi-5_4-2016q3-20160926-win32\arm-none-eabi\include\c++\5.4.1/functional:2267
     6ce:	4620      	mov	r0, r4
c:\toolchain\gcc\gcc-arm-none-eabi-5_4-2016q3-20160926-win32\arm-none-eabi\include\c++\5.4.1/functional:2265
     6d0:	b113      	cbz	r3, 6d8 <TeensyTimerTool::FTM_t<2u>::isr()+0x38>
c:\toolchain\gcc\gcc-arm-none-eabi-5_4-2016q3-20160926-win32\arm-none-eabi\include\c++\5.4.1/functional:2267
     6d2:	68e3      	ldr	r3, [r4, #12]
     6d4:	4798      	blx	r3
     6d6:	e7ee      	b.n	6b6 <TeensyTimerTool::FTM_t<2u>::isr()+0x16>
     6d8:	e7fe      	b.n	6d8 <TeensyTimerTool::FTM_t<2u>::isr()+0x38>
_ZN15TeensyTimerTool5FTM_tILj2EE3isrEv():
C:\Users\lutz\source\Teensy\tttest/lib/TeensyTimerTool/src//Teensy/FTM/FTM.h:75
     6da:	6813      	ldr	r3, [r2, #0]
     6dc:	f023 0380 	bic.w	r3, r3, #128	; 0x80
     6e0:	6013      	str	r3, [r2, #0]
C:\Users\lutz\source\Teensy\tttest/lib/TeensyTimerTool/src//Teensy/FTM/FTM.h:76
     6e2:	6871      	ldr	r1, [r6, #4]
     6e4:	6923      	ldr	r3, [r4, #16]
     6e6:	440b      	add	r3, r1
     6e8:	6053      	str	r3, [r2, #4]
     6ea:	e7ef      	b.n	6cc <TeensyTimerTool::FTM_t<2u>::isr()+0x2c>
     6ec:	1fff9114 	.word	0x1fff9114
     6f0:	400b8000 	.word	0x400b8000

000006f4 <__tcf_0>:
__tcf_0():
C:\Users\lutz\source\Teensy\tttest/lib/TeensyTimerTool/src//Teensy/FTM/FTM.h:87
     6f4:	b538      	push	{r3, r4, r5, lr}
     6f6:	4c06      	ldr	r4, [pc, #24]	; (710 <__tcf_0+0x1c>)
     6f8:	f5a4 7580 	sub.w	r5, r4, #256	; 0x100
_ZNSt14_Function_baseD4Ev():
c:\toolchain\gcc\gcc-arm-none-eabi-5_4-2016q3-20160926-win32\arm-none-eabi\include\c++\5.4.1/functional:1829 (discriminator 3)
     6fc:	68e3      	ldr	r3, [r4, #12]
     6fe:	1d21      	adds	r1, r4, #4
c:\toolchain\gcc\gcc-arm-none-eabi-5_4-2016q3-20160926-win32\arm-none-eabi\include\c++\5.4.1/functional:1830 (discriminator 3)
     700:	2203      	movs	r2, #3
     702:	3c20      	subs	r4, #32
     704:	4608      	mov	r0, r1
c:\toolchain\gcc\gcc-arm-none-eabi-5_4-2016q3-20160926-win32\arm-none-eabi\include\c++\5.4.1/functional:1829 (discriminator 3)
     706:	b103      	cbz	r3, 70a <__tcf_0+0x16>
c:\toolchain\gcc\gcc-arm-none-eabi-5_4-2016q3-20160926-win32\arm-none-eabi\include\c++\5.4.1/functional:1830
     708:	4798      	blx	r3
__tcf_0():
C:\Users\lutz\source\Teensy\tttest/lib/TeensyTimerTool/src//Teensy/FTM/FTM.h:87
     70a:	42ac      	cmp	r4, r5
     70c:	d1f6      	bne.n	6fc <__tcf_0+0x8>
     70e:	bd38      	pop	{r3, r4, r5, pc}
     710:	1fff9270 	.word	0x1fff9270

00000714 <__tcf_1>:
__tcf_1():
C:\Users\lutz\source\Teensy\tttest/lib/TeensyTimerTool/src//Teensy/FTM/FTM.h:87
     714:	b510      	push	{r4, lr}
_ZNSt14_Function_baseD4Ev():
c:\toolchain\gcc\gcc-arm-none-eabi-5_4-2016q3-20160926-win32\arm-none-eabi\include\c++\5.4.1/functional:1829
     716:	4c08      	ldr	r4, [pc, #32]	; (738 <__tcf_1+0x24>)
     718:	6ae3      	ldr	r3, [r4, #44]	; 0x2c
     71a:	b123      	cbz	r3, 726 <__tcf_1+0x12>
c:\toolchain\gcc\gcc-arm-none-eabi-5_4-2016q3-20160926-win32\arm-none-eabi\include\c++\5.4.1/functional:1830
     71c:	f104 0124 	add.w	r1, r4, #36	; 0x24
     720:	4608      	mov	r0, r1
     722:	2203      	movs	r2, #3
     724:	4798      	blx	r3
c:\toolchain\gcc\gcc-arm-none-eabi-5_4-2016q3-20160926-win32\arm-none-eabi\include\c++\5.4.1/functional:1829
     726:	68e3      	ldr	r3, [r4, #12]
     728:	b12b      	cbz	r3, 736 <__tcf_1+0x22>
c:\toolchain\gcc\gcc-arm-none-eabi-5_4-2016q3-20160926-win32\arm-none-eabi\include\c++\5.4.1/functional:1830
     72a:	4904      	ldr	r1, [pc, #16]	; (73c <__tcf_1+0x28>)
     72c:	2203      	movs	r2, #3
     72e:	4608      	mov	r0, r1
__tcf_1():
C:\Users\lutz\source\Teensy\tttest/lib/TeensyTimerTool/src//Teensy/FTM/FTM.h:87
     730:	e8bd 4010 	ldmia.w	sp!, {r4, lr}
_ZNSt14_Function_baseD4Ev():
c:\toolchain\gcc\gcc-arm-none-eabi-5_4-2016q3-20160926-win32\arm-none-eabi\include\c++\5.4.1/functional:1830
     734:	4718      	bx	r3
     736:	bd10      	pop	{r4, pc}
     738:	1fff9150 	.word	0x1fff9150
     73c:	1fff9154 	.word	0x1fff9154

00000740 <__tcf_2>:
__tcf_2():
C:\Users\lutz\source\Teensy\tttest/lib/TeensyTimerTool/src//Teensy/FTM/FTM.h:87
     740:	b510      	push	{r4, lr}
_ZNSt14_Function_baseD4Ev():
c:\toolchain\gcc\gcc-arm-none-eabi-5_4-2016q3-20160926-win32\arm-none-eabi\include\c++\5.4.1/functional:1829
     742:	4c08      	ldr	r4, [pc, #32]	; (764 <__tcf_2+0x24>)
     744:	6ae3      	ldr	r3, [r4, #44]	; 0x2c
     746:	b123      	cbz	r3, 752 <__tcf_2+0x12>
c:\toolchain\gcc\gcc-arm-none-eabi-5_4-2016q3-20160926-win32\arm-none-eabi\include\c++\5.4.1/functional:1830
     748:	f104 0124 	add.w	r1, r4, #36	; 0x24
     74c:	4608      	mov	r0, r1
     74e:	2203      	movs	r2, #3
     750:	4798      	blx	r3
c:\toolchain\gcc\gcc-arm-none-eabi-5_4-2016q3-20160926-win32\arm-none-eabi\include\c++\5.4.1/functional:1829
     752:	68e3      	ldr	r3, [r4, #12]
     754:	b12b      	cbz	r3, 762 <__tcf_2+0x22>
c:\toolchain\gcc\gcc-arm-none-eabi-5_4-2016q3-20160926-win32\arm-none-eabi\include\c++\5.4.1/functional:1830
     756:	4904      	ldr	r1, [pc, #16]	; (768 <__tcf_2+0x28>)
     758:	2203      	movs	r2, #3
     75a:	4608      	mov	r0, r1
__tcf_2():
C:\Users\lutz\source\Teensy\tttest/lib/TeensyTimerTool/src//Teensy/FTM/FTM.h:87
     75c:	e8bd 4010 	ldmia.w	sp!, {r4, lr}
_ZNSt14_Function_baseD4Ev():
c:\toolchain\gcc\gcc-arm-none-eabi-5_4-2016q3-20160926-win32\arm-none-eabi\include\c++\5.4.1/functional:1830
     760:	4718      	bx	r3
     762:	bd10      	pop	{r4, pc}
     764:	1fff9110 	.word	0x1fff9110
     768:	1fff9114 	.word	0x1fff9114

0000076c <TeensyTimerTool::TckChannel<unsigned long>::triggerDirect(unsigned long)>:
_ZN15TeensyTimerTool10TckChannelImE15getCycleCounterEv():
C:\Users\lutz\source\Teensy\tttest/lib/TeensyTimerTool/src//Teensy/TCK/TckChannel.h:160
     76c:	4b04      	ldr	r3, [pc, #16]	; (780 <TeensyTimerTool::TckChannel<unsigned long>::triggerDirect(unsigned long)+0x14>)
     76e:	681b      	ldr	r3, [r3, #0]
_ZN15TeensyTimerTool10TckChannelImE13triggerDirectEm():
C:\Users\lutz\source\Teensy\tttest/lib/TeensyTimerTool/src//Teensy/TCK/TckChannel.h:110
     770:	61c3      	str	r3, [r0, #28]
C:\Users\lutz\source\Teensy\tttest/lib/TeensyTimerTool/src//Teensy/TCK/TckChannel.h:113
     772:	2301      	movs	r3, #1
C:\Users\lutz\source\Teensy\tttest/lib/TeensyTimerTool/src//Teensy/TCK/TckChannel.h:111
     774:	6241      	str	r1, [r0, #36]	; 0x24
C:\Users\lutz\source\Teensy\tttest/lib/TeensyTimerTool/src//Teensy/TCK/TckChannel.h:112
     776:	6201      	str	r1, [r0, #32]
C:\Users\lutz\source\Teensy\tttest/lib/TeensyTimerTool/src//Teensy/TCK/TckChannel.h:113
     778:	7643      	strb	r3, [r0, #25]
C:\Users\lutz\source\Teensy\tttest/lib/TeensyTimerTool/src//Teensy/TCK/TckChannel.h:115
     77a:	2000      	movs	r0, #0
     77c:	4770      	bx	lr
     77e:	bf00      	nop
     780:	e0001004 	.word	0xe0001004

00000784 <TeensyTimerTool::TckChannel<unsigned long>::start()>:
_ZN15TeensyTimerTool10TckChannelImE15getCycleCounterEv():
C:\Users\lutz\source\Teensy\tttest/lib/TeensyTimerTool/src//Teensy/TCK/TckChannel.h:160
     784:	4b03      	ldr	r3, [pc, #12]	; (794 <TeensyTimerTool::TckChannel<unsigned long>::start()+0x10>)
     786:	681b      	ldr	r3, [r3, #0]
_ZN15TeensyTimerTool10TckChannelImE5startEv():
C:\Users\lutz\source\Teensy\tttest/lib/TeensyTimerTool/src//Teensy/TCK/TckChannel.h:95
     788:	61c3      	str	r3, [r0, #28]
C:\Users\lutz\source\Teensy\tttest/lib/TeensyTimerTool/src//Teensy/TCK/TckChannel.h:96
     78a:	2301      	movs	r3, #1
     78c:	7643      	strb	r3, [r0, #25]
C:\Users\lutz\source\Teensy\tttest/lib/TeensyTimerTool/src//Teensy/TCK/TckChannel.h:98
     78e:	2000      	movs	r0, #0
     790:	4770      	bx	lr
     792:	bf00      	nop
     794:	e0001004 	.word	0xe0001004

00000798 <TeensyTimerTool::TckChannel<unsigned long>::stop()>:
_ZN15TeensyTimerTool10TckChannelImE4stopEv():
C:\Users\lutz\source\Teensy\tttest/lib/TeensyTimerTool/src//Teensy/TCK/TckChannel.h:103
     798:	2300      	movs	r3, #0
     79a:	7643      	strb	r3, [r0, #25]
C:\Users\lutz\source\Teensy\tttest/lib/TeensyTimerTool/src//Teensy/TCK/TckChannel.h:105
     79c:	4618      	mov	r0, r3
     79e:	4770      	bx	lr

000007a0 <TeensyTimerTool::TckChannel<unsigned long>::getMaxPeriod() const>:
_ZNK15TeensyTimerTool10TckChannelImE12getMaxPeriodEv():
C:\Users\lutz\source\Teensy\tttest/lib/TeensyTimerTool/src//Teensy/TCK/TckChannel.h:33
     7a0:	b508      	push	{r3, lr}
     7a2:	6b01      	ldr	r1, [r0, #48]	; 0x30
     7a4:	4803      	ldr	r0, [pc, #12]	; (7b4 <TeensyTimerTool::TckChannel<unsigned long>::getMaxPeriod() const+0x14>)
     7a6:	f002 f82d 	bl	2804 <__aeabi_fdiv>
     7aa:	4903      	ldr	r1, [pc, #12]	; (7b8 <TeensyTimerTool::TckChannel<unsigned long>::getMaxPeriod() const+0x18>)
     7ac:	f002 f82a 	bl	2804 <__aeabi_fdiv>
     7b0:	bd08      	pop	{r3, pc}
     7b2:	bf00      	nop
     7b4:	4f700000 	.word	0x4f700000
     7b8:	49742400 	.word	0x49742400

000007bc <TeensyTimerTool::TckChannel<unsigned long>::tick()>:
_ZN15TeensyTimerTool10TckChannelImE4tickEv():
C:\Users\lutz\source\Teensy\tttest/lib/TeensyTimerTool/src//Teensy/TCK/TckChannel.h:124
     7bc:	b5f8      	push	{r3, r4, r5, r6, r7, lr}
C:\Users\lutz\source\Teensy\tttest/lib/TeensyTimerTool/src//Teensy/TCK/TckChannel.h:128
     7be:	4d10      	ldr	r5, [pc, #64]	; (800 <TeensyTimerTool::TckChannel<unsigned long>::tick()+0x44>)
_ZN15TeensyTimerTool10TckChannelImE15getCycleCounterEv():
C:\Users\lutz\source\Teensy\tttest/lib/TeensyTimerTool/src//Teensy/TCK/TckChannel.h:160
     7c0:	4b10      	ldr	r3, [pc, #64]	; (804 <TeensyTimerTool::TckChannel<unsigned long>::tick()+0x48>)
_ZN15TeensyTimerTool10TckChannelImE4tickEv():
C:\Users\lutz\source\Teensy\tttest/lib/TeensyTimerTool/src//Teensy/TCK/TckChannel.h:128
     7c2:	782c      	ldrb	r4, [r5, #0]
_ZN15TeensyTimerTool10TckChannelImE15getCycleCounterEv():
C:\Users\lutz\source\Teensy\tttest/lib/TeensyTimerTool/src//Teensy/TCK/TckChannel.h:160
     7c4:	681a      	ldr	r2, [r3, #0]
_ZN15TeensyTimerTool10TckChannelImE4tickEv():
C:\Users\lutz\source\Teensy\tttest/lib/TeensyTimerTool/src//Teensy/TCK/TckChannel.h:128
     7c6:	b9b4      	cbnz	r4, 7f6 <TeensyTimerTool::TckChannel<unsigned long>::tick()+0x3a>
C:\Users\lutz\source\Teensy\tttest/lib/TeensyTimerTool/src//Teensy/TCK/TckChannel.h:128 (discriminator 1)
     7c8:	6a01      	ldr	r1, [r0, #32]
     7ca:	b191      	cbz	r1, 7f2 <TeensyTimerTool::TckChannel<unsigned long>::tick()+0x36>
C:\Users\lutz\source\Teensy\tttest/lib/TeensyTimerTool/src//Teensy/TCK/TckChannel.h:128 (discriminator 2)
     7cc:	7e46      	ldrb	r6, [r0, #25]
     7ce:	b186      	cbz	r6, 7f2 <TeensyTimerTool::TckChannel<unsigned long>::tick()+0x36>
C:\Users\lutz\source\Teensy\tttest/lib/TeensyTimerTool/src//Teensy/TCK/TckChannel.h:128 (discriminator 3)
     7d0:	69c3      	ldr	r3, [r0, #28]
     7d2:	1ad2      	subs	r2, r2, r3
     7d4:	4291      	cmp	r1, r2
     7d6:	d80c      	bhi.n	7f2 <TeensyTimerTool::TckChannel<unsigned long>::tick()+0x36>
_ZNKSt8functionIFvvEEclEv():
c:\toolchain\gcc\gcc-arm-none-eabi-5_4-2016q3-20160926-win32\arm-none-eabi\include\c++\5.4.1/functional:2265
     7d8:	6902      	ldr	r2, [r0, #16]
_ZN15TeensyTimerTool10TckChannelImE4tickEv():
C:\Users\lutz\source\Teensy\tttest/lib/TeensyTimerTool/src//Teensy/TCK/TckChannel.h:133
     7da:	7e07      	ldrb	r7, [r0, #24]
     7dc:	7647      	strb	r7, [r0, #25]
C:\Users\lutz\source\Teensy\tttest/lib/TeensyTimerTool/src//Teensy/TCK/TckChannel.h:132
     7de:	440b      	add	r3, r1
C:\Users\lutz\source\Teensy\tttest/lib/TeensyTimerTool/src//Teensy/TCK/TckChannel.h:130
     7e0:	2101      	movs	r1, #1
C:\Users\lutz\source\Teensy\tttest/lib/TeensyTimerTool/src//Teensy/TCK/TckChannel.h:132
     7e2:	61c3      	str	r3, [r0, #28]
C:\Users\lutz\source\Teensy\tttest/lib/TeensyTimerTool/src//Teensy/TCK/TckChannel.h:130
     7e4:	7029      	strb	r1, [r5, #0]
_ZNKSt8functionIFvvEEclEv():
c:\toolchain\gcc\gcc-arm-none-eabi-5_4-2016q3-20160926-win32\arm-none-eabi\include\c++\5.4.1/functional:2265
     7e6:	b14a      	cbz	r2, 7fc <TeensyTimerTool::TckChannel<unsigned long>::tick()+0x40>
c:\toolchain\gcc\gcc-arm-none-eabi-5_4-2016q3-20160926-win32\arm-none-eabi\include\c++\5.4.1/functional:2267
     7e8:	6943      	ldr	r3, [r0, #20]
     7ea:	3008      	adds	r0, #8
     7ec:	4798      	blx	r3
_ZN15TeensyTimerTool10TckChannelImE4tickEv():
C:\Users\lutz\source\Teensy\tttest/lib/TeensyTimerTool/src//Teensy/TCK/TckChannel.h:135
     7ee:	702c      	strb	r4, [r5, #0]
C:\Users\lutz\source\Teensy\tttest/lib/TeensyTimerTool/src//Teensy/TCK/TckChannel.h:136
     7f0:	4634      	mov	r4, r6
C:\Users\lutz\source\Teensy\tttest/lib/TeensyTimerTool/src//Teensy/TCK/TckChannel.h:141
     7f2:	4620      	mov	r0, r4
     7f4:	bdf8      	pop	{r3, r4, r5, r6, r7, pc}
C:\Users\lutz\source\Teensy\tttest/lib/TeensyTimerTool/src//Teensy/TCK/TckChannel.h:139
     7f6:	2400      	movs	r4, #0
C:\Users\lutz\source\Teensy\tttest/lib/TeensyTimerTool/src//Teensy/TCK/TckChannel.h:141
     7f8:	4620      	mov	r0, r4
     7fa:	bdf8      	pop	{r3, r4, r5, r6, r7, pc}
     7fc:	e7fe      	b.n	7fc <TeensyTimerTool::TckChannel<unsigned long>::tick()+0x40>
     7fe:	bf00      	nop
     800:	1fff9100 	.word	0x1fff9100
     804:	e0001004 	.word	0xe0001004

00000808 <TeensyTimerTool::TckChannel<unsigned long>::~TckChannel()>:
_ZNSt14_Function_baseD4Ev():
c:\toolchain\gcc\gcc-arm-none-eabi-5_4-2016q3-20160926-win32\arm-none-eabi\include\c++\5.4.1/functional:1829
     808:	6903      	ldr	r3, [r0, #16]
_ZN15TeensyTimerTool10TckChannelImED2Ev():
C:\Users\lutz\source\Teensy\tttest/lib/TeensyTimerTool/src//Teensy/TCK/TckChannel.h:19
     80a:	4a06      	ldr	r2, [pc, #24]	; (824 <TeensyTimerTool::TckChannel<unsigned long>::~TckChannel()+0x1c>)
     80c:	b510      	push	{r4, lr}
     80e:	4604      	mov	r4, r0
     810:	6002      	str	r2, [r0, #0]
_ZNSt14_Function_baseD4Ev():
c:\toolchain\gcc\gcc-arm-none-eabi-5_4-2016q3-20160926-win32\arm-none-eabi\include\c++\5.4.1/functional:1829
     812:	b123      	cbz	r3, 81e <TeensyTimerTool::TckChannel<unsigned long>::~TckChannel()+0x16>
c:\toolchain\gcc\gcc-arm-none-eabi-5_4-2016q3-20160926-win32\arm-none-eabi\include\c++\5.4.1/functional:1830
     814:	f100 0108 	add.w	r1, r0, #8
     818:	4608      	mov	r0, r1
     81a:	2203      	movs	r2, #3
     81c:	4798      	blx	r3
_ZN15TeensyTimerTool10TckChannelImED2Ev():
C:\Users\lutz\source\Teensy\tttest/lib/TeensyTimerTool/src//Teensy/TCK/TckChannel.h:19
     81e:	4620      	mov	r0, r4
     820:	bd10      	pop	{r4, pc}
     822:	bf00      	nop
     824:	00003440 	.word	0x00003440

00000828 <TeensyTimerTool::ITimerChannel* TeensyTimerTool::TCK_t::getTimer<unsigned long>()>:
_ZN15TeensyTimerTool5TCK_t8getTimerImEEPNS_13ITimerChannelEv():
C:\Users\lutz\source\Teensy\tttest/lib/TeensyTimerTool/src//Teensy/TCK/TCK.h:28
     828:	4818      	ldr	r0, [pc, #96]	; (88c <TeensyTimerTool::ITimerChannel* TeensyTimerTool::TCK_t::getTimer<unsigned long>()+0x64>)
     82a:	7802      	ldrb	r2, [r0, #0]
C:\Users\lutz\source\Teensy\tttest/lib/TeensyTimerTool/src//Teensy/TCK/TCK.h:26
     82c:	b538      	push	{r3, r4, r5, lr}
C:\Users\lutz\source\Teensy\tttest/lib/TeensyTimerTool/src//Teensy/TCK/TCK.h:28
     82e:	b9a2      	cbnz	r2, 85a <TeensyTimerTool::ITimerChannel* TeensyTimerTool::TCK_t::getTimer<unsigned long>()+0x32>
     830:	4b17      	ldr	r3, [pc, #92]	; (890 <TeensyTimerTool::ITimerChannel* TeensyTimerTool::TCK_t::getTimer<unsigned long>()+0x68>)
     832:	f103 0150 	add.w	r1, r3, #80	; 0x50
C:\Users\lutz\source\Teensy\tttest/lib/TeensyTimerTool/src//Teensy/TCK/TCK.h:32 (discriminator 2)
     836:	f843 2f04 	str.w	r2, [r3, #4]!
C:\Users\lutz\source\Teensy\tttest/lib/TeensyTimerTool/src//Teensy/TCK/TCK.h:30 (discriminator 2)
     83a:	428b      	cmp	r3, r1
     83c:	d1fb      	bne.n	836 <TeensyTimerTool::ITimerChannel* TeensyTimerTool::TCK_t::getTimer<unsigned long>()+0xe>
C:\Users\lutz\source\Teensy\tttest/lib/TeensyTimerTool/src//Teensy/TCK/TCK.h:37
     83e:	4915      	ldr	r1, [pc, #84]	; (894 <TeensyTimerTool::ITimerChannel* TeensyTimerTool::TCK_t::getTimer<unsigned long>()+0x6c>)
C:\Users\lutz\source\Teensy\tttest/lib/TeensyTimerTool/src//Teensy/TCK/TCK.h:38
     840:	4a15      	ldr	r2, [pc, #84]	; (898 <TeensyTimerTool::ITimerChannel* TeensyTimerTool::TCK_t::getTimer<unsigned long>()+0x70>)
C:\Users\lutz\source\Teensy\tttest/lib/TeensyTimerTool/src//Teensy/TCK/TCK.h:34
     842:	2301      	movs	r3, #1
     844:	7003      	strb	r3, [r0, #0]
C:\Users\lutz\source\Teensy\tttest/lib/TeensyTimerTool/src//Teensy/TCK/TCK.h:37
     846:	680b      	ldr	r3, [r1, #0]
     848:	f043 7380 	orr.w	r3, r3, #16777216	; 0x1000000
     84c:	600b      	str	r3, [r1, #0]
C:\Users\lutz\source\Teensy\tttest/lib/TeensyTimerTool/src//Teensy/TCK/TCK.h:38
     84e:	6813      	ldr	r3, [r2, #0]
     850:	f043 0301 	orr.w	r3, r3, #1
     854:	6013      	str	r3, [r2, #0]
C:\Users\lutz\source\Teensy\tttest/lib/TeensyTimerTool/src//Teensy/TCK/TCK.h:43
     856:	f000 fb99 	bl	f8c <TeensyTimerTool::initYieldHook()>
     85a:	4b0d      	ldr	r3, [pc, #52]	; (890 <TeensyTimerTool::ITimerChannel* TeensyTimerTool::TCK_t::getTimer<unsigned long>()+0x68>)
C:\Users\lutz\source\Teensy\tttest/lib/TeensyTimerTool/src//Teensy/TCK/TCK.h:47
     85c:	2400      	movs	r4, #0
C:\Users\lutz\source\Teensy\tttest/lib/TeensyTimerTool/src//Teensy/TCK/TCK.h:49
     85e:	f853 5f04 	ldr.w	r5, [r3, #4]!
     862:	b125      	cbz	r5, 86e <TeensyTimerTool::ITimerChannel* TeensyTimerTool::TCK_t::getTimer<unsigned long>()+0x46>
C:\Users\lutz\source\Teensy\tttest/lib/TeensyTimerTool/src//Teensy/TCK/TCK.h:47 (discriminator 2)
     864:	3401      	adds	r4, #1
     866:	2c14      	cmp	r4, #20
     868:	d1f9      	bne.n	85e <TeensyTimerTool::ITimerChannel* TeensyTimerTool::TCK_t::getTimer<unsigned long>()+0x36>
C:\Users\lutz\source\Teensy\tttest/lib/TeensyTimerTool/src//Teensy/TCK/TCK.h:56
     86a:	2000      	movs	r0, #0
C:\Users\lutz\source\Teensy\tttest/lib/TeensyTimerTool/src//Teensy/TCK/TCK.h:57
     86c:	bd38      	pop	{r3, r4, r5, pc}
C:\Users\lutz\source\Teensy\tttest/lib/TeensyTimerTool/src//Teensy/TCK/TCK.h:51
     86e:	2034      	movs	r0, #52	; 0x34
     870:	f001 fcb2 	bl	21d8 <operator new(unsigned int)>
     874:	4b09      	ldr	r3, [pc, #36]	; (89c <TeensyTimerTool::ITimerChannel* TeensyTimerTool::TCK_t::getTimer<unsigned long>()+0x74>)
_ZN15TeensyTimerTool10TckChannelImEC4Ev():
C:\Users\lutz\source\Teensy\tttest/lib/TeensyTimerTool/src//Teensy/TCK/TckChannel.h:70
     876:	490a      	ldr	r1, [pc, #40]	; (8a0 <TeensyTimerTool::ITimerChannel* TeensyTimerTool::TCK_t::getTimer<unsigned long>()+0x78>)
C:\Users\lutz\source\Teensy\tttest/lib/TeensyTimerTool/src//Teensy/TCK/TckChannel.h:73
     878:	4a0a      	ldr	r2, [pc, #40]	; (8a4 <TeensyTimerTool::ITimerChannel* TeensyTimerTool::TCK_t::getTimer<unsigned long>()+0x7c>)
_ZN15TeensyTimerTool13ITimerChannelC4EPSt8functionIFvvEE():
C:\Users\lutz\source\Teensy\tttest/lib/TeensyTimerTool/src//Teensy/FTM/../../ITimerChannel.h:39
     87a:	6045      	str	r5, [r0, #4]
_ZNSt14_Function_baseC4Ev():
c:\toolchain\gcc\gcc-arm-none-eabi-5_4-2016q3-20160926-win32\arm-none-eabi\include\c++\5.4.1/functional:1825
     87c:	6105      	str	r5, [r0, #16]
_ZN15TeensyTimerTool10TckChannelImEC4Ev():
C:\Users\lutz\source\Teensy\tttest/lib/TeensyTimerTool/src//Teensy/TCK/TckChannel.h:72
     87e:	7645      	strb	r5, [r0, #25]
C:\Users\lutz\source\Teensy\tttest/lib/TeensyTimerTool/src//Teensy/TCK/TckChannel.h:70
     880:	6001      	str	r1, [r0, #0]
C:\Users\lutz\source\Teensy\tttest/lib/TeensyTimerTool/src//Teensy/TCK/TckChannel.h:73
     882:	6302      	str	r2, [r0, #48]	; 0x30
_ZN15TeensyTimerTool5TCK_t8getTimerImEEPNS_13ITimerChannelEv():
C:\Users\lutz\source\Teensy\tttest/lib/TeensyTimerTool/src//Teensy/TCK/TCK.h:51
     884:	f843 0024 	str.w	r0, [r3, r4, lsl #2]
C:\Users\lutz\source\Teensy\tttest/lib/TeensyTimerTool/src//Teensy/TCK/TCK.h:52
     888:	bd38      	pop	{r3, r4, r5, pc}
     88a:	bf00      	nop
     88c:	1fff92f0 	.word	0x1fff92f0
     890:	1fff929c 	.word	0x1fff929c
     894:	e000edfc 	.word	0xe000edfc
     898:	e0001000 	.word	0xe0001000
     89c:	1fff92a0 	.word	0x1fff92a0
     8a0:	00003440 	.word	0x00003440
     8a4:	42c00000 	.word	0x42c00000

000008a8 <TeensyTimerTool::FTM_Channel::~FTM_Channel()>:
_ZN15TeensyTimerTool11FTM_ChannelD0Ev():
C:\Users\lutz\source\Teensy\tttest/lib/TeensyTimerTool/src//Teensy/FTM/FTM_Channel.h:116
     8a8:	b510      	push	{r4, lr}
C:\Users\lutz\source\Teensy\tttest/lib/TeensyTimerTool/src//Teensy/FTM/FTM_Channel.h:118
     8aa:	2114      	movs	r1, #20
C:\Users\lutz\source\Teensy\tttest/lib/TeensyTimerTool/src//Teensy/FTM/FTM_Channel.h:116
     8ac:	4604      	mov	r4, r0
C:\Users\lutz\source\Teensy\tttest/lib/TeensyTimerTool/src//Teensy/FTM/FTM_Channel.h:118
     8ae:	f001 fc95 	bl	21dc <operator delete(void*, unsigned int)>
     8b2:	4620      	mov	r0, r4
     8b4:	bd10      	pop	{r4, pc}
     8b6:	bf00      	nop

000008b8 <TeensyTimerTool::TckChannel<unsigned long>::~TckChannel()>:
_ZNSt14_Function_baseD4Ev():
c:\toolchain\gcc\gcc-arm-none-eabi-5_4-2016q3-20160926-win32\arm-none-eabi\include\c++\5.4.1/functional:1829
     8b8:	6903      	ldr	r3, [r0, #16]
_ZN15TeensyTimerTool10TckChannelImED4Ev():
C:\Users\lutz\source\Teensy\tttest/lib/TeensyTimerTool/src//Teensy/TCK/TckChannel.h:19
     8ba:	4a08      	ldr	r2, [pc, #32]	; (8dc <TeensyTimerTool::TckChannel<unsigned long>::~TckChannel()+0x24>)
_ZN15TeensyTimerTool10TckChannelImED0Ev():
C:\Users\lutz\source\Teensy\tttest/lib/TeensyTimerTool/src//Teensy/TCK/TckChannel.h:19
     8bc:	b510      	push	{r4, lr}
     8be:	4604      	mov	r4, r0
_ZN15TeensyTimerTool10TckChannelImED4Ev():
C:\Users\lutz\source\Teensy\tttest/lib/TeensyTimerTool/src//Teensy/TCK/TckChannel.h:19
     8c0:	6002      	str	r2, [r0, #0]
_ZNSt14_Function_baseD4Ev():
c:\toolchain\gcc\gcc-arm-none-eabi-5_4-2016q3-20160926-win32\arm-none-eabi\include\c++\5.4.1/functional:1829
     8c2:	b123      	cbz	r3, 8ce <TeensyTimerTool::TckChannel<unsigned long>::~TckChannel()+0x16>
c:\toolchain\gcc\gcc-arm-none-eabi-5_4-2016q3-20160926-win32\arm-none-eabi\include\c++\5.4.1/functional:1830
     8c4:	f100 0108 	add.w	r1, r0, #8
     8c8:	4608      	mov	r0, r1
     8ca:	2203      	movs	r2, #3
     8cc:	4798      	blx	r3
_ZN15TeensyTimerTool10TckChannelImED0Ev():
C:\Users\lutz\source\Teensy\tttest/lib/TeensyTimerTool/src//Teensy/TCK/TckChannel.h:19
     8ce:	4620      	mov	r0, r4
     8d0:	2134      	movs	r1, #52	; 0x34
     8d2:	f001 fc83 	bl	21dc <operator delete(void*, unsigned int)>
     8d6:	4620      	mov	r0, r4
     8d8:	bd10      	pop	{r4, pc}
     8da:	bf00      	nop
     8dc:	00003440 	.word	0x00003440

000008e0 <TeensyTimerTool::ITimerChannel::setNextPeriod(unsigned long)>:
_ZN15TeensyTimerTool13ITimerChannel13setNextPeriodEm():
C:\Users\lutz\source\Teensy\tttest/lib/TeensyTimerTool/src//Teensy/FTM/../../ITimerChannel.h:25
     8e0:	2069      	movs	r0, #105	; 0x69
     8e2:	f000 bae7 	b.w	eb4 <TeensyTimerTool::postError(TeensyTimerTool::errorCode)>
     8e6:	bf00      	nop

000008e8 <TeensyTimerTool::ITimerChannel::setCurrentPeriod(unsigned long)>:
_ZN15TeensyTimerTool13ITimerChannel16setCurrentPeriodEm():
C:\Users\lutz\source\Teensy\tttest/lib/TeensyTimerTool/src//Teensy/FTM/../../ITimerChannel.h:24
     8e8:	2069      	movs	r0, #105	; 0x69
     8ea:	f000 bae3 	b.w	eb4 <TeensyTimerTool::postError(TeensyTimerTool::errorCode)>
     8ee:	bf00      	nop

000008f0 <TeensyTimerTool::ITimerChannel::setPeriod(unsigned long)>:
_ZN15TeensyTimerTool13ITimerChannel9setPeriodEm():
C:\Users\lutz\source\Teensy\tttest/lib/TeensyTimerTool/src//Teensy/FTM/../../ITimerChannel.h:23
     8f0:	2069      	movs	r0, #105	; 0x69
     8f2:	f000 badf 	b.w	eb4 <TeensyTimerTool::postError(TeensyTimerTool::errorCode)>
     8f6:	bf00      	nop

000008f8 <TeensyTimerTool::ITimerChannel::setPrescaler(int)>:
_ZN15TeensyTimerTool13ITimerChannel12setPrescalerEi():
C:\Users\lutz\source\Teensy\tttest/lib/TeensyTimerTool/src//Teensy/FTM/../../ITimerChannel.h:20
     8f8:	2069      	movs	r0, #105	; 0x69
     8fa:	f000 badb 	b.w	eb4 <TeensyTimerTool::postError(TeensyTimerTool::errorCode)>
     8fe:	bf00      	nop

00000900 <TeensyTimerTool::ITimerChannel::getTriggerReload(float, unsigned long long*)>:
_ZN15TeensyTimerTool13ITimerChannel16getTriggerReloadEfPy():
C:\Users\lutz\source\Teensy\tttest/lib/TeensyTimerTool/src//Teensy/FTM/../../ITimerChannel.h:15
     900:	2069      	movs	r0, #105	; 0x69
     902:	f000 bad7 	b.w	eb4 <TeensyTimerTool::postError(TeensyTimerTool::errorCode)>
     906:	bf00      	nop

00000908 <TeensyTimerTool::ITimerChannel::triggerDirect(unsigned long long)>:
_ZN15TeensyTimerTool13ITimerChannel13triggerDirectEy():
C:\Users\lutz\source\Teensy\tttest/lib/TeensyTimerTool/src//Teensy/FTM/../../ITimerChannel.h:13
     908:	2069      	movs	r0, #105	; 0x69
     90a:	f000 bad3 	b.w	eb4 <TeensyTimerTool::postError(TeensyTimerTool::errorCode)>
     90e:	bf00      	nop

00000910 <TeensyTimerTool::FTM_Channel::getTriggerReload(float, unsigned long*)>:
_ZN15TeensyTimerTool11FTM_Channel15ticksFromMicrosEf():
C:\Users\lutz\source\Teensy\tttest/lib/TeensyTimerTool/src//Teensy/FTM/FTM_Channel.h:107
     910:	6883      	ldr	r3, [r0, #8]
_ZN15TeensyTimerTool11FTM_Channel16getTriggerReloadEfPm():
C:\Users\lutz\source\Teensy\tttest/lib/TeensyTimerTool/src//Teensy/FTM/FTM_Channel.h:76
     912:	b510      	push	{r4, lr}
_ZN15TeensyTimerTool11FTM_Channel15ticksFromMicrosEf():
C:\Users\lutz\source\Teensy\tttest/lib/TeensyTimerTool/src//Teensy/FTM/FTM_Channel.h:107
     914:	4608      	mov	r0, r1
     916:	69d9      	ldr	r1, [r3, #28]
_ZN15TeensyTimerTool11FTM_Channel16getTriggerReloadEfPm():
C:\Users\lutz\source\Teensy\tttest/lib/TeensyTimerTool/src//Teensy/FTM/FTM_Channel.h:76
     918:	4614      	mov	r4, r2
_ZN15TeensyTimerTool11FTM_Channel15ticksFromMicrosEf():
C:\Users\lutz\source\Teensy\tttest/lib/TeensyTimerTool/src//Teensy/FTM/FTM_Channel.h:107
     91a:	f001 febf 	bl	269c <__aeabi_fmul>
     91e:	f002 f883 	bl	2a28 <__aeabi_f2uiz>
C:\Users\lutz\source\Teensy\tttest/lib/TeensyTimerTool/src//Teensy/FTM/FTM_Channel.h:108
     922:	f5b0 3f80 	cmp.w	r0, #65536	; 0x10000
     926:	d305      	bcc.n	934 <TeensyTimerTool::FTM_Channel::getTriggerReload(float, unsigned long*)+0x24>
C:\Users\lutz\source\Teensy\tttest/lib/TeensyTimerTool/src//Teensy/FTM/FTM_Channel.h:110
     928:	f06f 0063 	mvn.w	r0, #99	; 0x63
     92c:	f000 fac2 	bl	eb4 <TeensyTimerTool::postError(TeensyTimerTool::errorCode)>
C:\Users\lutz\source\Teensy\tttest/lib/TeensyTimerTool/src//Teensy/FTM/FTM_Channel.h:111
     930:	f64f 70ff 	movw	r0, #65535	; 0xffff
_ZN15TeensyTimerTool11FTM_Channel16getTriggerReloadEfPm():
C:\Users\lutz\source\Teensy\tttest/lib/TeensyTimerTool/src//Teensy/FTM/FTM_Channel.h:77
     934:	6020      	str	r0, [r4, #0]
C:\Users\lutz\source\Teensy\tttest/lib/TeensyTimerTool/src//Teensy/FTM/FTM_Channel.h:79
     936:	2000      	movs	r0, #0
     938:	bd10      	pop	{r4, pc}
     93a:	bf00      	nop

0000093c <TeensyTimerTool::TckChannel<unsigned long>::getTriggerReload(float, unsigned long*)>:
_ZN15TeensyTimerTool10TckChannelImE16getTriggerReloadEfPm():
C:\Users\lutz\source\Teensy\tttest/lib/TeensyTimerTool/src//Teensy/TCK/TckChannel.h:27
     93c:	e92d 41f0 	stmdb	sp!, {r4, r5, r6, r7, r8, lr}
     940:	6b05      	ldr	r5, [r0, #48]	; 0x30
     942:	460c      	mov	r4, r1
     944:	4607      	mov	r7, r0
_ZNK15TeensyTimerTool10TckChannelImE12getMaxMicrosEv():
C:\Users\lutz\source\Teensy\tttest/lib/TeensyTimerTool/src//Teensy/TCK/TckChannel.h:166
     946:	4629      	mov	r1, r5
     948:	480d      	ldr	r0, [pc, #52]	; (980 <TeensyTimerTool::TckChannel<unsigned long>::getTriggerReload(float, unsigned long*)+0x44>)
_ZN15TeensyTimerTool10TckChannelImE16getTriggerReloadEfPm():
C:\Users\lutz\source\Teensy\tttest/lib/TeensyTimerTool/src//Teensy/TCK/TckChannel.h:27
     94a:	4690      	mov	r8, r2
_ZNK15TeensyTimerTool10TckChannelImE12getMaxMicrosEv():
C:\Users\lutz\source\Teensy\tttest/lib/TeensyTimerTool/src//Teensy/TCK/TckChannel.h:166
     94c:	f001 ff5a 	bl	2804 <__aeabi_fdiv>
     950:	4606      	mov	r6, r0
_ZNK15TeensyTimerTool10TckChannelImE19microsecondToCyclesEf():
C:\Users\lutz\source\Teensy\tttest/lib/TeensyTimerTool/src//Teensy/TCK/TckChannel.h:146
     952:	4601      	mov	r1, r0
     954:	4620      	mov	r0, r4
     956:	f002 f85d 	bl	2a14 <__aeabi_fcmpgt>
     95a:	b128      	cbz	r0, 968 <TeensyTimerTool::TckChannel<unsigned long>::getTriggerReload(float, unsigned long*)+0x2c>
C:\Users\lutz\source\Teensy\tttest/lib/TeensyTimerTool/src//Teensy/TCK/TckChannel.h:149
     95c:	f06f 0063 	mvn.w	r0, #99	; 0x63
     960:	f000 faa8 	bl	eb4 <TeensyTimerTool::postError(TeensyTimerTool::errorCode)>
     964:	6b3d      	ldr	r5, [r7, #48]	; 0x30
C:\Users\lutz\source\Teensy\tttest/lib/TeensyTimerTool/src//Teensy/TCK/TckChannel.h:148
     966:	4634      	mov	r4, r6
_ZN15TeensyTimerTool10TckChannelImE16getTriggerReloadEfPm():
C:\Users\lutz\source\Teensy\tttest/lib/TeensyTimerTool/src//Teensy/TCK/TckChannel.h:29
     968:	4629      	mov	r1, r5
     96a:	4620      	mov	r0, r4
     96c:	f001 fe96 	bl	269c <__aeabi_fmul>
     970:	f002 f85a 	bl	2a28 <__aeabi_f2uiz>
     974:	f8c8 0000 	str.w	r0, [r8]
C:\Users\lutz\source\Teensy\tttest/lib/TeensyTimerTool/src//Teensy/TCK/TckChannel.h:31
     978:	2000      	movs	r0, #0
     97a:	e8bd 81f0 	ldmia.w	sp!, {r4, r5, r6, r7, r8, pc}
     97e:	bf00      	nop
     980:	4f700000 	.word	0x4f700000

00000984 <TeensyTimerTool::FTM_t<0u>::getTimer()>:
_ZN15TeensyTimerTool5FTM_tILj0EE8getTimerEv():
C:\Users\lutz\source\Teensy\tttest/lib/TeensyTimerTool/src//Teensy/FTM/FTM.h:28
     984:	e92d 43f8 	stmdb	sp!, {r3, r4, r5, r6, r7, r8, r9, lr}
C:\Users\lutz\source\Teensy\tttest/lib/TeensyTimerTool/src//Teensy/FTM/FTM.h:30
     988:	f8df 80d4 	ldr.w	r8, [pc, #212]	; a60 <TeensyTimerTool::FTM_t<0u>::getTimer()+0xdc>
     98c:	f898 3000 	ldrb.w	r3, [r8]
     990:	2b00      	cmp	r3, #0
     992:	d13d      	bne.n	a10 <TeensyTimerTool::FTM_t<0u>::getTimer()+0x8c>
C:\Users\lutz\source\Teensy\tttest/lib/TeensyTimerTool/src//Teensy/FTM/FTM.h:32
     994:	4a2b      	ldr	r2, [pc, #172]	; (a44 <TeensyTimerTool::FTM_t<0u>::getTimer()+0xc0>)
     996:	4c2c      	ldr	r4, [pc, #176]	; (a48 <TeensyTimerTool::FTM_t<0u>::getTimer()+0xc4>)
C:\Users\lutz\source\Teensy\tttest/lib/TeensyTimerTool/src//Teensy/FTM/FTM.h:34
     998:	4e2c      	ldr	r6, [pc, #176]	; (a4c <TeensyTimerTool::FTM_t<0u>::getTimer()+0xc8>)
C:\Users\lutz\source\Teensy\tttest/lib/TeensyTimerTool/src//Teensy/FTM/FTM.h:32
     99a:	6013      	str	r3, [r2, #0]
C:\Users\lutz\source\Teensy\tttest/lib/TeensyTimerTool/src//Teensy/FTM/FTM.h:33
     99c:	f64f 71ff 	movw	r1, #65535	; 0xffff
     9a0:	6091      	str	r1, [r2, #8]
C:\Users\lutz\source\Teensy\tttest/lib/TeensyTimerTool/src//Teensy/FTM/FTM.h:41
     9a2:	f04f 577f 	mov.w	r7, #1069547520	; 0x3fc00000
C:\Users\lutz\source\Teensy\tttest/lib/TeensyTimerTool/src//Teensy/FTM/FTM.h:36
     9a6:	461d      	mov	r5, r3
C:\Users\lutz\source\Teensy\tttest/lib/TeensyTimerTool/src//Teensy/FTM/FTM.h:34
     9a8:	6053      	str	r3, [r2, #4]
C:\Users\lutz\source\Teensy\tttest/lib/TeensyTimerTool/src//Teensy/FTM/FTM.h:38
     9aa:	4699      	mov	r9, r3
_ZNSt8functionIFvvEEaSEDn():
c:\toolchain\gcc\gcc-arm-none-eabi-5_4-2016q3-20160926-win32\arm-none-eabi\include\c++\5.4.1/functional:2103 (discriminator 2)
     9ac:	68a3      	ldr	r3, [r4, #8]
_ZN15TeensyTimerTool5FTM_tILj0EE8getTimerEv():
C:\Users\lutz\source\Teensy\tttest/lib/TeensyTimerTool/src//Teensy/FTM/FTM.h:38 (discriminator 2)
     9ae:	f804 9c04 	strb.w	r9, [r4, #-4]
_ZNSt8functionIFvvEEaSEDn():
c:\toolchain\gcc\gcc-arm-none-eabi-5_4-2016q3-20160926-win32\arm-none-eabi\include\c++\5.4.1/functional:2103 (discriminator 2)
     9b2:	b13b      	cbz	r3, 9c4 <TeensyTimerTool::FTM_t<0u>::getTimer()+0x40>
c:\toolchain\gcc\gcc-arm-none-eabi-5_4-2016q3-20160926-win32\arm-none-eabi\include\c++\5.4.1/functional:2105
     9b4:	2203      	movs	r2, #3
     9b6:	4621      	mov	r1, r4
     9b8:	4620      	mov	r0, r4
     9ba:	4798      	blx	r3
c:\toolchain\gcc\gcc-arm-none-eabi-5_4-2016q3-20160926-win32\arm-none-eabi\include\c++\5.4.1/functional:2106
     9bc:	f8c4 9008 	str.w	r9, [r4, #8]
c:\toolchain\gcc\gcc-arm-none-eabi-5_4-2016q3-20160926-win32\arm-none-eabi\include\c++\5.4.1/functional:2107
     9c0:	f8c4 900c 	str.w	r9, [r4, #12]
     9c4:	00eb      	lsls	r3, r5, #3
     9c6:	f103 4380 	add.w	r3, r3, #1073741824	; 0x40000000
     9ca:	f503 3360 	add.w	r3, r3, #229376	; 0x38000
_ZN15TeensyTimerTool5FTM_tILj0EE8getTimerEv():
C:\Users\lutz\source\Teensy\tttest/lib/TeensyTimerTool/src//Teensy/FTM/FTM.h:40
     9ce:	6166      	str	r6, [r4, #20]
C:\Users\lutz\source\Teensy\tttest/lib/TeensyTimerTool/src//Teensy/FTM/FTM.h:43
     9d0:	68da      	ldr	r2, [r3, #12]
C:\Users\lutz\source\Teensy\tttest/lib/TeensyTimerTool/src//Teensy/FTM/FTM.h:41
     9d2:	61a7      	str	r7, [r4, #24]
C:\Users\lutz\source\Teensy\tttest/lib/TeensyTimerTool/src//Teensy/FTM/FTM.h:43
     9d4:	f022 0280 	bic.w	r2, r2, #128	; 0x80
     9d8:	60da      	str	r2, [r3, #12]
C:\Users\lutz\source\Teensy\tttest/lib/TeensyTimerTool/src//Teensy/FTM/FTM.h:44
     9da:	68da      	ldr	r2, [r3, #12]
C:\Users\lutz\source\Teensy\tttest/lib/TeensyTimerTool/src//Teensy/FTM/FTM.h:36
     9dc:	3501      	adds	r5, #1
C:\Users\lutz\source\Teensy\tttest/lib/TeensyTimerTool/src//Teensy/FTM/FTM.h:44
     9de:	f022 0240 	bic.w	r2, r2, #64	; 0x40
C:\Users\lutz\source\Teensy\tttest/lib/TeensyTimerTool/src//Teensy/FTM/FTM.h:45
     9e2:	2110      	movs	r1, #16
C:\Users\lutz\source\Teensy\tttest/lib/TeensyTimerTool/src//Teensy/FTM/FTM.h:36
     9e4:	2d08      	cmp	r5, #8
C:\Users\lutz\source\Teensy\tttest/lib/TeensyTimerTool/src//Teensy/FTM/FTM.h:44
     9e6:	60da      	str	r2, [r3, #12]
     9e8:	f106 0608 	add.w	r6, r6, #8
     9ec:	f104 0420 	add.w	r4, r4, #32
C:\Users\lutz\source\Teensy\tttest/lib/TeensyTimerTool/src//Teensy/FTM/FTM.h:45
     9f0:	60d9      	str	r1, [r3, #12]
C:\Users\lutz\source\Teensy\tttest/lib/TeensyTimerTool/src//Teensy/FTM/FTM.h:36
     9f2:	d1db      	bne.n	9ac <TeensyTimerTool::FTM_t<0u>::getTimer()+0x28>
C:\Users\lutz\source\Teensy\tttest/lib/TeensyTimerTool/src//Teensy/FTM/FTM.h:47
     9f4:	4b13      	ldr	r3, [pc, #76]	; (a44 <TeensyTimerTool::FTM_t<0u>::getTimer()+0xc0>)
C:\Users\lutz\source\Teensy\tttest/lib/TeensyTimerTool/src//Teensy/FTM/FTM.h:48
     9f6:	4916      	ldr	r1, [pc, #88]	; (a50 <TeensyTimerTool::FTM_t<0u>::getTimer()+0xcc>)
C:\Users\lutz\source\Teensy\tttest/lib/TeensyTimerTool/src//Teensy/FTM/FTM.h:47
     9f8:	220d      	movs	r2, #13
     9fa:	601a      	str	r2, [r3, #0]
C:\Users\lutz\source\Teensy\tttest/lib/TeensyTimerTool/src//Teensy/FTM/FTM.h:48
     9fc:	203e      	movs	r0, #62	; 0x3e
     9fe:	f000 fb83 	bl	1108 <attachInterruptVector>
C:\Users\lutz\source\Teensy\tttest/lib/TeensyTimerTool/src//Teensy/FTM/FTM.h:49
     a02:	4a14      	ldr	r2, [pc, #80]	; (a54 <TeensyTimerTool::FTM_t<0u>::getTimer()+0xd0>)
     a04:	f04f 4180 	mov.w	r1, #1073741824	; 0x40000000
C:\Users\lutz\source\Teensy\tttest/lib/TeensyTimerTool/src//Teensy/FTM/FTM.h:50
     a08:	2301      	movs	r3, #1
C:\Users\lutz\source\Teensy\tttest/lib/TeensyTimerTool/src//Teensy/FTM/FTM.h:49
     a0a:	6011      	str	r1, [r2, #0]
C:\Users\lutz\source\Teensy\tttest/lib/TeensyTimerTool/src//Teensy/FTM/FTM.h:50
     a0c:	f888 3000 	strb.w	r3, [r8]
     a10:	4911      	ldr	r1, [pc, #68]	; (a58 <TeensyTimerTool::FTM_t<0u>::getTimer()+0xd4>)
C:\Users\lutz\source\Teensy\tttest/lib/TeensyTimerTool/src//Teensy/FTM/FTM.h:53
     a12:	2300      	movs	r3, #0
C:\Users\lutz\source\Teensy\tttest/lib/TeensyTimerTool/src//Teensy/FTM/FTM.h:55
     a14:	015a      	lsls	r2, r3, #5
     a16:	188c      	adds	r4, r1, r2
     a18:	5c8d      	ldrb	r5, [r1, r2]
C:\Users\lutz\source\Teensy\tttest/lib/TeensyTimerTool/src//Teensy/FTM/FTM.h:53
     a1a:	3301      	adds	r3, #1
C:\Users\lutz\source\Teensy\tttest/lib/TeensyTimerTool/src//Teensy/FTM/FTM.h:55
     a1c:	b125      	cbz	r5, a28 <TeensyTimerTool::FTM_t<0u>::getTimer()+0xa4>
C:\Users\lutz\source\Teensy\tttest/lib/TeensyTimerTool/src//Teensy/FTM/FTM.h:53 (discriminator 2)
     a1e:	2b08      	cmp	r3, #8
     a20:	d1f8      	bne.n	a14 <TeensyTimerTool::FTM_t<0u>::getTimer()+0x90>
C:\Users\lutz\source\Teensy\tttest/lib/TeensyTimerTool/src//Teensy/FTM/FTM.h:61
     a22:	2000      	movs	r0, #0
C:\Users\lutz\source\Teensy\tttest/lib/TeensyTimerTool/src//Teensy/FTM/FTM.h:62
     a24:	e8bd 83f8 	ldmia.w	sp!, {r3, r4, r5, r6, r7, r8, r9, pc}
C:\Users\lutz\source\Teensy\tttest/lib/TeensyTimerTool/src//Teensy/FTM/FTM.h:57
     a28:	2301      	movs	r3, #1
     a2a:	7023      	strb	r3, [r4, #0]
C:\Users\lutz\source\Teensy\tttest/lib/TeensyTimerTool/src//Teensy/FTM/FTM.h:58
     a2c:	2014      	movs	r0, #20
     a2e:	f001 fbd3 	bl	21d8 <operator new(unsigned int)>
_ZN15TeensyTimerTool11FTM_ChannelC4EPNS_7FTM_r_tEPNS_15FTM_ChannelInfoE():
C:\Users\lutz\source\Teensy\tttest/lib/TeensyTimerTool/src//Teensy/FTM/FTM_Channel.h:44
     a32:	4a0a      	ldr	r2, [pc, #40]	; (a5c <TeensyTimerTool::FTM_t<0u>::getTimer()+0xd8>)
C:\Users\lutz\source\Teensy\tttest/lib/TeensyTimerTool/src//Teensy/FTM/FTM_Channel.h:46
     a34:	4b03      	ldr	r3, [pc, #12]	; (a44 <TeensyTimerTool::FTM_t<0u>::getTimer()+0xc0>)
_ZN15TeensyTimerTool13ITimerChannelC4EPSt8functionIFvvEE():
C:\Users\lutz\source\Teensy\tttest/lib/TeensyTimerTool/src//Teensy/FTM/../../ITimerChannel.h:39
     a36:	6045      	str	r5, [r0, #4]
_ZN15TeensyTimerTool11FTM_ChannelC4EPNS_7FTM_r_tEPNS_15FTM_ChannelInfoE():
C:\Users\lutz\source\Teensy\tttest/lib/TeensyTimerTool/src//Teensy/FTM/FTM_Channel.h:44
     a38:	6105      	str	r5, [r0, #16]
C:\Users\lutz\source\Teensy\tttest/lib/TeensyTimerTool/src//Teensy/FTM/FTM_Channel.h:47
     a3a:	6084      	str	r4, [r0, #8]
C:\Users\lutz\source\Teensy\tttest/lib/TeensyTimerTool/src//Teensy/FTM/FTM_Channel.h:44
     a3c:	6002      	str	r2, [r0, #0]
C:\Users\lutz\source\Teensy\tttest/lib/TeensyTimerTool/src//Teensy/FTM/FTM_Channel.h:46
     a3e:	60c3      	str	r3, [r0, #12]
_ZN15TeensyTimerTool5FTM_tILj0EE8getTimerEv():
C:\Users\lutz\source\Teensy\tttest/lib/TeensyTimerTool/src//Teensy/FTM/FTM.h:58
     a40:	e8bd 83f8 	ldmia.w	sp!, {r3, r4, r5, r6, r7, r8, r9, pc}
     a44:	40038000 	.word	0x40038000
     a48:	1fff9194 	.word	0x1fff9194
     a4c:	4003800c 	.word	0x4003800c
     a50:	000005f1 	.word	0x000005f1
     a54:	e000e104 	.word	0xe000e104
     a58:	1fff9190 	.word	0x1fff9190
     a5c:	000033f8 	.word	0x000033f8
     a60:	1fff9103 	.word	0x1fff9103

00000a64 <TeensyTimerTool::FTM_t<1u>::getTimer()>:
_ZN15TeensyTimerTool5FTM_tILj1EE8getTimerEv():
C:\Users\lutz\source\Teensy\tttest/lib/TeensyTimerTool/src//Teensy/FTM/FTM.h:28
     a64:	e92d 43f8 	stmdb	sp!, {r3, r4, r5, r6, r7, r8, r9, lr}
C:\Users\lutz\source\Teensy\tttest/lib/TeensyTimerTool/src//Teensy/FTM/FTM.h:30
     a68:	f8df 80d4 	ldr.w	r8, [pc, #212]	; b40 <TeensyTimerTool::FTM_t<1u>::getTimer()+0xdc>
     a6c:	f898 3000 	ldrb.w	r3, [r8]
     a70:	2b00      	cmp	r3, #0
     a72:	d13c      	bne.n	aee <TeensyTimerTool::FTM_t<1u>::getTimer()+0x8a>
C:\Users\lutz\source\Teensy\tttest/lib/TeensyTimerTool/src//Teensy/FTM/FTM.h:32
     a74:	4a2b      	ldr	r2, [pc, #172]	; (b24 <TeensyTimerTool::FTM_t<1u>::getTimer()+0xc0>)
     a76:	4c2c      	ldr	r4, [pc, #176]	; (b28 <TeensyTimerTool::FTM_t<1u>::getTimer()+0xc4>)
C:\Users\lutz\source\Teensy\tttest/lib/TeensyTimerTool/src//Teensy/FTM/FTM.h:34
     a78:	4e2c      	ldr	r6, [pc, #176]	; (b2c <TeensyTimerTool::FTM_t<1u>::getTimer()+0xc8>)
C:\Users\lutz\source\Teensy\tttest/lib/TeensyTimerTool/src//Teensy/FTM/FTM.h:32
     a7a:	6013      	str	r3, [r2, #0]
C:\Users\lutz\source\Teensy\tttest/lib/TeensyTimerTool/src//Teensy/FTM/FTM.h:33
     a7c:	f64f 71ff 	movw	r1, #65535	; 0xffff
     a80:	6091      	str	r1, [r2, #8]
C:\Users\lutz\source\Teensy\tttest/lib/TeensyTimerTool/src//Teensy/FTM/FTM.h:41
     a82:	f04f 597f 	mov.w	r9, #1069547520	; 0x3fc00000
C:\Users\lutz\source\Teensy\tttest/lib/TeensyTimerTool/src//Teensy/FTM/FTM.h:36
     a86:	461d      	mov	r5, r3
C:\Users\lutz\source\Teensy\tttest/lib/TeensyTimerTool/src//Teensy/FTM/FTM.h:34
     a88:	6053      	str	r3, [r2, #4]
C:\Users\lutz\source\Teensy\tttest/lib/TeensyTimerTool/src//Teensy/FTM/FTM.h:38
     a8a:	461f      	mov	r7, r3
_ZNSt8functionIFvvEEaSEDn():
c:\toolchain\gcc\gcc-arm-none-eabi-5_4-2016q3-20160926-win32\arm-none-eabi\include\c++\5.4.1/functional:2103 (discriminator 2)
     a8c:	68a3      	ldr	r3, [r4, #8]
_ZN15TeensyTimerTool5FTM_tILj1EE8getTimerEv():
C:\Users\lutz\source\Teensy\tttest/lib/TeensyTimerTool/src//Teensy/FTM/FTM.h:38 (discriminator 2)
     a8e:	f804 7c04 	strb.w	r7, [r4, #-4]
_ZNSt8functionIFvvEEaSEDn():
c:\toolchain\gcc\gcc-arm-none-eabi-5_4-2016q3-20160926-win32\arm-none-eabi\include\c++\5.4.1/functional:2103 (discriminator 2)
     a92:	b12b      	cbz	r3, aa0 <TeensyTimerTool::FTM_t<1u>::getTimer()+0x3c>
c:\toolchain\gcc\gcc-arm-none-eabi-5_4-2016q3-20160926-win32\arm-none-eabi\include\c++\5.4.1/functional:2105
     a94:	2203      	movs	r2, #3
     a96:	4621      	mov	r1, r4
     a98:	4620      	mov	r0, r4
     a9a:	4798      	blx	r3
c:\toolchain\gcc\gcc-arm-none-eabi-5_4-2016q3-20160926-win32\arm-none-eabi\include\c++\5.4.1/functional:2106
     a9c:	60a7      	str	r7, [r4, #8]
c:\toolchain\gcc\gcc-arm-none-eabi-5_4-2016q3-20160926-win32\arm-none-eabi\include\c++\5.4.1/functional:2107
     a9e:	60e7      	str	r7, [r4, #12]
     aa0:	00eb      	lsls	r3, r5, #3
     aa2:	f103 4380 	add.w	r3, r3, #1073741824	; 0x40000000
     aa6:	f503 3364 	add.w	r3, r3, #233472	; 0x39000
_ZN15TeensyTimerTool5FTM_tILj1EE8getTimerEv():
C:\Users\lutz\source\Teensy\tttest/lib/TeensyTimerTool/src//Teensy/FTM/FTM.h:40
     aaa:	6166      	str	r6, [r4, #20]
C:\Users\lutz\source\Teensy\tttest/lib/TeensyTimerTool/src//Teensy/FTM/FTM.h:43
     aac:	68da      	ldr	r2, [r3, #12]
C:\Users\lutz\source\Teensy\tttest/lib/TeensyTimerTool/src//Teensy/FTM/FTM.h:41
     aae:	f8c4 9018 	str.w	r9, [r4, #24]
C:\Users\lutz\source\Teensy\tttest/lib/TeensyTimerTool/src//Teensy/FTM/FTM.h:43
     ab2:	f022 0280 	bic.w	r2, r2, #128	; 0x80
     ab6:	60da      	str	r2, [r3, #12]
C:\Users\lutz\source\Teensy\tttest/lib/TeensyTimerTool/src//Teensy/FTM/FTM.h:44
     ab8:	68da      	ldr	r2, [r3, #12]
C:\Users\lutz\source\Teensy\tttest/lib/TeensyTimerTool/src//Teensy/FTM/FTM.h:36
     aba:	3501      	adds	r5, #1
C:\Users\lutz\source\Teensy\tttest/lib/TeensyTimerTool/src//Teensy/FTM/FTM.h:44
     abc:	f022 0240 	bic.w	r2, r2, #64	; 0x40
C:\Users\lutz\source\Teensy\tttest/lib/TeensyTimerTool/src//Teensy/FTM/FTM.h:45
     ac0:	2110      	movs	r1, #16
C:\Users\lutz\source\Teensy\tttest/lib/TeensyTimerTool/src//Teensy/FTM/FTM.h:36
     ac2:	2d02      	cmp	r5, #2
C:\Users\lutz\source\Teensy\tttest/lib/TeensyTimerTool/src//Teensy/FTM/FTM.h:44
     ac4:	60da      	str	r2, [r3, #12]
     ac6:	f106 0608 	add.w	r6, r6, #8
     aca:	f104 0420 	add.w	r4, r4, #32
C:\Users\lutz\source\Teensy\tttest/lib/TeensyTimerTool/src//Teensy/FTM/FTM.h:45
     ace:	60d9      	str	r1, [r3, #12]
C:\Users\lutz\source\Teensy\tttest/lib/TeensyTimerTool/src//Teensy/FTM/FTM.h:36
     ad0:	d1dc      	bne.n	a8c <TeensyTimerTool::FTM_t<1u>::getTimer()+0x28>
C:\Users\lutz\source\Teensy\tttest/lib/TeensyTimerTool/src//Teensy/FTM/FTM.h:47
     ad2:	4b14      	ldr	r3, [pc, #80]	; (b24 <TeensyTimerTool::FTM_t<1u>::getTimer()+0xc0>)
C:\Users\lutz\source\Teensy\tttest/lib/TeensyTimerTool/src//Teensy/FTM/FTM.h:48
     ad4:	4916      	ldr	r1, [pc, #88]	; (b30 <TeensyTimerTool::FTM_t<1u>::getTimer()+0xcc>)
C:\Users\lutz\source\Teensy\tttest/lib/TeensyTimerTool/src//Teensy/FTM/FTM.h:47
     ad6:	220d      	movs	r2, #13
     ad8:	601a      	str	r2, [r3, #0]
C:\Users\lutz\source\Teensy\tttest/lib/TeensyTimerTool/src//Teensy/FTM/FTM.h:48
     ada:	203f      	movs	r0, #63	; 0x3f
     adc:	f000 fb14 	bl	1108 <attachInterruptVector>
C:\Users\lutz\source\Teensy\tttest/lib/TeensyTimerTool/src//Teensy/FTM/FTM.h:49
     ae0:	4a14      	ldr	r2, [pc, #80]	; (b34 <TeensyTimerTool::FTM_t<1u>::getTimer()+0xd0>)
     ae2:	f04f 4100 	mov.w	r1, #2147483648	; 0x80000000
C:\Users\lutz\source\Teensy\tttest/lib/TeensyTimerTool/src//Teensy/FTM/FTM.h:50
     ae6:	2301      	movs	r3, #1
C:\Users\lutz\source\Teensy\tttest/lib/TeensyTimerTool/src//Teensy/FTM/FTM.h:49
     ae8:	6011      	str	r1, [r2, #0]
C:\Users\lutz\source\Teensy\tttest/lib/TeensyTimerTool/src//Teensy/FTM/FTM.h:50
     aea:	f888 3000 	strb.w	r3, [r8]
C:\Users\lutz\source\Teensy\tttest/lib/TeensyTimerTool/src//Teensy/FTM/FTM.h:55
     aee:	4b12      	ldr	r3, [pc, #72]	; (b38 <TeensyTimerTool::FTM_t<1u>::getTimer()+0xd4>)
     af0:	781a      	ldrb	r2, [r3, #0]
     af2:	b132      	cbz	r2, b02 <TeensyTimerTool::FTM_t<1u>::getTimer()+0x9e>
     af4:	f893 2020 	ldrb.w	r2, [r3, #32]
     af8:	b112      	cbz	r2, b00 <TeensyTimerTool::FTM_t<1u>::getTimer()+0x9c>
C:\Users\lutz\source\Teensy\tttest/lib/TeensyTimerTool/src//Teensy/FTM/FTM.h:61
     afa:	2000      	movs	r0, #0
C:\Users\lutz\source\Teensy\tttest/lib/TeensyTimerTool/src//Teensy/FTM/FTM.h:62
     afc:	e8bd 83f8 	ldmia.w	sp!, {r3, r4, r5, r6, r7, r8, r9, pc}
C:\Users\lutz\source\Teensy\tttest/lib/TeensyTimerTool/src//Teensy/FTM/FTM.h:53
     b00:	2201      	movs	r2, #1
C:\Users\lutz\source\Teensy\tttest/lib/TeensyTimerTool/src//Teensy/FTM/FTM.h:57
     b02:	0152      	lsls	r2, r2, #5
     b04:	2101      	movs	r1, #1
     b06:	5499      	strb	r1, [r3, r2]
C:\Users\lutz\source\Teensy\tttest/lib/TeensyTimerTool/src//Teensy/FTM/FTM.h:58
     b08:	2014      	movs	r0, #20
C:\Users\lutz\source\Teensy\tttest/lib/TeensyTimerTool/src//Teensy/FTM/FTM.h:57
     b0a:	189c      	adds	r4, r3, r2
C:\Users\lutz\source\Teensy\tttest/lib/TeensyTimerTool/src//Teensy/FTM/FTM.h:58
     b0c:	f001 fb64 	bl	21d8 <operator new(unsigned int)>
_ZN15TeensyTimerTool13ITimerChannelC4EPSt8functionIFvvEE():
C:\Users\lutz\source\Teensy\tttest/lib/TeensyTimerTool/src//Teensy/FTM/../../ITimerChannel.h:39
     b10:	2300      	movs	r3, #0
_ZN15TeensyTimerTool11FTM_ChannelC4EPNS_7FTM_r_tEPNS_15FTM_ChannelInfoE():
C:\Users\lutz\source\Teensy\tttest/lib/TeensyTimerTool/src//Teensy/FTM/FTM_Channel.h:44
     b12:	490a      	ldr	r1, [pc, #40]	; (b3c <TeensyTimerTool::FTM_t<1u>::getTimer()+0xd8>)
C:\Users\lutz\source\Teensy\tttest/lib/TeensyTimerTool/src//Teensy/FTM/FTM_Channel.h:46
     b14:	4a03      	ldr	r2, [pc, #12]	; (b24 <TeensyTimerTool::FTM_t<1u>::getTimer()+0xc0>)
C:\Users\lutz\source\Teensy\tttest/lib/TeensyTimerTool/src//Teensy/FTM/FTM_Channel.h:47
     b16:	6084      	str	r4, [r0, #8]
C:\Users\lutz\source\Teensy\tttest/lib/TeensyTimerTool/src//Teensy/FTM/FTM_Channel.h:44
     b18:	6001      	str	r1, [r0, #0]
C:\Users\lutz\source\Teensy\tttest/lib/TeensyTimerTool/src//Teensy/FTM/FTM_Channel.h:46
     b1a:	60c2      	str	r2, [r0, #12]
_ZN15TeensyTimerTool13ITimerChannelC4EPSt8functionIFvvEE():
C:\Users\lutz\source\Teensy\tttest/lib/TeensyTimerTool/src//Teensy/FTM/../../ITimerChannel.h:39
     b1c:	6043      	str	r3, [r0, #4]
_ZN15TeensyTimerTool11FTM_ChannelC4EPNS_7FTM_r_tEPNS_15FTM_ChannelInfoE():
C:\Users\lutz\source\Teensy\tttest/lib/TeensyTimerTool/src//Teensy/FTM/FTM_Channel.h:44
     b1e:	6103      	str	r3, [r0, #16]
_ZN15TeensyTimerTool5FTM_tILj1EE8getTimerEv():
C:\Users\lutz\source\Teensy\tttest/lib/TeensyTimerTool/src//Teensy/FTM/FTM.h:58
     b20:	e8bd 83f8 	ldmia.w	sp!, {r3, r4, r5, r6, r7, r8, r9, pc}
     b24:	40039000 	.word	0x40039000
     b28:	1fff9154 	.word	0x1fff9154
     b2c:	4003900c 	.word	0x4003900c
     b30:	0000064d 	.word	0x0000064d
     b34:	e000e104 	.word	0xe000e104
     b38:	1fff9150 	.word	0x1fff9150
     b3c:	000033f8 	.word	0x000033f8
     b40:	1fff9102 	.word	0x1fff9102

00000b44 <TeensyTimerTool::FTM_t<2u>::getTimer()>:
_ZN15TeensyTimerTool5FTM_tILj2EE8getTimerEv():
C:\Users\lutz\source\Teensy\tttest/lib/TeensyTimerTool/src//Teensy/FTM/FTM.h:28
     b44:	e92d 43f8 	stmdb	sp!, {r3, r4, r5, r6, r7, r8, r9, lr}
C:\Users\lutz\source\Teensy\tttest/lib/TeensyTimerTool/src//Teensy/FTM/FTM.h:30
     b48:	f8df 80d0 	ldr.w	r8, [pc, #208]	; c1c <TeensyTimerTool::FTM_t<2u>::getTimer()+0xd8>
     b4c:	f898 3000 	ldrb.w	r3, [r8]
     b50:	2b00      	cmp	r3, #0
     b52:	d13a      	bne.n	bca <TeensyTimerTool::FTM_t<2u>::getTimer()+0x86>
C:\Users\lutz\source\Teensy\tttest/lib/TeensyTimerTool/src//Teensy/FTM/FTM.h:32
     b54:	4a2a      	ldr	r2, [pc, #168]	; (c00 <TeensyTimerTool::FTM_t<2u>::getTimer()+0xbc>)
     b56:	4c2b      	ldr	r4, [pc, #172]	; (c04 <TeensyTimerTool::FTM_t<2u>::getTimer()+0xc0>)
C:\Users\lutz\source\Teensy\tttest/lib/TeensyTimerTool/src//Teensy/FTM/FTM.h:34
     b58:	4e2b      	ldr	r6, [pc, #172]	; (c08 <TeensyTimerTool::FTM_t<2u>::getTimer()+0xc4>)
C:\Users\lutz\source\Teensy\tttest/lib/TeensyTimerTool/src//Teensy/FTM/FTM.h:32
     b5a:	6013      	str	r3, [r2, #0]
C:\Users\lutz\source\Teensy\tttest/lib/TeensyTimerTool/src//Teensy/FTM/FTM.h:33
     b5c:	f64f 71ff 	movw	r1, #65535	; 0xffff
     b60:	6091      	str	r1, [r2, #8]
C:\Users\lutz\source\Teensy\tttest/lib/TeensyTimerTool/src//Teensy/FTM/FTM.h:41
     b62:	f04f 597f 	mov.w	r9, #1069547520	; 0x3fc00000
C:\Users\lutz\source\Teensy\tttest/lib/TeensyTimerTool/src//Teensy/FTM/FTM.h:36
     b66:	461d      	mov	r5, r3
C:\Users\lutz\source\Teensy\tttest/lib/TeensyTimerTool/src//Teensy/FTM/FTM.h:34
     b68:	6053      	str	r3, [r2, #4]
C:\Users\lutz\source\Teensy\tttest/lib/TeensyTimerTool/src//Teensy/FTM/FTM.h:38
     b6a:	461f      	mov	r7, r3
_ZNSt8functionIFvvEEaSEDn():
c:\toolchain\gcc\gcc-arm-none-eabi-5_4-2016q3-20160926-win32\arm-none-eabi\include\c++\5.4.1/functional:2103 (discriminator 2)
     b6c:	68a3      	ldr	r3, [r4, #8]
_ZN15TeensyTimerTool5FTM_tILj2EE8getTimerEv():
C:\Users\lutz\source\Teensy\tttest/lib/TeensyTimerTool/src//Teensy/FTM/FTM.h:38 (discriminator 2)
     b6e:	f804 7c04 	strb.w	r7, [r4, #-4]
_ZNSt8functionIFvvEEaSEDn():
c:\toolchain\gcc\gcc-arm-none-eabi-5_4-2016q3-20160926-win32\arm-none-eabi\include\c++\5.4.1/functional:2103 (discriminator 2)
     b72:	b12b      	cbz	r3, b80 <TeensyTimerTool::FTM_t<2u>::getTimer()+0x3c>
c:\toolchain\gcc\gcc-arm-none-eabi-5_4-2016q3-20160926-win32\arm-none-eabi\include\c++\5.4.1/functional:2105
     b74:	2203      	movs	r2, #3
     b76:	4621      	mov	r1, r4
     b78:	4620      	mov	r0, r4
     b7a:	4798      	blx	r3
c:\toolchain\gcc\gcc-arm-none-eabi-5_4-2016q3-20160926-win32\arm-none-eabi\include\c++\5.4.1/functional:2106
     b7c:	60a7      	str	r7, [r4, #8]
c:\toolchain\gcc\gcc-arm-none-eabi-5_4-2016q3-20160926-win32\arm-none-eabi\include\c++\5.4.1/functional:2107
     b7e:	60e7      	str	r7, [r4, #12]
     b80:	00eb      	lsls	r3, r5, #3
     b82:	f103 4380 	add.w	r3, r3, #1073741824	; 0x40000000
     b86:	f503 2338 	add.w	r3, r3, #753664	; 0xb8000
_ZN15TeensyTimerTool5FTM_tILj2EE8getTimerEv():
C:\Users\lutz\source\Teensy\tttest/lib/TeensyTimerTool/src//Teensy/FTM/FTM.h:40
     b8a:	6166      	str	r6, [r4, #20]
C:\Users\lutz\source\Teensy\tttest/lib/TeensyTimerTool/src//Teensy/FTM/FTM.h:43
     b8c:	68da      	ldr	r2, [r3, #12]
C:\Users\lutz\source\Teensy\tttest/lib/TeensyTimerTool/src//Teensy/FTM/FTM.h:41
     b8e:	f8c4 9018 	str.w	r9, [r4, #24]
C:\Users\lutz\source\Teensy\tttest/lib/TeensyTimerTool/src//Teensy/FTM/FTM.h:43
     b92:	f022 0280 	bic.w	r2, r2, #128	; 0x80
     b96:	60da      	str	r2, [r3, #12]
C:\Users\lutz\source\Teensy\tttest/lib/TeensyTimerTool/src//Teensy/FTM/FTM.h:44
     b98:	68da      	ldr	r2, [r3, #12]
C:\Users\lutz\source\Teensy\tttest/lib/TeensyTimerTool/src//Teensy/FTM/FTM.h:36
     b9a:	3501      	adds	r5, #1
C:\Users\lutz\source\Teensy\tttest/lib/TeensyTimerTool/src//Teensy/FTM/FTM.h:44
     b9c:	f022 0240 	bic.w	r2, r2, #64	; 0x40
C:\Users\lutz\source\Teensy\tttest/lib/TeensyTimerTool/src//Teensy/FTM/FTM.h:45
     ba0:	2110      	movs	r1, #16
C:\Users\lutz\source\Teensy\tttest/lib/TeensyTimerTool/src//Teensy/FTM/FTM.h:36
     ba2:	2d02      	cmp	r5, #2
C:\Users\lutz\source\Teensy\tttest/lib/TeensyTimerTool/src//Teensy/FTM/FTM.h:44
     ba4:	60da      	str	r2, [r3, #12]
     ba6:	f106 0608 	add.w	r6, r6, #8
     baa:	f104 0420 	add.w	r4, r4, #32
C:\Users\lutz\source\Teensy\tttest/lib/TeensyTimerTool/src//Teensy/FTM/FTM.h:45
     bae:	60d9      	str	r1, [r3, #12]
C:\Users\lutz\source\Teensy\tttest/lib/TeensyTimerTool/src//Teensy/FTM/FTM.h:36
     bb0:	d1dc      	bne.n	b6c <TeensyTimerTool::FTM_t<2u>::getTimer()+0x28>
C:\Users\lutz\source\Teensy\tttest/lib/TeensyTimerTool/src//Teensy/FTM/FTM.h:47
     bb2:	4b13      	ldr	r3, [pc, #76]	; (c00 <TeensyTimerTool::FTM_t<2u>::getTimer()+0xbc>)
C:\Users\lutz\source\Teensy\tttest/lib/TeensyTimerTool/src//Teensy/FTM/FTM.h:48
     bb4:	4915      	ldr	r1, [pc, #84]	; (c0c <TeensyTimerTool::FTM_t<2u>::getTimer()+0xc8>)
C:\Users\lutz\source\Teensy\tttest/lib/TeensyTimerTool/src//Teensy/FTM/FTM.h:47
     bb6:	220d      	movs	r2, #13
     bb8:	601a      	str	r2, [r3, #0]
C:\Users\lutz\source\Teensy\tttest/lib/TeensyTimerTool/src//Teensy/FTM/FTM.h:48
     bba:	2040      	movs	r0, #64	; 0x40
     bbc:	f000 faa4 	bl	1108 <attachInterruptVector>
C:\Users\lutz\source\Teensy\tttest/lib/TeensyTimerTool/src//Teensy/FTM/FTM.h:49
     bc0:	4a13      	ldr	r2, [pc, #76]	; (c10 <TeensyTimerTool::FTM_t<2u>::getTimer()+0xcc>)
     bc2:	2301      	movs	r3, #1
     bc4:	6013      	str	r3, [r2, #0]
C:\Users\lutz\source\Teensy\tttest/lib/TeensyTimerTool/src//Teensy/FTM/FTM.h:50
     bc6:	f888 3000 	strb.w	r3, [r8]
C:\Users\lutz\source\Teensy\tttest/lib/TeensyTimerTool/src//Teensy/FTM/FTM.h:55
     bca:	4b12      	ldr	r3, [pc, #72]	; (c14 <TeensyTimerTool::FTM_t<2u>::getTimer()+0xd0>)
     bcc:	781a      	ldrb	r2, [r3, #0]
     bce:	b132      	cbz	r2, bde <TeensyTimerTool::FTM_t<2u>::getTimer()+0x9a>
     bd0:	f893 2020 	ldrb.w	r2, [r3, #32]
     bd4:	b112      	cbz	r2, bdc <TeensyTimerTool::FTM_t<2u>::getTimer()+0x98>
C:\Users\lutz\source\Teensy\tttest/lib/TeensyTimerTool/src//Teensy/FTM/FTM.h:61
     bd6:	2000      	movs	r0, #0
C:\Users\lutz\source\Teensy\tttest/lib/TeensyTimerTool/src//Teensy/FTM/FTM.h:62
     bd8:	e8bd 83f8 	ldmia.w	sp!, {r3, r4, r5, r6, r7, r8, r9, pc}
C:\Users\lutz\source\Teensy\tttest/lib/TeensyTimerTool/src//Teensy/FTM/FTM.h:53
     bdc:	2201      	movs	r2, #1
C:\Users\lutz\source\Teensy\tttest/lib/TeensyTimerTool/src//Teensy/FTM/FTM.h:57
     bde:	0152      	lsls	r2, r2, #5
     be0:	2101      	movs	r1, #1
     be2:	5499      	strb	r1, [r3, r2]
C:\Users\lutz\source\Teensy\tttest/lib/TeensyTimerTool/src//Teensy/FTM/FTM.h:58
     be4:	2014      	movs	r0, #20
C:\Users\lutz\source\Teensy\tttest/lib/TeensyTimerTool/src//Teensy/FTM/FTM.h:57
     be6:	189c      	adds	r4, r3, r2
C:\Users\lutz\source\Teensy\tttest/lib/TeensyTimerTool/src//Teensy/FTM/FTM.h:58
     be8:	f001 faf6 	bl	21d8 <operator new(unsigned int)>
_ZN15TeensyTimerTool13ITimerChannelC4EPSt8functionIFvvEE():
C:\Users\lutz\source\Teensy\tttest/lib/TeensyTimerTool/src//Teensy/FTM/../../ITimerChannel.h:39
     bec:	2300      	movs	r3, #0
_ZN15TeensyTimerTool11FTM_ChannelC4EPNS_7FTM_r_tEPNS_15FTM_ChannelInfoE():
C:\Users\lutz\source\Teensy\tttest/lib/TeensyTimerTool/src//Teensy/FTM/FTM_Channel.h:44
     bee:	490a      	ldr	r1, [pc, #40]	; (c18 <TeensyTimerTool::FTM_t<2u>::getTimer()+0xd4>)
C:\Users\lutz\source\Teensy\tttest/lib/TeensyTimerTool/src//Teensy/FTM/FTM_Channel.h:46
     bf0:	4a03      	ldr	r2, [pc, #12]	; (c00 <TeensyTimerTool::FTM_t<2u>::getTimer()+0xbc>)
C:\Users\lutz\source\Teensy\tttest/lib/TeensyTimerTool/src//Teensy/FTM/FTM_Channel.h:47
     bf2:	6084      	str	r4, [r0, #8]
C:\Users\lutz\source\Teensy\tttest/lib/TeensyTimerTool/src//Teensy/FTM/FTM_Channel.h:44
     bf4:	6001      	str	r1, [r0, #0]
C:\Users\lutz\source\Teensy\tttest/lib/TeensyTimerTool/src//Teensy/FTM/FTM_Channel.h:46
     bf6:	60c2      	str	r2, [r0, #12]
_ZN15TeensyTimerTool13ITimerChannelC4EPSt8functionIFvvEE():
C:\Users\lutz\source\Teensy\tttest/lib/TeensyTimerTool/src//Teensy/FTM/../../ITimerChannel.h:39
     bf8:	6043      	str	r3, [r0, #4]
_ZN15TeensyTimerTool11FTM_ChannelC4EPNS_7FTM_r_tEPNS_15FTM_ChannelInfoE():
C:\Users\lutz\source\Teensy\tttest/lib/TeensyTimerTool/src//Teensy/FTM/FTM_Channel.h:44
     bfa:	6103      	str	r3, [r0, #16]
_ZN15TeensyTimerTool5FTM_tILj2EE8getTimerEv():
C:\Users\lutz\source\Teensy\tttest/lib/TeensyTimerTool/src//Teensy/FTM/FTM.h:58
     bfc:	e8bd 83f8 	ldmia.w	sp!, {r3, r4, r5, r6, r7, r8, r9, pc}
     c00:	400b8000 	.word	0x400b8000
     c04:	1fff9114 	.word	0x1fff9114
     c08:	400b800c 	.word	0x400b800c
     c0c:	000006a1 	.word	0x000006a1
     c10:	e000e108 	.word	0xe000e108
     c14:	1fff9110 	.word	0x1fff9110
     c18:	000033f8 	.word	0x000033f8
     c1c:	1fff9101 	.word	0x1fff9101

00000c20 <TeensyTimerTool::FTM_Channel::begin(std::function<void ()>, float, bool)>:
_ZN15TeensyTimerTool11FTM_Channel5beginESt8functionIFvvEEfb():
C:\Users\lutz\source\Teensy\tttest/lib/TeensyTimerTool/src//Teensy/FTM/FTM_Channel.h:17
     c20:	e92d 41f0 	stmdb	sp!, {r4, r5, r6, r7, r8, lr}
     c24:	688d      	ldr	r5, [r1, #8]
     c26:	b08a      	sub	sp, #40	; 0x28
_ZNSt14_Function_baseC4Ev():
c:\toolchain\gcc\gcc-arm-none-eabi-5_4-2016q3-20160926-win32\arm-none-eabi\include\c++\5.4.1/functional:1825
     c28:	2600      	movs	r6, #0
     c2a:	9604      	str	r6, [sp, #16]
_ZN15TeensyTimerTool11FTM_Channel5beginESt8functionIFvvEEfb():
C:\Users\lutz\source\Teensy\tttest/lib/TeensyTimerTool/src//Teensy/FTM/FTM_Channel.h:17
     c2c:	4690      	mov	r8, r2
     c2e:	4606      	mov	r6, r0
     c30:	461f      	mov	r7, r3
_ZNSt8functionIFvvEEC4ERKS1_():
c:\toolchain\gcc\gcc-arm-none-eabi-5_4-2016q3-20160926-win32\arm-none-eabi\include\c++\5.4.1/functional:2236
     c32:	b13d      	cbz	r5, c44 <TeensyTimerTool::FTM_Channel::begin(std::function<void ()>, float, bool)+0x24>
     c34:	460c      	mov	r4, r1
c:\toolchain\gcc\gcc-arm-none-eabi-5_4-2016q3-20160926-win32\arm-none-eabi\include\c++\5.4.1/functional:2238
     c36:	2202      	movs	r2, #2
     c38:	a802      	add	r0, sp, #8
     c3a:	47a8      	blx	r5
c:\toolchain\gcc\gcc-arm-none-eabi-5_4-2016q3-20160926-win32\arm-none-eabi\include\c++\5.4.1/functional:2239
     c3c:	68e2      	ldr	r2, [r4, #12]
c:\toolchain\gcc\gcc-arm-none-eabi-5_4-2016q3-20160926-win32\arm-none-eabi\include\c++\5.4.1/functional:2240
     c3e:	68a3      	ldr	r3, [r4, #8]
c:\toolchain\gcc\gcc-arm-none-eabi-5_4-2016q3-20160926-win32\arm-none-eabi\include\c++\5.4.1/functional:2239
     c40:	9205      	str	r2, [sp, #20]
c:\toolchain\gcc\gcc-arm-none-eabi-5_4-2016q3-20160926-win32\arm-none-eabi\include\c++\5.4.1/functional:2240
     c42:	9304      	str	r3, [sp, #16]
_ZN15TeensyTimerTool11FTM_Channel5beginESt8functionIFvvEEmb():
C:\Users\lutz\source\Teensy\tttest/lib/TeensyTimerTool/src//Teensy/FTM/FTM_Channel.h:52
     c44:	68b4      	ldr	r4, [r6, #8]
_ZN15TeensyTimerTool11FTM_Channel15ticksFromMicrosEf():
C:\Users\lutz\source\Teensy\tttest/lib/TeensyTimerTool/src//Teensy/FTM/FTM_Channel.h:107
     c46:	4640      	mov	r0, r8
_ZN15TeensyTimerTool11FTM_Channel5beginESt8functionIFvvEEmb():
C:\Users\lutz\source\Teensy\tttest/lib/TeensyTimerTool/src//Teensy/FTM/FTM_Channel.h:52
     c48:	7067      	strb	r7, [r4, #1]
_ZN15TeensyTimerTool11FTM_Channel15ticksFromMicrosEf():
C:\Users\lutz\source\Teensy\tttest/lib/TeensyTimerTool/src//Teensy/FTM/FTM_Channel.h:107
     c4a:	f001 feed 	bl	2a28 <__aeabi_f2uiz>
     c4e:	f001 fccd 	bl	25ec <__aeabi_ui2f>
     c52:	69e1      	ldr	r1, [r4, #28]
     c54:	f001 fd22 	bl	269c <__aeabi_fmul>
     c58:	f001 fee6 	bl	2a28 <__aeabi_f2uiz>
C:\Users\lutz\source\Teensy\tttest/lib/TeensyTimerTool/src//Teensy/FTM/FTM_Channel.h:108
     c5c:	f5b0 3f80 	cmp.w	r0, #65536	; 0x10000
     c60:	d232      	bcs.n	cc8 <TeensyTimerTool::FTM_Channel::begin(std::function<void ()>, float, bool)+0xa8>
     c62:	4625      	mov	r5, r4
     c64:	9b04      	ldr	r3, [sp, #16]
_ZN15TeensyTimerTool11FTM_Channel5beginESt8functionIFvvEEmb():
C:\Users\lutz\source\Teensy\tttest/lib/TeensyTimerTool/src//Teensy/FTM/FTM_Channel.h:53
     c66:	6160      	str	r0, [r4, #20]
_ZNSt14_Function_baseC4Ev():
c:\toolchain\gcc\gcc-arm-none-eabi-5_4-2016q3-20160926-win32\arm-none-eabi\include\c++\5.4.1/functional:1825
     c68:	2200      	movs	r2, #0
     c6a:	9208      	str	r2, [sp, #32]
_ZNSt8functionIFvvEEC4ERKS1_():
c:\toolchain\gcc\gcc-arm-none-eabi-5_4-2016q3-20160926-win32\arm-none-eabi\include\c++\5.4.1/functional:2238
     c6c:	ac06      	add	r4, sp, #24
c:\toolchain\gcc\gcc-arm-none-eabi-5_4-2016q3-20160926-win32\arm-none-eabi\include\c++\5.4.1/functional:2236
     c6e:	b13b      	cbz	r3, c80 <TeensyTimerTool::FTM_Channel::begin(std::function<void ()>, float, bool)+0x60>
c:\toolchain\gcc\gcc-arm-none-eabi-5_4-2016q3-20160926-win32\arm-none-eabi\include\c++\5.4.1/functional:2238
     c70:	2202      	movs	r2, #2
     c72:	4620      	mov	r0, r4
     c74:	a902      	add	r1, sp, #8
     c76:	4798      	blx	r3
c:\toolchain\gcc\gcc-arm-none-eabi-5_4-2016q3-20160926-win32\arm-none-eabi\include\c++\5.4.1/functional:2239
     c78:	9a05      	ldr	r2, [sp, #20]
c:\toolchain\gcc\gcc-arm-none-eabi-5_4-2016q3-20160926-win32\arm-none-eabi\include\c++\5.4.1/functional:2240
     c7a:	9b04      	ldr	r3, [sp, #16]
c:\toolchain\gcc\gcc-arm-none-eabi-5_4-2016q3-20160926-win32\arm-none-eabi\include\c++\5.4.1/functional:2239
     c7c:	9209      	str	r2, [sp, #36]	; 0x24
c:\toolchain\gcc\gcc-arm-none-eabi-5_4-2016q3-20160926-win32\arm-none-eabi\include\c++\5.4.1/functional:2240
     c7e:	9308      	str	r3, [sp, #32]
_ZSt4swapISt9_Any_dataEvRT_S2_():
c:\toolchain\gcc\gcc-arm-none-eabi-5_4-2016q3-20160926-win32\arm-none-eabi\include\c++\5.4.1\bits/move.h:185
     c80:	e894 0003 	ldmia.w	r4, {r0, r1}
c:\toolchain\gcc\gcc-arm-none-eabi-5_4-2016q3-20160926-win32\arm-none-eabi\include\c++\5.4.1\bits/move.h:186
     c84:	1d2b      	adds	r3, r5, #4
c:\toolchain\gcc\gcc-arm-none-eabi-5_4-2016q3-20160926-win32\arm-none-eabi\include\c++\5.4.1\bits/move.h:185
     c86:	e88d 0003 	stmia.w	sp, {r0, r1}
c:\toolchain\gcc\gcc-arm-none-eabi-5_4-2016q3-20160926-win32\arm-none-eabi\include\c++\5.4.1\bits/move.h:186
     c8a:	e893 0003 	ldmia.w	r3, {r0, r1}
     c8e:	e884 0003 	stmia.w	r4, {r0, r1}
c:\toolchain\gcc\gcc-arm-none-eabi-5_4-2016q3-20160926-win32\arm-none-eabi\include\c++\5.4.1\bits/move.h:187
     c92:	e89d 0003 	ldmia.w	sp, {r0, r1}
     c96:	e883 0003 	stmia.w	r3, {r0, r1}
_ZSt4swapIPFbRSt9_Any_dataRKS0_St18_Manager_operationEEvRT_S8_():
c:\toolchain\gcc\gcc-arm-none-eabi-5_4-2016q3-20160926-win32\arm-none-eabi\include\c++\5.4.1\bits/move.h:185
     c9a:	9a08      	ldr	r2, [sp, #32]
c:\toolchain\gcc\gcc-arm-none-eabi-5_4-2016q3-20160926-win32\arm-none-eabi\include\c++\5.4.1\bits/move.h:186
     c9c:	68eb      	ldr	r3, [r5, #12]
c:\toolchain\gcc\gcc-arm-none-eabi-5_4-2016q3-20160926-win32\arm-none-eabi\include\c++\5.4.1\bits/move.h:187
     c9e:	60ea      	str	r2, [r5, #12]
_ZSt4swapIPFvRKSt9_Any_dataEEvRT_S6_():
c:\toolchain\gcc\gcc-arm-none-eabi-5_4-2016q3-20160926-win32\arm-none-eabi\include\c++\5.4.1\bits/move.h:185
     ca0:	9909      	ldr	r1, [sp, #36]	; 0x24
c:\toolchain\gcc\gcc-arm-none-eabi-5_4-2016q3-20160926-win32\arm-none-eabi\include\c++\5.4.1\bits/move.h:186
     ca2:	692a      	ldr	r2, [r5, #16]
_ZSt4swapIPFbRSt9_Any_dataRKS0_St18_Manager_operationEEvRT_S8_():
c:\toolchain\gcc\gcc-arm-none-eabi-5_4-2016q3-20160926-win32\arm-none-eabi\include\c++\5.4.1\bits/move.h:186
     ca4:	9308      	str	r3, [sp, #32]
_ZSt4swapIPFvRKSt9_Any_dataEEvRT_S6_():
c:\toolchain\gcc\gcc-arm-none-eabi-5_4-2016q3-20160926-win32\arm-none-eabi\include\c++\5.4.1\bits/move.h:187
     ca6:	6129      	str	r1, [r5, #16]
c:\toolchain\gcc\gcc-arm-none-eabi-5_4-2016q3-20160926-win32\arm-none-eabi\include\c++\5.4.1\bits/move.h:186
     ca8:	9209      	str	r2, [sp, #36]	; 0x24
_ZNSt14_Function_baseD4Ev():
c:\toolchain\gcc\gcc-arm-none-eabi-5_4-2016q3-20160926-win32\arm-none-eabi\include\c++\5.4.1/functional:1829
     caa:	b11b      	cbz	r3, cb4 <TeensyTimerTool::FTM_Channel::begin(std::function<void ()>, float, bool)+0x94>
c:\toolchain\gcc\gcc-arm-none-eabi-5_4-2016q3-20160926-win32\arm-none-eabi\include\c++\5.4.1/functional:1830
     cac:	2203      	movs	r2, #3
     cae:	4621      	mov	r1, r4
     cb0:	4620      	mov	r0, r4
     cb2:	4798      	blx	r3
c:\toolchain\gcc\gcc-arm-none-eabi-5_4-2016q3-20160926-win32\arm-none-eabi\include\c++\5.4.1/functional:1829
     cb4:	9b04      	ldr	r3, [sp, #16]
     cb6:	b11b      	cbz	r3, cc0 <TeensyTimerTool::FTM_Channel::begin(std::function<void ()>, float, bool)+0xa0>
c:\toolchain\gcc\gcc-arm-none-eabi-5_4-2016q3-20160926-win32\arm-none-eabi\include\c++\5.4.1/functional:1830
     cb8:	a902      	add	r1, sp, #8
     cba:	4608      	mov	r0, r1
     cbc:	2203      	movs	r2, #3
     cbe:	4798      	blx	r3
_ZN15TeensyTimerTool11FTM_Channel5beginESt8functionIFvvEEfb():
C:\Users\lutz\source\Teensy\tttest/lib/TeensyTimerTool/src//Teensy/FTM/FTM_Channel.h:21
     cc0:	2000      	movs	r0, #0
     cc2:	b00a      	add	sp, #40	; 0x28
     cc4:	e8bd 81f0 	ldmia.w	sp!, {r4, r5, r6, r7, r8, pc}
_ZN15TeensyTimerTool11FTM_Channel15ticksFromMicrosEf():
C:\Users\lutz\source\Teensy\tttest/lib/TeensyTimerTool/src//Teensy/FTM/FTM_Channel.h:110
     cc8:	f06f 0063 	mvn.w	r0, #99	; 0x63
     ccc:	f000 f8f2 	bl	eb4 <TeensyTimerTool::postError(TeensyTimerTool::errorCode)>
     cd0:	68b5      	ldr	r5, [r6, #8]
C:\Users\lutz\source\Teensy\tttest/lib/TeensyTimerTool/src//Teensy/FTM/FTM_Channel.h:111
     cd2:	f64f 70ff 	movw	r0, #65535	; 0xffff
     cd6:	e7c5      	b.n	c64 <TeensyTimerTool::FTM_Channel::begin(std::function<void ()>, float, bool)+0x44>

00000cd8 <TeensyTimerTool::TckChannel<unsigned long>::trigger(float)>:
_ZN15TeensyTimerTool10TckChannelImE7triggerEf():
C:\Users\lutz\source\Teensy\tttest/lib/TeensyTimerTool/src//Teensy/TCK/TckChannel.h:118
     cd8:	e92d 41f0 	stmdb	sp!, {r4, r5, r6, r7, r8, lr}
     cdc:	6b06      	ldr	r6, [r0, #48]	; 0x30
C:\Users\lutz\source\Teensy\tttest/lib/TeensyTimerTool/src//Teensy/TCK/TckChannel.h:120
     cde:	6803      	ldr	r3, [r0, #0]
C:\Users\lutz\source\Teensy\tttest/lib/TeensyTimerTool/src//Teensy/TCK/TckChannel.h:118
     ce0:	460d      	mov	r5, r1
     ce2:	4604      	mov	r4, r0
_ZNK15TeensyTimerTool10TckChannelImE12getMaxMicrosEv():
C:\Users\lutz\source\Teensy\tttest/lib/TeensyTimerTool/src//Teensy/TCK/TckChannel.h:166
     ce4:	4631      	mov	r1, r6
     ce6:	4815      	ldr	r0, [pc, #84]	; (d3c <TeensyTimerTool::TckChannel<unsigned long>::trigger(float)+0x64>)
_ZN15TeensyTimerTool10TckChannelImE7triggerEf():
C:\Users\lutz\source\Teensy\tttest/lib/TeensyTimerTool/src//Teensy/TCK/TckChannel.h:120
     ce8:	f8d3 8008 	ldr.w	r8, [r3, #8]
_ZNK15TeensyTimerTool10TckChannelImE12getMaxMicrosEv():
C:\Users\lutz\source\Teensy\tttest/lib/TeensyTimerTool/src//Teensy/TCK/TckChannel.h:166
     cec:	f001 fd8a 	bl	2804 <__aeabi_fdiv>
     cf0:	4607      	mov	r7, r0
_ZNK15TeensyTimerTool10TckChannelImE19microsecondToCyclesEf():
C:\Users\lutz\source\Teensy\tttest/lib/TeensyTimerTool/src//Teensy/TCK/TckChannel.h:146
     cf2:	4601      	mov	r1, r0
     cf4:	4628      	mov	r0, r5
     cf6:	f001 fe8d 	bl	2a14 <__aeabi_fcmpgt>
     cfa:	b128      	cbz	r0, d08 <TeensyTimerTool::TckChannel<unsigned long>::trigger(float)+0x30>
C:\Users\lutz\source\Teensy\tttest/lib/TeensyTimerTool/src//Teensy/TCK/TckChannel.h:149
     cfc:	f06f 0063 	mvn.w	r0, #99	; 0x63
     d00:	f000 f8d8 	bl	eb4 <TeensyTimerTool::postError(TeensyTimerTool::errorCode)>
     d04:	6b26      	ldr	r6, [r4, #48]	; 0x30
C:\Users\lutz\source\Teensy\tttest/lib/TeensyTimerTool/src//Teensy/TCK/TckChannel.h:148
     d06:	463d      	mov	r5, r7
C:\Users\lutz\source\Teensy\tttest/lib/TeensyTimerTool/src//Teensy/TCK/TckChannel.h:151
     d08:	4631      	mov	r1, r6
     d0a:	4628      	mov	r0, r5
     d0c:	f001 fcc6 	bl	269c <__aeabi_fmul>
     d10:	f001 fe8a 	bl	2a28 <__aeabi_f2uiz>
     d14:	4b0a      	ldr	r3, [pc, #40]	; (d40 <TeensyTimerTool::TckChannel<unsigned long>::trigger(float)+0x68>)
     d16:	4598      	cmp	r8, r3
     d18:	d109      	bne.n	d2e <TeensyTimerTool::TckChannel<unsigned long>::trigger(float)+0x56>
_ZN15TeensyTimerTool10TckChannelImE15getCycleCounterEv():
C:\Users\lutz\source\Teensy\tttest/lib/TeensyTimerTool/src//Teensy/TCK/TckChannel.h:160
     d1a:	4a0a      	ldr	r2, [pc, #40]	; (d44 <TeensyTimerTool::TckChannel<unsigned long>::trigger(float)+0x6c>)
_ZN15TeensyTimerTool10TckChannelImE13triggerDirectEm():
C:\Users\lutz\source\Teensy\tttest/lib/TeensyTimerTool/src//Teensy/TCK/TckChannel.h:113
     d1c:	2301      	movs	r3, #1
_ZN15TeensyTimerTool10TckChannelImE15getCycleCounterEv():
C:\Users\lutz\source\Teensy\tttest/lib/TeensyTimerTool/src//Teensy/TCK/TckChannel.h:160
     d1e:	6812      	ldr	r2, [r2, #0]
_ZN15TeensyTimerTool10TckChannelImE13triggerDirectEm():
C:\Users\lutz\source\Teensy\tttest/lib/TeensyTimerTool/src//Teensy/TCK/TckChannel.h:110
     d20:	61e2      	str	r2, [r4, #28]
C:\Users\lutz\source\Teensy\tttest/lib/TeensyTimerTool/src//Teensy/TCK/TckChannel.h:111
     d22:	6260      	str	r0, [r4, #36]	; 0x24
C:\Users\lutz\source\Teensy\tttest/lib/TeensyTimerTool/src//Teensy/TCK/TckChannel.h:112
     d24:	6220      	str	r0, [r4, #32]
C:\Users\lutz\source\Teensy\tttest/lib/TeensyTimerTool/src//Teensy/TCK/TckChannel.h:113
     d26:	7663      	strb	r3, [r4, #25]
_ZN15TeensyTimerTool10TckChannelImE7triggerEf():
C:\Users\lutz\source\Teensy\tttest/lib/TeensyTimerTool/src//Teensy/TCK/TckChannel.h:121
     d28:	2000      	movs	r0, #0
     d2a:	e8bd 81f0 	ldmia.w	sp!, {r4, r5, r6, r7, r8, pc}
C:\Users\lutz\source\Teensy\tttest/lib/TeensyTimerTool/src//Teensy/TCK/TckChannel.h:120
     d2e:	4601      	mov	r1, r0
     d30:	4643      	mov	r3, r8
     d32:	4620      	mov	r0, r4
C:\Users\lutz\source\Teensy\tttest/lib/TeensyTimerTool/src//Teensy/TCK/TckChannel.h:121
     d34:	e8bd 41f0 	ldmia.w	sp!, {r4, r5, r6, r7, r8, lr}
C:\Users\lutz\source\Teensy\tttest/lib/TeensyTimerTool/src//Teensy/TCK/TckChannel.h:120
     d38:	4718      	bx	r3
     d3a:	bf00      	nop
     d3c:	4f700000 	.word	0x4f700000
     d40:	0000076d 	.word	0x0000076d
     d44:	e0001004 	.word	0xe0001004

00000d48 <TeensyTimerTool::TckChannel<unsigned long>::begin(std::function<void ()>, float, bool)>:
_ZN15TeensyTimerTool10TckChannelImE5beginESt8functionIFvvEEfb():
C:\Users\lutz\source\Teensy\tttest/lib/TeensyTimerTool/src//Teensy/TCK/TckChannel.h:77
     d48:	e92d 41f0 	stmdb	sp!, {r4, r5, r6, r7, r8, lr}
     d4c:	4604      	mov	r4, r0
C:\Users\lutz\source\Teensy\tttest/lib/TeensyTimerTool/src//Teensy/TCK/TckChannel.h:79
     d4e:	2000      	movs	r0, #0
C:\Users\lutz\source\Teensy\tttest/lib/TeensyTimerTool/src//Teensy/TCK/TckChannel.h:77
     d50:	b086      	sub	sp, #24
C:\Users\lutz\source\Teensy\tttest/lib/TeensyTimerTool/src//Teensy/TCK/TckChannel.h:81
     d52:	7623      	strb	r3, [r4, #24]
C:\Users\lutz\source\Teensy\tttest/lib/TeensyTimerTool/src//Teensy/TCK/TckChannel.h:77
     d54:	460e      	mov	r6, r1
C:\Users\lutz\source\Teensy\tttest/lib/TeensyTimerTool/src//Teensy/TCK/TckChannel.h:79
     d56:	7660      	strb	r0, [r4, #25]
C:\Users\lutz\source\Teensy\tttest/lib/TeensyTimerTool/src//Teensy/TCK/TckChannel.h:82
     d58:	b1a3      	cbz	r3, d84 <TeensyTimerTool::TckChannel<unsigned long>::begin(std::function<void ()>, float, bool)+0x3c>
     d5a:	6b27      	ldr	r7, [r4, #48]	; 0x30
_ZNK15TeensyTimerTool10TckChannelImE12getMaxMicrosEv():
C:\Users\lutz\source\Teensy\tttest/lib/TeensyTimerTool/src//Teensy/TCK/TckChannel.h:166
     d5c:	4823      	ldr	r0, [pc, #140]	; (dec <TeensyTimerTool::TckChannel<unsigned long>::begin(std::function<void ()>, float, bool)+0xa4>)
     d5e:	4639      	mov	r1, r7
     d60:	4615      	mov	r5, r2
     d62:	f001 fd4f 	bl	2804 <__aeabi_fdiv>
     d66:	4680      	mov	r8, r0
_ZNK15TeensyTimerTool10TckChannelImE19microsecondToCyclesEf():
C:\Users\lutz\source\Teensy\tttest/lib/TeensyTimerTool/src//Teensy/TCK/TckChannel.h:146
     d68:	4601      	mov	r1, r0
     d6a:	4628      	mov	r0, r5
     d6c:	f001 fe52 	bl	2a14 <__aeabi_fcmpgt>
     d70:	2800      	cmp	r0, #0
     d72:	d133      	bne.n	ddc <TeensyTimerTool::TckChannel<unsigned long>::begin(std::function<void ()>, float, bool)+0x94>
C:\Users\lutz\source\Teensy\tttest/lib/TeensyTimerTool/src//Teensy/TCK/TckChannel.h:151
     d74:	4639      	mov	r1, r7
     d76:	4628      	mov	r0, r5
     d78:	f001 fc90 	bl	269c <__aeabi_fmul>
     d7c:	f001 fe54 	bl	2a28 <__aeabi_f2uiz>
_ZN15TeensyTimerTool10TckChannelImE5beginESt8functionIFvvEEfb():
C:\Users\lutz\source\Teensy\tttest/lib/TeensyTimerTool/src//Teensy/TCK/TckChannel.h:84
     d80:	6220      	str	r0, [r4, #32]
C:\Users\lutz\source\Teensy\tttest/lib/TeensyTimerTool/src//Teensy/TCK/TckChannel.h:85
     d82:	6260      	str	r0, [r4, #36]	; 0x24
     d84:	68b3      	ldr	r3, [r6, #8]
_ZNSt14_Function_baseC4Ev():
c:\toolchain\gcc\gcc-arm-none-eabi-5_4-2016q3-20160926-win32\arm-none-eabi\include\c++\5.4.1/functional:1825
     d86:	2200      	movs	r2, #0
     d88:	9204      	str	r2, [sp, #16]
_ZNSt8functionIFvvEEC4ERKS1_():
c:\toolchain\gcc\gcc-arm-none-eabi-5_4-2016q3-20160926-win32\arm-none-eabi\include\c++\5.4.1/functional:2236
     d8a:	b31b      	cbz	r3, dd4 <TeensyTimerTool::TckChannel<unsigned long>::begin(std::function<void ()>, float, bool)+0x8c>
c:\toolchain\gcc\gcc-arm-none-eabi-5_4-2016q3-20160926-win32\arm-none-eabi\include\c++\5.4.1/functional:2238
     d8c:	ad02      	add	r5, sp, #8
     d8e:	4631      	mov	r1, r6
     d90:	4628      	mov	r0, r5
     d92:	2202      	movs	r2, #2
     d94:	4798      	blx	r3
c:\toolchain\gcc\gcc-arm-none-eabi-5_4-2016q3-20160926-win32\arm-none-eabi\include\c++\5.4.1/functional:2239
     d96:	68f7      	ldr	r7, [r6, #12]
c:\toolchain\gcc\gcc-arm-none-eabi-5_4-2016q3-20160926-win32\arm-none-eabi\include\c++\5.4.1/functional:2240
     d98:	68b6      	ldr	r6, [r6, #8]
_ZSt4swapISt9_Any_dataEvRT_S2_():
c:\toolchain\gcc\gcc-arm-none-eabi-5_4-2016q3-20160926-win32\arm-none-eabi\include\c++\5.4.1\bits/move.h:185
     d9a:	e895 0003 	ldmia.w	r5, {r0, r1}
c:\toolchain\gcc\gcc-arm-none-eabi-5_4-2016q3-20160926-win32\arm-none-eabi\include\c++\5.4.1\bits/move.h:186
     d9e:	f104 0308 	add.w	r3, r4, #8
c:\toolchain\gcc\gcc-arm-none-eabi-5_4-2016q3-20160926-win32\arm-none-eabi\include\c++\5.4.1\bits/move.h:185
     da2:	e88d 0003 	stmia.w	sp, {r0, r1}
c:\toolchain\gcc\gcc-arm-none-eabi-5_4-2016q3-20160926-win32\arm-none-eabi\include\c++\5.4.1\bits/move.h:186
     da6:	e893 0003 	ldmia.w	r3, {r0, r1}
     daa:	e885 0003 	stmia.w	r5, {r0, r1}
c:\toolchain\gcc\gcc-arm-none-eabi-5_4-2016q3-20160926-win32\arm-none-eabi\include\c++\5.4.1\bits/move.h:187
     dae:	e89d 0003 	ldmia.w	sp, {r0, r1}
     db2:	e883 0003 	stmia.w	r3, {r0, r1}
_ZSt4swapIPFbRSt9_Any_dataRKS0_St18_Manager_operationEEvRT_S8_():
c:\toolchain\gcc\gcc-arm-none-eabi-5_4-2016q3-20160926-win32\arm-none-eabi\include\c++\5.4.1\bits/move.h:186
     db6:	6923      	ldr	r3, [r4, #16]
_ZSt4swapIPFvRKSt9_Any_dataEEvRT_S6_():
c:\toolchain\gcc\gcc-arm-none-eabi-5_4-2016q3-20160926-win32\arm-none-eabi\include\c++\5.4.1\bits/move.h:186
     db8:	6962      	ldr	r2, [r4, #20]
_ZSt4swapIPFbRSt9_Any_dataRKS0_St18_Manager_operationEEvRT_S8_():
c:\toolchain\gcc\gcc-arm-none-eabi-5_4-2016q3-20160926-win32\arm-none-eabi\include\c++\5.4.1\bits/move.h:186
     dba:	9304      	str	r3, [sp, #16]
c:\toolchain\gcc\gcc-arm-none-eabi-5_4-2016q3-20160926-win32\arm-none-eabi\include\c++\5.4.1\bits/move.h:187
     dbc:	6126      	str	r6, [r4, #16]
_ZSt4swapIPFvRKSt9_Any_dataEEvRT_S6_():
c:\toolchain\gcc\gcc-arm-none-eabi-5_4-2016q3-20160926-win32\arm-none-eabi\include\c++\5.4.1\bits/move.h:186
     dbe:	9205      	str	r2, [sp, #20]
c:\toolchain\gcc\gcc-arm-none-eabi-5_4-2016q3-20160926-win32\arm-none-eabi\include\c++\5.4.1\bits/move.h:187
     dc0:	6167      	str	r7, [r4, #20]
_ZNSt14_Function_baseD4Ev():
c:\toolchain\gcc\gcc-arm-none-eabi-5_4-2016q3-20160926-win32\arm-none-eabi\include\c++\5.4.1/functional:1829
     dc2:	b11b      	cbz	r3, dcc <TeensyTimerTool::TckChannel<unsigned long>::begin(std::function<void ()>, float, bool)+0x84>
c:\toolchain\gcc\gcc-arm-none-eabi-5_4-2016q3-20160926-win32\arm-none-eabi\include\c++\5.4.1/functional:1830
     dc4:	2203      	movs	r2, #3
     dc6:	4629      	mov	r1, r5
     dc8:	4628      	mov	r0, r5
     dca:	4798      	blx	r3
_ZN15TeensyTimerTool10TckChannelImE5beginESt8functionIFvvEEfb():
C:\Users\lutz\source\Teensy\tttest/lib/TeensyTimerTool/src//Teensy/TCK/TckChannel.h:90
     dcc:	2000      	movs	r0, #0
     dce:	b006      	add	sp, #24
     dd0:	e8bd 81f0 	ldmia.w	sp!, {r4, r5, r6, r7, r8, pc}
_ZNSt8functionIFvvEEC4ERKS1_():
c:\toolchain\gcc\gcc-arm-none-eabi-5_4-2016q3-20160926-win32\arm-none-eabi\include\c++\5.4.1/functional:2236
     dd4:	461e      	mov	r6, r3
     dd6:	9f05      	ldr	r7, [sp, #20]
     dd8:	ad02      	add	r5, sp, #8
     dda:	e7de      	b.n	d9a <TeensyTimerTool::TckChannel<unsigned long>::begin(std::function<void ()>, float, bool)+0x52>
_ZNK15TeensyTimerTool10TckChannelImE19microsecondToCyclesEf():
C:\Users\lutz\source\Teensy\tttest/lib/TeensyTimerTool/src//Teensy/TCK/TckChannel.h:149
     ddc:	f06f 0063 	mvn.w	r0, #99	; 0x63
     de0:	f000 f868 	bl	eb4 <TeensyTimerTool::postError(TeensyTimerTool::errorCode)>
C:\Users\lutz\source\Teensy\tttest/lib/TeensyTimerTool/src//Teensy/TCK/TckChannel.h:148
     de4:	4645      	mov	r5, r8
     de6:	6b27      	ldr	r7, [r4, #48]	; 0x30
     de8:	e7c4      	b.n	d74 <TeensyTimerTool::TckChannel<unsigned long>::begin(std::function<void ()>, float, bool)+0x2c>
     dea:	bf00      	nop
     dec:	4f700000 	.word	0x4f700000

00000df0 <_GLOBAL__sub_I__ZN15TeensyTimerTool3TCKE>:
_GLOBAL__sub_I__ZN15TeensyTimerTool3TCKE():
C:\Users\lutz\source\Teensy\tttest/lib/TeensyTimerTool/src//config.cpp:64
     df0:	b570      	push	{r4, r5, r6, lr}
__static_initialization_and_destruction_0():
C:\Users\lutz\source\Teensy\tttest/lib/TeensyTimerTool/src//Teensy/FTM/FTM.h:87
     df2:	4d1d      	ldr	r5, [pc, #116]	; (e68 <_GLOBAL__sub_I__ZN15TeensyTimerTool3TCKE+0x78>)
     df4:	682b      	ldr	r3, [r5, #0]
     df6:	f013 0301 	ands.w	r3, r3, #1
     dfa:	d113      	bne.n	e24 <_GLOBAL__sub_I__ZN15TeensyTimerTool3TCKE+0x34>
_ZNSt14_Function_baseC4Ev():
c:\toolchain\gcc\gcc-arm-none-eabi-5_4-2016q3-20160926-win32\arm-none-eabi\include\c++\5.4.1/functional:1825
     dfc:	4c1b      	ldr	r4, [pc, #108]	; (e6c <_GLOBAL__sub_I__ZN15TeensyTimerTool3TCKE+0x7c>)
__static_initialization_and_destruction_0():
C:\Users\lutz\source\Teensy\tttest/lib/TeensyTimerTool/src//Teensy/FTM/FTM.h:87
     dfe:	4a1c      	ldr	r2, [pc, #112]	; (e70 <_GLOBAL__sub_I__ZN15TeensyTimerTool3TCKE+0x80>)
     e00:	491c      	ldr	r1, [pc, #112]	; (e74 <_GLOBAL__sub_I__ZN15TeensyTimerTool3TCKE+0x84>)
_ZNSt14_Function_baseC4Ev():
c:\toolchain\gcc\gcc-arm-none-eabi-5_4-2016q3-20160926-win32\arm-none-eabi\include\c++\5.4.1/functional:1825
     e02:	60e3      	str	r3, [r4, #12]
__static_initialization_and_destruction_0():
C:\Users\lutz\source\Teensy\tttest/lib/TeensyTimerTool/src//Teensy/FTM/FTM.h:87
     e04:	2601      	movs	r6, #1
     e06:	4618      	mov	r0, r3
_ZNSt14_Function_baseC4Ev():
c:\toolchain\gcc\gcc-arm-none-eabi-5_4-2016q3-20160926-win32\arm-none-eabi\include\c++\5.4.1/functional:1825
     e08:	62e3      	str	r3, [r4, #44]	; 0x2c
     e0a:	64e3      	str	r3, [r4, #76]	; 0x4c
     e0c:	66e3      	str	r3, [r4, #108]	; 0x6c
     e0e:	f8c4 308c 	str.w	r3, [r4, #140]	; 0x8c
     e12:	f8c4 30ac 	str.w	r3, [r4, #172]	; 0xac
     e16:	f8c4 30cc 	str.w	r3, [r4, #204]	; 0xcc
     e1a:	f8c4 30ec 	str.w	r3, [r4, #236]	; 0xec
__static_initialization_and_destruction_0():
C:\Users\lutz\source\Teensy\tttest/lib/TeensyTimerTool/src//Teensy/FTM/FTM.h:87
     e1e:	602e      	str	r6, [r5, #0]
     e20:	f001 fe22 	bl	2a68 <__aeabi_atexit>
     e24:	4c14      	ldr	r4, [pc, #80]	; (e78 <_GLOBAL__sub_I__ZN15TeensyTimerTool3TCKE+0x88>)
     e26:	6820      	ldr	r0, [r4, #0]
     e28:	f010 0301 	ands.w	r3, r0, #1
     e2c:	d109      	bne.n	e42 <_GLOBAL__sub_I__ZN15TeensyTimerTool3TCKE+0x52>
_ZNSt14_Function_baseC4Ev():
c:\toolchain\gcc\gcc-arm-none-eabi-5_4-2016q3-20160926-win32\arm-none-eabi\include\c++\5.4.1/functional:1825
     e2e:	4d13      	ldr	r5, [pc, #76]	; (e7c <_GLOBAL__sub_I__ZN15TeensyTimerTool3TCKE+0x8c>)
__static_initialization_and_destruction_0():
C:\Users\lutz\source\Teensy\tttest/lib/TeensyTimerTool/src//Teensy/FTM/FTM.h:87
     e30:	4a0f      	ldr	r2, [pc, #60]	; (e70 <_GLOBAL__sub_I__ZN15TeensyTimerTool3TCKE+0x80>)
     e32:	4913      	ldr	r1, [pc, #76]	; (e80 <_GLOBAL__sub_I__ZN15TeensyTimerTool3TCKE+0x90>)
_ZNSt14_Function_baseC4Ev():
c:\toolchain\gcc\gcc-arm-none-eabi-5_4-2016q3-20160926-win32\arm-none-eabi\include\c++\5.4.1/functional:1825
     e34:	60eb      	str	r3, [r5, #12]
__static_initialization_and_destruction_0():
C:\Users\lutz\source\Teensy\tttest/lib/TeensyTimerTool/src//Teensy/FTM/FTM.h:87
     e36:	2601      	movs	r6, #1
     e38:	4618      	mov	r0, r3
_ZNSt14_Function_baseC4Ev():
c:\toolchain\gcc\gcc-arm-none-eabi-5_4-2016q3-20160926-win32\arm-none-eabi\include\c++\5.4.1/functional:1825
     e3a:	62eb      	str	r3, [r5, #44]	; 0x2c
__static_initialization_and_destruction_0():
C:\Users\lutz\source\Teensy\tttest/lib/TeensyTimerTool/src//Teensy/FTM/FTM.h:87
     e3c:	6026      	str	r6, [r4, #0]
     e3e:	f001 fe13 	bl	2a68 <__aeabi_atexit>
     e42:	4c10      	ldr	r4, [pc, #64]	; (e84 <_GLOBAL__sub_I__ZN15TeensyTimerTool3TCKE+0x94>)
     e44:	6820      	ldr	r0, [r4, #0]
     e46:	f010 0301 	ands.w	r3, r0, #1
     e4a:	d10b      	bne.n	e64 <_GLOBAL__sub_I__ZN15TeensyTimerTool3TCKE+0x74>
_ZNSt14_Function_baseC4Ev():
c:\toolchain\gcc\gcc-arm-none-eabi-5_4-2016q3-20160926-win32\arm-none-eabi\include\c++\5.4.1/functional:1825
     e4c:	4d0e      	ldr	r5, [pc, #56]	; (e88 <_GLOBAL__sub_I__ZN15TeensyTimerTool3TCKE+0x98>)
__static_initialization_and_destruction_0():
C:\Users\lutz\source\Teensy\tttest/lib/TeensyTimerTool/src//Teensy/FTM/FTM.h:87
     e4e:	4a08      	ldr	r2, [pc, #32]	; (e70 <_GLOBAL__sub_I__ZN15TeensyTimerTool3TCKE+0x80>)
_ZNSt14_Function_baseC4Ev():
c:\toolchain\gcc\gcc-arm-none-eabi-5_4-2016q3-20160926-win32\arm-none-eabi\include\c++\5.4.1/functional:1825
     e50:	60eb      	str	r3, [r5, #12]
__static_initialization_and_destruction_0():
C:\Users\lutz\source\Teensy\tttest/lib/TeensyTimerTool/src//Teensy/FTM/FTM.h:87
     e52:	2601      	movs	r6, #1
_ZNSt14_Function_baseC4Ev():
c:\toolchain\gcc\gcc-arm-none-eabi-5_4-2016q3-20160926-win32\arm-none-eabi\include\c++\5.4.1/functional:1825
     e54:	62eb      	str	r3, [r5, #44]	; 0x2c
__static_initialization_and_destruction_0():
C:\Users\lutz\source\Teensy\tttest/lib/TeensyTimerTool/src//Teensy/FTM/FTM.h:87
     e56:	6026      	str	r6, [r4, #0]
     e58:	490c      	ldr	r1, [pc, #48]	; (e8c <_GLOBAL__sub_I__ZN15TeensyTimerTool3TCKE+0x9c>)
     e5a:	4618      	mov	r0, r3
_GLOBAL__sub_I__ZN15TeensyTimerTool3TCKE():
C:\Users\lutz\source\Teensy\tttest/lib/TeensyTimerTool/src//config.cpp:64
     e5c:	e8bd 4070 	ldmia.w	sp!, {r4, r5, r6, lr}
__static_initialization_and_destruction_0():
C:\Users\lutz\source\Teensy\tttest/lib/TeensyTimerTool/src//Teensy/FTM/FTM.h:87
     e60:	f001 be02 	b.w	2a68 <__aeabi_atexit>
     e64:	bd70      	pop	{r4, r5, r6, pc}
     e66:	bf00      	nop
     e68:	1fff910c 	.word	0x1fff910c
     e6c:	1fff9190 	.word	0x1fff9190
     e70:	1fff87b0 	.word	0x1fff87b0
     e74:	000006f5 	.word	0x000006f5
     e78:	1fff9108 	.word	0x1fff9108
     e7c:	1fff9150 	.word	0x1fff9150
     e80:	00000715 	.word	0x00000715
     e84:	1fff9104 	.word	0x1fff9104
     e88:	1fff9110 	.word	0x1fff9110
     e8c:	00000741 	.word	0x00000741

00000e90 <TeensyTimerTool::BaseTimer::BaseTimer(TeensyTimerTool::ITimerChannel* (*)(), bool)>:
_ZN15TeensyTimerTool9BaseTimerC2EPFPNS_13ITimerChannelEvEb():
C:\Users\lutz\source\Teensy\tttest/lib/TeensyTimerTool/src//baseTimer.cpp:8
     e90:	b410      	push	{r4}
C:\Users\lutz\source\Teensy\tttest/lib/TeensyTimerTool/src//baseTimer.cpp:9
     e92:	2400      	movs	r4, #0
     e94:	60c4      	str	r4, [r0, #12]
C:\Users\lutz\source\Teensy\tttest/lib/TeensyTimerTool/src//baseTimer.cpp:12
     e96:	6044      	str	r4, [r0, #4]
C:\Users\lutz\source\Teensy\tttest/lib/TeensyTimerTool/src//baseTimer.cpp:9
     e98:	6001      	str	r1, [r0, #0]
C:\Users\lutz\source\Teensy\tttest/lib/TeensyTimerTool/src//baseTimer.cpp:13
     e9a:	7202      	strb	r2, [r0, #8]
C:\Users\lutz\source\Teensy\tttest/lib/TeensyTimerTool/src//baseTimer.cpp:14
     e9c:	bc10      	pop	{r4}
     e9e:	4770      	bx	lr

00000ea0 <std::function<void (TeensyTimerTool::errorCode)>::~function()>:
_ZNSt14_Function_baseD4Ev():
c:\toolchain\gcc\gcc-arm-none-eabi-5_4-2016q3-20160926-win32\arm-none-eabi\include\c++\5.4.1/functional:1829
     ea0:	6883      	ldr	r3, [r0, #8]
_ZNSt8functionIFvN15TeensyTimerTool9errorCodeEEED2Ev():
c:\toolchain\gcc\gcc-arm-none-eabi-5_4-2016q3-20160926-win32\arm-none-eabi\include\c++\5.4.1/functional:1974
     ea2:	b510      	push	{r4, lr}
     ea4:	4604      	mov	r4, r0
_ZNSt14_Function_baseD4Ev():
c:\toolchain\gcc\gcc-arm-none-eabi-5_4-2016q3-20160926-win32\arm-none-eabi\include\c++\5.4.1/functional:1829
     ea6:	b113      	cbz	r3, eae <std::function<void (TeensyTimerTool::errorCode)>::~function()+0xe>
c:\toolchain\gcc\gcc-arm-none-eabi-5_4-2016q3-20160926-win32\arm-none-eabi\include\c++\5.4.1/functional:1830
     ea8:	2203      	movs	r2, #3
     eaa:	4601      	mov	r1, r0
     eac:	4798      	blx	r3
_ZNSt8functionIFvN15TeensyTimerTool9errorCodeEEED2Ev():
c:\toolchain\gcc\gcc-arm-none-eabi-5_4-2016q3-20160926-win32\arm-none-eabi\include\c++\5.4.1/functional:1974
     eae:	4620      	mov	r0, r4
     eb0:	bd10      	pop	{r4, pc}
     eb2:	bf00      	nop

00000eb4 <TeensyTimerTool::postError(TeensyTimerTool::errorCode)>:
_ZN15TeensyTimerTool9postErrorENS_9errorCodeE():
C:\Users\lutz\source\Teensy\tttest/lib/TeensyTimerTool/src/ErrorHandling//error_handler.cpp:69
     eb4:	b510      	push	{r4, lr}
     eb6:	4b07      	ldr	r3, [pc, #28]	; (ed4 <TeensyTimerTool::postError(TeensyTimerTool::errorCode)+0x20>)
C:\Users\lutz\source\Teensy\tttest/lib/TeensyTimerTool/src/ErrorHandling//error_handler.cpp:70
     eb8:	689a      	ldr	r2, [r3, #8]
C:\Users\lutz\source\Teensy\tttest/lib/TeensyTimerTool/src/ErrorHandling//error_handler.cpp:69
     eba:	b082      	sub	sp, #8
     ebc:	4604      	mov	r4, r0
C:\Users\lutz\source\Teensy\tttest/lib/TeensyTimerTool/src/ErrorHandling//error_handler.cpp:70
     ebe:	b132      	cbz	r2, ece <TeensyTimerTool::postError(TeensyTimerTool::errorCode)+0x1a>
C:\Users\lutz\source\Teensy\tttest/lib/TeensyTimerTool/src/ErrorHandling//error_handler.cpp:70 (discriminator 1)
     ec0:	b128      	cbz	r0, ece <TeensyTimerTool::postError(TeensyTimerTool::errorCode)+0x1a>
     ec2:	a902      	add	r1, sp, #8
_ZNKSt8functionIFvN15TeensyTimerTool9errorCodeEEEclES1_():
c:\toolchain\gcc\gcc-arm-none-eabi-5_4-2016q3-20160926-win32\arm-none-eabi\include\c++\5.4.1/functional:2267
     ec4:	68da      	ldr	r2, [r3, #12]
     ec6:	f841 0d04 	str.w	r0, [r1, #-4]!
     eca:	4618      	mov	r0, r3
     ecc:	4790      	blx	r2
_ZN15TeensyTimerTool9postErrorENS_9errorCodeE():
C:\Users\lutz\source\Teensy\tttest/lib/TeensyTimerTool/src/ErrorHandling//error_handler.cpp:72
     ece:	4620      	mov	r0, r4
     ed0:	b002      	add	sp, #8
     ed2:	bd10      	pop	{r4, pc}
     ed4:	1fff9290 	.word	0x1fff9290

00000ed8 <_GLOBAL__sub_I__ZN15TeensyTimerTool12ErrorHandlerC2ER6Stream>:
_ZNSt14_Function_baseC4Ev():
c:\toolchain\gcc\gcc-arm-none-eabi-5_4-2016q3-20160926-win32\arm-none-eabi\include\c++\5.4.1/functional:1825
     ed8:	4b04      	ldr	r3, [pc, #16]	; (eec <_GLOBAL__sub_I__ZN15TeensyTimerTool12ErrorHandlerC2ER6Stream+0x14>)
_GLOBAL__sub_I__ZN15TeensyTimerTool12ErrorHandlerC2ER6Stream():
C:\Users\lutz\source\Teensy\tttest/lib/TeensyTimerTool/src/ErrorHandling//error_handler.cpp:66
     eda:	4a05      	ldr	r2, [pc, #20]	; (ef0 <_GLOBAL__sub_I__ZN15TeensyTimerTool12ErrorHandlerC2ER6Stream+0x18>)
     edc:	4905      	ldr	r1, [pc, #20]	; (ef4 <_GLOBAL__sub_I__ZN15TeensyTimerTool12ErrorHandlerC2ER6Stream+0x1c>)
C:\Users\lutz\source\Teensy\tttest/lib/TeensyTimerTool/src/ErrorHandling//error_handler.cpp:79
     ede:	b410      	push	{r4}
_ZNSt14_Function_baseC4Ev():
c:\toolchain\gcc\gcc-arm-none-eabi-5_4-2016q3-20160926-win32\arm-none-eabi\include\c++\5.4.1/functional:1825
     ee0:	2400      	movs	r4, #0
     ee2:	609c      	str	r4, [r3, #8]
_GLOBAL__sub_I__ZN15TeensyTimerTool12ErrorHandlerC2ER6Stream():
C:\Users\lutz\source\Teensy\tttest/lib/TeensyTimerTool/src/ErrorHandling//error_handler.cpp:66
     ee4:	4618      	mov	r0, r3
C:\Users\lutz\source\Teensy\tttest/lib/TeensyTimerTool/src/ErrorHandling//error_handler.cpp:79
     ee6:	bc10      	pop	{r4}
C:\Users\lutz\source\Teensy\tttest/lib/TeensyTimerTool/src/ErrorHandling//error_handler.cpp:66
     ee8:	f001 bdbe 	b.w	2a68 <__aeabi_atexit>
     eec:	1fff9290 	.word	0x1fff9290
     ef0:	1fff87b0 	.word	0x1fff87b0
     ef4:	00000ea1 	.word	0x00000ea1

00000ef8 <EventResponder::~EventResponder()>:
_ZN14EventResponderD2Ev():
C:\toolchain\Teensyduino\current_fork\cores\teensy3/EventResponder.h:72
     ef8:	b538      	push	{r3, r4, r5, lr}
     efa:	4b06      	ldr	r3, [pc, #24]	; (f14 <EventResponder::~EventResponder()+0x1c>)
     efc:	6003      	str	r3, [r0, #0]
     efe:	4605      	mov	r5, r0
_ZN14EventResponder17disableInterruptsEv():
C:\toolchain\Teensyduino\current_fork\cores\teensy3/EventResponder.h:231
     f00:	f3ef 8410 	mrs	r4, PRIMASK
C:\toolchain\Teensyduino\current_fork\cores\teensy3/EventResponder.h:232
     f04:	b672      	cpsid	i
_ZN14EventResponder6detachEv():
C:\toolchain\Teensyduino\current_fork\cores\teensy3/EventResponder.h:132
     f06:	f001 f91f 	bl	2148 <EventResponder::detachNoInterrupts()>
_ZN14EventResponder16enableInterruptsEb():
C:\toolchain\Teensyduino\current_fork\cores\teensy3/EventResponder.h:236
     f0a:	b904      	cbnz	r4, f0e <EventResponder::~EventResponder()+0x16>
     f0c:	b662      	cpsie	i
_ZN14EventResponderD2Ev():
C:\toolchain\Teensyduino\current_fork\cores\teensy3/EventResponder.h:74
     f0e:	4628      	mov	r0, r5
     f10:	bd38      	pop	{r3, r4, r5, pc}
     f12:	bf00      	nop
     f14:	0000349c 	.word	0x0000349c

00000f18 <EventResponder::triggerEvent(int, void*)>:
_ZN14EventResponder12triggerEventEiPv():
C:\toolchain\Teensyduino\current_fork\cores\teensy3/EventResponder.h:139
     f18:	b410      	push	{r4}
C:\toolchain\Teensyduino\current_fork\cores\teensy3/EventResponder.h:142
     f1a:	7f04      	ldrb	r4, [r0, #28]
C:\toolchain\Teensyduino\current_fork\cores\teensy3/EventResponder.h:140
     f1c:	6041      	str	r1, [r0, #4]
C:\toolchain\Teensyduino\current_fork\cores\teensy3/EventResponder.h:142
     f1e:	2c02      	cmp	r4, #2
C:\toolchain\Teensyduino\current_fork\cores\teensy3/EventResponder.h:141
     f20:	60c2      	str	r2, [r0, #12]
C:\toolchain\Teensyduino\current_fork\cores\teensy3/EventResponder.h:142
     f22:	d002      	beq.n	f2a <EventResponder::triggerEvent(int, void*)+0x12>
C:\toolchain\Teensyduino\current_fork\cores\teensy3/EventResponder.h:147
     f24:	bc10      	pop	{r4}
C:\toolchain\Teensyduino\current_fork\cores\teensy3/EventResponder.h:145
     f26:	f001 b8ab 	b.w	2080 <EventResponder::triggerEventNotImmediate()>
C:\toolchain\Teensyduino\current_fork\cores\teensy3/EventResponder.h:143
     f2a:	6883      	ldr	r3, [r0, #8]
C:\toolchain\Teensyduino\current_fork\cores\teensy3/EventResponder.h:147
     f2c:	bc10      	pop	{r4}
C:\toolchain\Teensyduino\current_fork\cores\teensy3/EventResponder.h:143
     f2e:	4718      	bx	r3

00000f30 <TeensyTimerTool::initYieldHook()::{lambda(EventResponder&)#1}::_FUN(EventResponder&)>:
_ZZN15TeensyTimerTool13initYieldHookEvENUlR14EventResponderE_4_FUNES1_():
C:\Users\lutz\source\Teensy\tttest/lib/TeensyTimerTool/src/Teensy/TCK//TCK.cpp:31
     f30:	b570      	push	{r4, r5, r6, lr}
     f32:	4c14      	ldr	r4, [pc, #80]	; (f84 <TeensyTimerTool::initYieldHook()::{lambda(EventResponder&)#1}::_FUN(EventResponder&)+0x54>)
     f34:	4606      	mov	r6, r0
     f36:	f104 0550 	add.w	r5, r4, #80	; 0x50
_ZN15TeensyTimerTool5TCK_t4tickEv():
C:\Users\lutz\source\Teensy\tttest/lib/TeensyTimerTool/src/Teensy/TCK//TCK.h:76
     f3a:	f854 3f04 	ldr.w	r3, [r4, #4]!
C:\Users\lutz\source\Teensy\tttest/lib/TeensyTimerTool/src/Teensy/TCK//TCK.h:78
     f3e:	4618      	mov	r0, r3
C:\Users\lutz\source\Teensy\tttest/lib/TeensyTimerTool/src/Teensy/TCK//TCK.h:76
     f40:	b113      	cbz	r3, f48 <TeensyTimerTool::initYieldHook()::{lambda(EventResponder&)#1}::_FUN(EventResponder&)+0x18>
C:\Users\lutz\source\Teensy\tttest/lib/TeensyTimerTool/src/Teensy/TCK//TCK.h:78
     f42:	681b      	ldr	r3, [r3, #0]
     f44:	6b9b      	ldr	r3, [r3, #56]	; 0x38
     f46:	4798      	blx	r3
C:\Users\lutz\source\Teensy\tttest/lib/TeensyTimerTool/src/Teensy/TCK//TCK.h:74
     f48:	42ac      	cmp	r4, r5
     f4a:	d1f6      	bne.n	f3a <TeensyTimerTool::initYieldHook()::{lambda(EventResponder&)#1}::_FUN(EventResponder&)+0xa>
operator()():
C:\Users\lutz\source\Teensy\tttest/lib/TeensyTimerTool/src/Teensy/TCK//TCK.cpp:34
     f4c:	6833      	ldr	r3, [r6, #0]
     f4e:	4a0e      	ldr	r2, [pc, #56]	; (f88 <TeensyTimerTool::initYieldHook()::{lambda(EventResponder&)#1}::_FUN(EventResponder&)+0x58>)
     f50:	681b      	ldr	r3, [r3, #0]
     f52:	4293      	cmp	r3, r2
     f54:	d10a      	bne.n	f6c <TeensyTimerTool::initYieldHook()::{lambda(EventResponder&)#1}::_FUN(EventResponder&)+0x3c>
_ZN14EventResponder12triggerEventEiPv():
C:\toolchain\Teensyduino\current_fork\cores\teensy3/EventResponder.h:142
     f56:	7f32      	ldrb	r2, [r6, #28]
C:\toolchain\Teensyduino\current_fork\cores\teensy3/EventResponder.h:140
     f58:	2300      	movs	r3, #0
C:\toolchain\Teensyduino\current_fork\cores\teensy3/EventResponder.h:142
     f5a:	2a02      	cmp	r2, #2
C:\toolchain\Teensyduino\current_fork\cores\teensy3/EventResponder.h:140
     f5c:	6073      	str	r3, [r6, #4]
C:\toolchain\Teensyduino\current_fork\cores\teensy3/EventResponder.h:141
     f5e:	60f3      	str	r3, [r6, #12]
C:\toolchain\Teensyduino\current_fork\cores\teensy3/EventResponder.h:142
     f60:	d00a      	beq.n	f78 <TeensyTimerTool::initYieldHook()::{lambda(EventResponder&)#1}::_FUN(EventResponder&)+0x48>
C:\toolchain\Teensyduino\current_fork\cores\teensy3/EventResponder.h:145
     f62:	4630      	mov	r0, r6
_ZZN15TeensyTimerTool13initYieldHookEvENUlR14EventResponderE_4_FUNES1_():
C:\Users\lutz\source\Teensy\tttest/lib/TeensyTimerTool/src/Teensy/TCK//TCK.cpp:35
     f64:	e8bd 4070 	ldmia.w	sp!, {r4, r5, r6, lr}
_ZN14EventResponder12triggerEventEiPv():
C:\toolchain\Teensyduino\current_fork\cores\teensy3/EventResponder.h:145
     f68:	f001 b88a 	b.w	2080 <EventResponder::triggerEventNotImmediate()>
operator()():
C:\Users\lutz\source\Teensy\tttest/lib/TeensyTimerTool/src/Teensy/TCK//TCK.cpp:34
     f6c:	2200      	movs	r2, #0
     f6e:	4630      	mov	r0, r6
     f70:	4611      	mov	r1, r2
_ZZN15TeensyTimerTool13initYieldHookEvENUlR14EventResponderE_4_FUNES1_():
C:\Users\lutz\source\Teensy\tttest/lib/TeensyTimerTool/src/Teensy/TCK//TCK.cpp:35
     f72:	e8bd 4070 	ldmia.w	sp!, {r4, r5, r6, lr}
operator()():
C:\Users\lutz\source\Teensy\tttest/lib/TeensyTimerTool/src/Teensy/TCK//TCK.cpp:34
     f76:	4718      	bx	r3
_ZN14EventResponder12triggerEventEiPv():
C:\toolchain\Teensyduino\current_fork\cores\teensy3/EventResponder.h:143
     f78:	68b3      	ldr	r3, [r6, #8]
     f7a:	4630      	mov	r0, r6
_ZZN15TeensyTimerTool13initYieldHookEvENUlR14EventResponderE_4_FUNES1_():
C:\Users\lutz\source\Teensy\tttest/lib/TeensyTimerTool/src/Teensy/TCK//TCK.cpp:35
     f7c:	e8bd 4070 	ldmia.w	sp!, {r4, r5, r6, lr}
_ZN14EventResponder12triggerEventEiPv():
C:\toolchain\Teensyduino\current_fork\cores\teensy3/EventResponder.h:143
     f80:	4718      	bx	r3
     f82:	bf00      	nop
     f84:	1fff929c 	.word	0x1fff929c
     f88:	00000f19 	.word	0x00000f19

00000f8c <TeensyTimerTool::initYieldHook()>:
_ZN15TeensyTimerTool13initYieldHookEv():
C:\Users\lutz\source\Teensy\tttest/lib/TeensyTimerTool/src/Teensy/TCK//TCK.cpp:30
     f8c:	b570      	push	{r4, r5, r6, lr}
_ZN14EventResponder17disableInterruptsEv():
C:\toolchain\Teensyduino\current_fork\cores\teensy3/EventResponder.h:231
     f8e:	f3ef 8510 	mrs	r5, PRIMASK
C:\toolchain\Teensyduino\current_fork\cores\teensy3/EventResponder.h:232
     f92:	b672      	cpsid	i
_ZN14EventResponder6attachEPFvRS_Eh():
C:\toolchain\Teensyduino\current_fork\cores\teensy3/EventResponder.h:88
     f94:	4c12      	ldr	r4, [pc, #72]	; (fe0 <TeensyTimerTool::initYieldHook()+0x54>)
     f96:	4620      	mov	r0, r4
     f98:	f001 f8d6 	bl	2148 <EventResponder::detachNoInterrupts()>
C:\toolchain\Teensyduino\current_fork\cores\teensy3/EventResponder.h:91
     f9c:	4a11      	ldr	r2, [pc, #68]	; (fe4 <TeensyTimerTool::initYieldHook()+0x58>)
C:\toolchain\Teensyduino\current_fork\cores\teensy3/EventResponder.h:89
     f9e:	4912      	ldr	r1, [pc, #72]	; (fe8 <TeensyTimerTool::initYieldHook()+0x5c>)
C:\toolchain\Teensyduino\current_fork\cores\teensy3/EventResponder.h:91
     fa0:	7813      	ldrb	r3, [r2, #0]
C:\toolchain\Teensyduino\current_fork\cores\teensy3/EventResponder.h:89
     fa2:	60a1      	str	r1, [r4, #8]
C:\toolchain\Teensyduino\current_fork\cores\teensy3/EventResponder.h:91
     fa4:	f043 0304 	orr.w	r3, r3, #4
C:\toolchain\Teensyduino\current_fork\cores\teensy3/EventResponder.h:90
     fa8:	2101      	movs	r1, #1
     faa:	7721      	strb	r1, [r4, #28]
C:\toolchain\Teensyduino\current_fork\cores\teensy3/EventResponder.h:91
     fac:	7013      	strb	r3, [r2, #0]
_ZN14EventResponder16enableInterruptsEb():
C:\toolchain\Teensyduino\current_fork\cores\teensy3/EventResponder.h:236
     fae:	b955      	cbnz	r5, fc6 <TeensyTimerTool::initYieldHook()+0x3a>
     fb0:	b662      	cpsie	i
     fb2:	7f23      	ldrb	r3, [r4, #28]
_ZN14EventResponder12triggerEventEiPv():
C:\toolchain\Teensyduino\current_fork\cores\teensy3/EventResponder.h:140
     fb4:	6065      	str	r5, [r4, #4]
C:\toolchain\Teensyduino\current_fork\cores\teensy3/EventResponder.h:142
     fb6:	2b02      	cmp	r3, #2
C:\toolchain\Teensyduino\current_fork\cores\teensy3/EventResponder.h:141
     fb8:	60e5      	str	r5, [r4, #12]
C:\toolchain\Teensyduino\current_fork\cores\teensy3/EventResponder.h:142
     fba:	d00c      	beq.n	fd6 <TeensyTimerTool::initYieldHook()+0x4a>
C:\toolchain\Teensyduino\current_fork\cores\teensy3/EventResponder.h:145
     fbc:	4808      	ldr	r0, [pc, #32]	; (fe0 <TeensyTimerTool::initYieldHook()+0x54>)
_ZN15TeensyTimerTool13initYieldHookEv():
C:\Users\lutz\source\Teensy\tttest/lib/TeensyTimerTool/src/Teensy/TCK//TCK.cpp:37
     fbe:	e8bd 4070 	ldmia.w	sp!, {r4, r5, r6, lr}
_ZN14EventResponder12triggerEventEiPv():
C:\toolchain\Teensyduino\current_fork\cores\teensy3/EventResponder.h:145
     fc2:	f001 b85d 	b.w	2080 <EventResponder::triggerEventNotImmediate()>
C:\toolchain\Teensyduino\current_fork\cores\teensy3/EventResponder.h:140
     fc6:	2300      	movs	r3, #0
     fc8:	6063      	str	r3, [r4, #4]
C:\toolchain\Teensyduino\current_fork\cores\teensy3/EventResponder.h:141
     fca:	60e3      	str	r3, [r4, #12]
C:\toolchain\Teensyduino\current_fork\cores\teensy3/EventResponder.h:145
     fcc:	4804      	ldr	r0, [pc, #16]	; (fe0 <TeensyTimerTool::initYieldHook()+0x54>)
_ZN15TeensyTimerTool13initYieldHookEv():
C:\Users\lutz\source\Teensy\tttest/lib/TeensyTimerTool/src/Teensy/TCK//TCK.cpp:37
     fce:	e8bd 4070 	ldmia.w	sp!, {r4, r5, r6, lr}
_ZN14EventResponder12triggerEventEiPv():
C:\toolchain\Teensyduino\current_fork\cores\teensy3/EventResponder.h:145
     fd2:	f001 b855 	b.w	2080 <EventResponder::triggerEventNotImmediate()>
C:\toolchain\Teensyduino\current_fork\cores\teensy3/EventResponder.h:143
     fd6:	68a3      	ldr	r3, [r4, #8]
     fd8:	4620      	mov	r0, r4
_ZN15TeensyTimerTool13initYieldHookEv():
C:\Users\lutz\source\Teensy\tttest/lib/TeensyTimerTool/src/Teensy/TCK//TCK.cpp:37
     fda:	e8bd 4070 	ldmia.w	sp!, {r4, r5, r6, lr}
_ZN14EventResponder12triggerEventEiPv():
C:\toolchain\Teensyduino\current_fork\cores\teensy3/EventResponder.h:143
     fde:	4718      	bx	r3
     fe0:	1fff87b4 	.word	0x1fff87b4
     fe4:	1fff87d8 	.word	0x1fff87d8
     fe8:	00000f31 	.word	0x00000f31

00000fec <_GLOBAL__sub_I__ZN15TeensyTimerTool5TCK_t13isInitializedE>:
_GLOBAL__sub_I__ZN15TeensyTimerTool5TCK_t13isInitializedE():
C:\Users\lutz\source\Teensy\tttest/lib/TeensyTimerTool/src/Teensy/TCK//TCK.cpp:27
     fec:	4a02      	ldr	r2, [pc, #8]	; (ff8 <_GLOBAL__sub_I__ZN15TeensyTimerTool5TCK_t13isInitializedE+0xc>)
     fee:	4903      	ldr	r1, [pc, #12]	; (ffc <_GLOBAL__sub_I__ZN15TeensyTimerTool5TCK_t13isInitializedE+0x10>)
     ff0:	4803      	ldr	r0, [pc, #12]	; (1000 <_GLOBAL__sub_I__ZN15TeensyTimerTool5TCK_t13isInitializedE+0x14>)
     ff2:	f001 bd39 	b.w	2a68 <__aeabi_atexit>
     ff6:	bf00      	nop
     ff8:	1fff87b0 	.word	0x1fff87b0
     ffc:	00000ef9 	.word	0x00000ef9
    1000:	1fff87b4 	.word	0x1fff87b4

00001004 <fault_isr>:
fault_isr():
C:\toolchain\Teensyduino\current_fork\cores\teensy3/mk20dx128.c:74
    1004:	b508      	push	{r3, lr}
C:\toolchain\Teensyduino\current_fork\cores\teensy3/mk20dx128.c:128
    1006:	4c10      	ldr	r4, [pc, #64]	; (1048 <fault_isr+0x44>)
    1008:	e008      	b.n	101c <fault_isr+0x18>
C:\toolchain\Teensyduino\current_fork\cores\teensy3/mk20dx128.c:129
    100a:	6823      	ldr	r3, [r4, #0]
    100c:	0559      	lsls	r1, r3, #21
    100e:	d40d      	bmi.n	102c <fault_isr+0x28>
C:\toolchain\Teensyduino\current_fork\cores\teensy3/mk20dx128.c:130
    1010:	6823      	ldr	r3, [r4, #0]
    1012:	051a      	lsls	r2, r3, #20
    1014:	d40f      	bmi.n	1036 <fault_isr+0x32>
C:\toolchain\Teensyduino\current_fork\cores\teensy3/mk20dx128.c:131
    1016:	6823      	ldr	r3, [r4, #0]
    1018:	04db      	lsls	r3, r3, #19
    101a:	d411      	bmi.n	1040 <fault_isr+0x3c>
C:\toolchain\Teensyduino\current_fork\cores\teensy3/mk20dx128.c:128
    101c:	6823      	ldr	r3, [r4, #0]
    101e:	0358      	lsls	r0, r3, #13
    1020:	d5f3      	bpl.n	100a <fault_isr+0x6>
C:\toolchain\Teensyduino\current_fork\cores\teensy3/mk20dx128.c:128 (discriminator 1)
    1022:	f000 f9f5 	bl	1410 <usb_isr>
C:\toolchain\Teensyduino\current_fork\cores\teensy3/mk20dx128.c:129 (discriminator 1)
    1026:	6823      	ldr	r3, [r4, #0]
    1028:	0559      	lsls	r1, r3, #21
    102a:	d5f1      	bpl.n	1010 <fault_isr+0xc>
    102c:	f000 f80e 	bl	104c <unused_isr>
C:\toolchain\Teensyduino\current_fork\cores\teensy3/mk20dx128.c:130 (discriminator 1)
    1030:	6823      	ldr	r3, [r4, #0]
    1032:	051a      	lsls	r2, r3, #20
    1034:	d5ef      	bpl.n	1016 <fault_isr+0x12>
    1036:	f000 f809 	bl	104c <unused_isr>
C:\toolchain\Teensyduino\current_fork\cores\teensy3/mk20dx128.c:131 (discriminator 1)
    103a:	6823      	ldr	r3, [r4, #0]
    103c:	04db      	lsls	r3, r3, #19
    103e:	d5ed      	bpl.n	101c <fault_isr+0x18>
    1040:	f000 f804 	bl	104c <unused_isr>
    1044:	e7ea      	b.n	101c <fault_isr+0x18>
    1046:	bf00      	nop
    1048:	40048034 	.word	0x40048034

0000104c <unused_isr>:
unused_isr():
C:\toolchain\Teensyduino\current_fork\cores\teensy3/mk20dx128.c:136
    104c:	b508      	push	{r3, lr}
C:\toolchain\Teensyduino\current_fork\cores\teensy3/mk20dx128.c:137
    104e:	f7ff ffd9 	bl	1004 <fault_isr>
enet_tx_isr():
    1052:	bf00      	nop

00001054 <startup_early_hook>:
startup_default_early_hook():
C:\toolchain\Teensyduino\current_fork\cores\teensy3/mk20dx128.c:673
    1054:	4b01      	ldr	r3, [pc, #4]	; (105c <startup_early_hook+0x8>)
    1056:	2210      	movs	r2, #16
    1058:	801a      	strh	r2, [r3, #0]
    105a:	4770      	bx	lr
    105c:	40052000 	.word	0x40052000

00001060 <startup_late_hook>:
startup_default_late_hook():
C:\toolchain\Teensyduino\current_fork\cores\teensy3/mk20dx128.c:678
    1060:	4770      	bx	lr
startup_late_hook():
    1062:	bf00      	nop

00001064 <_sbrk>:
_sbrk():
C:\toolchain\Teensyduino\current_fork\cores\teensy3/mk20dx128.c:1186
    1064:	4909      	ldr	r1, [pc, #36]	; (108c <_sbrk+0x28>)
C:\toolchain\Teensyduino\current_fork\cores\teensy3/mk20dx128.c:1183
    1066:	b508      	push	{r3, lr}
C:\toolchain\Teensyduino\current_fork\cores\teensy3/mk20dx128.c:1186
    1068:	680b      	ldr	r3, [r1, #0]
C:\toolchain\Teensyduino\current_fork\cores\teensy3/mk20dx128.c:1187
    106a:	b130      	cbz	r0, 107a <_sbrk+0x16>
C:\toolchain\Teensyduino\current_fork\cores\teensy3/mk20dx128.c:1188
    106c:	466a      	mov	r2, sp
C:\toolchain\Teensyduino\current_fork\cores\teensy3/mk20dx128.c:1189
    106e:	4418      	add	r0, r3
    1070:	f5a2 5280 	sub.w	r2, r2, #4096	; 0x1000
    1074:	4290      	cmp	r0, r2
    1076:	d202      	bcs.n	107e <_sbrk+0x1a>
C:\toolchain\Teensyduino\current_fork\cores\teensy3/mk20dx128.c:1193
    1078:	6008      	str	r0, [r1, #0]
C:\toolchain\Teensyduino\current_fork\cores\teensy3/mk20dx128.c:1195
    107a:	4618      	mov	r0, r3
C:\toolchain\Teensyduino\current_fork\cores\teensy3/mk20dx128.c:1196
    107c:	bd08      	pop	{r3, pc}
C:\toolchain\Teensyduino\current_fork\cores\teensy3/mk20dx128.c:1190
    107e:	f001 fcff 	bl	2a80 <__errno>
    1082:	230c      	movs	r3, #12
    1084:	6003      	str	r3, [r0, #0]
C:\toolchain\Teensyduino\current_fork\cores\teensy3/mk20dx128.c:1191
    1086:	f04f 30ff 	mov.w	r0, #4294967295
    108a:	bd08      	pop	{r3, pc}
    108c:	1fff87d4 	.word	0x1fff87d4

00001090 <pinMode.part.2>:
pinMode():
C:\toolchain\Teensyduino\current_fork\cores\teensy3/pins_teensy.c:1095
    1090:	4a1c      	ldr	r2, [pc, #112]	; (1104 <pinMode.part.2+0x74>)
    1092:	eb02 03c0 	add.w	r3, r2, r0, lsl #3
C:\toolchain\Teensyduino\current_fork\cores\teensy3/pins_teensy.c:1097
    1096:	2901      	cmp	r1, #1
C:\toolchain\Teensyduino\current_fork\cores\teensy3/pins_teensy.c:1095
    1098:	685b      	ldr	r3, [r3, #4]
C:\toolchain\Teensyduino\current_fork\cores\teensy3/pins_teensy.c:1097
    109a:	d011      	beq.n	10c0 <pinMode.part.2+0x30>
    109c:	2904      	cmp	r1, #4
    109e:	d01b      	beq.n	10d8 <pinMode.part.2+0x48>
C:\toolchain\Teensyduino\current_fork\cores\teensy3/pins_teensy.c:1111
    10a0:	f852 0030 	ldr.w	r0, [r2, r0, lsl #3]
    10a4:	2200      	movs	r2, #0
    10a6:	f880 2280 	strb.w	r2, [r0, #640]	; 0x280
C:\toolchain\Teensyduino\current_fork\cores\teensy3/pins_teensy.c:1115
    10aa:	b129      	cbz	r1, 10b8 <pinMode.part.2+0x28>
C:\toolchain\Teensyduino\current_fork\cores\teensy3/pins_teensy.c:1117
    10ac:	2902      	cmp	r1, #2
    10ae:	d020      	beq.n	10f2 <pinMode.part.2+0x62>
C:\toolchain\Teensyduino\current_fork\cores\teensy3/pins_teensy.c:1119
    10b0:	2903      	cmp	r1, #3
    10b2:	d022      	beq.n	10fa <pinMode.part.2+0x6a>
C:\toolchain\Teensyduino\current_fork\cores\teensy3/pins_teensy.c:1107
    10b4:	601a      	str	r2, [r3, #0]
    10b6:	4770      	bx	lr
C:\toolchain\Teensyduino\current_fork\cores\teensy3/pins_teensy.c:1116
    10b8:	f44f 7280 	mov.w	r2, #256	; 0x100
    10bc:	601a      	str	r2, [r3, #0]
    10be:	4770      	bx	lr
C:\toolchain\Teensyduino\current_fork\cores\teensy3/pins_teensy.c:1099
    10c0:	f852 0030 	ldr.w	r0, [r2, r0, lsl #3]
C:\toolchain\Teensyduino\current_fork\cores\teensy3/pins_teensy.c:1103
    10c4:	f44f 72a2 	mov.w	r2, #324	; 0x144
C:\toolchain\Teensyduino\current_fork\cores\teensy3/pins_teensy.c:1099
    10c8:	f880 1280 	strb.w	r1, [r0, #640]	; 0x280
C:\toolchain\Teensyduino\current_fork\cores\teensy3/pins_teensy.c:1103
    10cc:	601a      	str	r2, [r3, #0]
C:\toolchain\Teensyduino\current_fork\cores\teensy3/pins_teensy.c:1107
    10ce:	681a      	ldr	r2, [r3, #0]
    10d0:	f022 0220 	bic.w	r2, r2, #32
    10d4:	601a      	str	r2, [r3, #0]
    10d6:	4770      	bx	lr
C:\toolchain\Teensyduino\current_fork\cores\teensy3/pins_teensy.c:1099
    10d8:	f852 1030 	ldr.w	r1, [r2, r0, lsl #3]
C:\toolchain\Teensyduino\current_fork\cores\teensy3/pins_teensy.c:1103
    10dc:	f44f 72a2 	mov.w	r2, #324	; 0x144
C:\toolchain\Teensyduino\current_fork\cores\teensy3/pins_teensy.c:1099
    10e0:	2001      	movs	r0, #1
    10e2:	f881 0280 	strb.w	r0, [r1, #640]	; 0x280
C:\toolchain\Teensyduino\current_fork\cores\teensy3/pins_teensy.c:1103
    10e6:	601a      	str	r2, [r3, #0]
C:\toolchain\Teensyduino\current_fork\cores\teensy3/pins_teensy.c:1105
    10e8:	681a      	ldr	r2, [r3, #0]
    10ea:	f042 0220 	orr.w	r2, r2, #32
    10ee:	601a      	str	r2, [r3, #0]
    10f0:	4770      	bx	lr
C:\toolchain\Teensyduino\current_fork\cores\teensy3/pins_teensy.c:1118
    10f2:	f240 1203 	movw	r2, #259	; 0x103
    10f6:	601a      	str	r2, [r3, #0]
    10f8:	4770      	bx	lr
C:\toolchain\Teensyduino\current_fork\cores\teensy3/pins_teensy.c:1120
    10fa:	f44f 7281 	mov.w	r2, #258	; 0x102
    10fe:	601a      	str	r2, [r3, #0]
    1100:	4770      	bx	lr
    1102:	bf00      	nop
    1104:	000034a0 	.word	0x000034a0

00001108 <attachInterruptVector>:
attachInterruptVector():
C:\toolchain\Teensyduino\current_fork\cores\teensy3/pins_teensy.c:193
    1108:	3010      	adds	r0, #16
    110a:	4b02      	ldr	r3, [pc, #8]	; (1114 <attachInterruptVector+0xc>)
    110c:	f843 1020 	str.w	r1, [r3, r0, lsl #2]
    1110:	4770      	bx	lr
    1112:	bf00      	nop
    1114:	1fff8200 	.word	0x1fff8200

00001118 <rtc_set>:
rtc_set():
C:\toolchain\Teensyduino\current_fork\cores\teensy3/pins_teensy.c:346
    1118:	b430      	push	{r4, r5}
C:\toolchain\Teensyduino\current_fork\cores\teensy3/pins_teensy.c:347
    111a:	4b05      	ldr	r3, [pc, #20]	; (1130 <rtc_set+0x18>)
C:\toolchain\Teensyduino\current_fork\cores\teensy3/pins_teensy.c:348
    111c:	4d05      	ldr	r5, [pc, #20]	; (1134 <rtc_set+0x1c>)
C:\toolchain\Teensyduino\current_fork\cores\teensy3/pins_teensy.c:349
    111e:	4c06      	ldr	r4, [pc, #24]	; (1138 <rtc_set+0x20>)
C:\toolchain\Teensyduino\current_fork\cores\teensy3/pins_teensy.c:347
    1120:	2200      	movs	r2, #0
C:\toolchain\Teensyduino\current_fork\cores\teensy3/pins_teensy.c:350
    1122:	2110      	movs	r1, #16
C:\toolchain\Teensyduino\current_fork\cores\teensy3/pins_teensy.c:347
    1124:	601a      	str	r2, [r3, #0]
C:\toolchain\Teensyduino\current_fork\cores\teensy3/pins_teensy.c:348
    1126:	602a      	str	r2, [r5, #0]
C:\toolchain\Teensyduino\current_fork\cores\teensy3/pins_teensy.c:349
    1128:	6020      	str	r0, [r4, #0]
C:\toolchain\Teensyduino\current_fork\cores\teensy3/pins_teensy.c:350
    112a:	6019      	str	r1, [r3, #0]
C:\toolchain\Teensyduino\current_fork\cores\teensy3/pins_teensy.c:351
    112c:	bc30      	pop	{r4, r5}
    112e:	4770      	bx	lr
    1130:	4003d014 	.word	0x4003d014
    1134:	4003d004 	.word	0x4003d004
    1138:	4003d000 	.word	0x4003d000

0000113c <pinMode>:
pinMode():
C:\toolchain\Teensyduino\current_fork\cores\teensy3/pins_teensy.c:1094
    113c:	2821      	cmp	r0, #33	; 0x21
    113e:	d801      	bhi.n	1144 <pinMode+0x8>
    1140:	f7ff bfa6 	b.w	1090 <pinMode.part.2>
    1144:	4770      	bx	lr
    1146:	bf00      	nop

00001148 <delay>:
delay():
C:\toolchain\Teensyduino\current_fork\cores\teensy3/pins_teensy.c:1218
    1148:	e92d 43f8 	stmdb	sp!, {r3, r4, r5, r6, r7, r8, r9, lr}
    114c:	4605      	mov	r5, r0
micros():
C:\toolchain\Teensyduino\current_fork\cores\teensy3/pins_teensy.c:1199
    114e:	b672      	cpsid	i
C:\toolchain\Teensyduino\current_fork\cores\teensy3/pins_teensy.c:1201
    1150:	4f20      	ldr	r7, [pc, #128]	; (11d4 <delay+0x8c>)
C:\toolchain\Teensyduino\current_fork\cores\teensy3/pins_teensy.c:1200
    1152:	4b21      	ldr	r3, [pc, #132]	; (11d8 <delay+0x90>)
C:\toolchain\Teensyduino\current_fork\cores\teensy3/pins_teensy.c:1202
    1154:	4a21      	ldr	r2, [pc, #132]	; (11dc <delay+0x94>)
C:\toolchain\Teensyduino\current_fork\cores\teensy3/pins_teensy.c:1200
    1156:	681b      	ldr	r3, [r3, #0]
C:\toolchain\Teensyduino\current_fork\cores\teensy3/pins_teensy.c:1201
    1158:	683c      	ldr	r4, [r7, #0]
C:\toolchain\Teensyduino\current_fork\cores\teensy3/pins_teensy.c:1202
    115a:	6812      	ldr	r2, [r2, #0]
C:\toolchain\Teensyduino\current_fork\cores\teensy3/pins_teensy.c:1203
    115c:	b662      	cpsie	i
C:\toolchain\Teensyduino\current_fork\cores\teensy3/pins_teensy.c:1207
    115e:	0152      	lsls	r2, r2, #5
    1160:	d502      	bpl.n	1168 <delay+0x20>
    1162:	2b32      	cmp	r3, #50	; 0x32
    1164:	bf88      	it	hi
    1166:	3401      	addhi	r4, #1
delay():
C:\toolchain\Teensyduino\current_fork\cores\teensy3/pins_teensy.c:1221
    1168:	b395      	cbz	r5, 11d0 <delay+0x88>
micros():
C:\toolchain\Teensyduino\current_fork\cores\teensy3/pins_teensy.c:1214
    116a:	f5c3 33bb 	rsb	r3, r3, #95744	; 0x17600
    116e:	4e1c      	ldr	r6, [pc, #112]	; (11e0 <delay+0x98>)
C:\toolchain\Teensyduino\current_fork\cores\teensy3/pins_teensy.c:1200
    1170:	f8df 9064 	ldr.w	r9, [pc, #100]	; 11d8 <delay+0x90>
C:\toolchain\Teensyduino\current_fork\cores\teensy3/pins_teensy.c:1202
    1174:	f8df 8064 	ldr.w	r8, [pc, #100]	; 11dc <delay+0x94>
C:\toolchain\Teensyduino\current_fork\cores\teensy3/pins_teensy.c:1214
    1178:	33ff      	adds	r3, #255	; 0xff
    117a:	f44f 727a 	mov.w	r2, #1000	; 0x3e8
    117e:	fba6 1303 	umull	r1, r3, r6, r3
    1182:	fb02 f404 	mul.w	r4, r2, r4
    1186:	eb04 1493 	add.w	r4, r4, r3, lsr #6
C:\toolchain\Teensyduino\current_fork\cores\teensy3/pins_teensy.c:1199
    118a:	b672      	cpsid	i
C:\toolchain\Teensyduino\current_fork\cores\teensy3/pins_teensy.c:1200
    118c:	f8d9 1000 	ldr.w	r1, [r9]
C:\toolchain\Teensyduino\current_fork\cores\teensy3/pins_teensy.c:1201
    1190:	683a      	ldr	r2, [r7, #0]
C:\toolchain\Teensyduino\current_fork\cores\teensy3/pins_teensy.c:1202
    1192:	f8d8 e000 	ldr.w	lr, [r8]
C:\toolchain\Teensyduino\current_fork\cores\teensy3/pins_teensy.c:1203
    1196:	b662      	cpsie	i
delay():
C:\toolchain\Teensyduino\current_fork\cores\teensy3/pins_teensy.c:1223
    1198:	f5c1 33bb 	rsb	r3, r1, #95744	; 0x17600
    119c:	33ff      	adds	r3, #255	; 0xff
    119e:	fba6 0303 	umull	r0, r3, r6, r3
micros():
C:\toolchain\Teensyduino\current_fork\cores\teensy3/pins_teensy.c:1207
    11a2:	f01e 6f80 	tst.w	lr, #67108864	; 0x4000000
delay():
C:\toolchain\Teensyduino\current_fork\cores\teensy3/pins_teensy.c:1223
    11a6:	ebc4 1393 	rsb	r3, r4, r3, lsr #6
    11aa:	f44f 707a 	mov.w	r0, #1000	; 0x3e8
micros():
C:\toolchain\Teensyduino\current_fork\cores\teensy3/pins_teensy.c:1207
    11ae:	d002      	beq.n	11b6 <delay+0x6e>
    11b0:	2932      	cmp	r1, #50	; 0x32
    11b2:	bf88      	it	hi
    11b4:	3201      	addhi	r2, #1
delay():
C:\toolchain\Teensyduino\current_fork\cores\teensy3/pins_teensy.c:1223
    11b6:	fb00 3302 	mla	r3, r0, r2, r3
    11ba:	f5b3 7f7a 	cmp.w	r3, #1000	; 0x3e8
    11be:	d304      	bcc.n	11ca <delay+0x82>
C:\toolchain\Teensyduino\current_fork\cores\teensy3/pins_teensy.c:1225
    11c0:	3d01      	subs	r5, #1
    11c2:	d005      	beq.n	11d0 <delay+0x88>
C:\toolchain\Teensyduino\current_fork\cores\teensy3/pins_teensy.c:1226
    11c4:	f504 747a 	add.w	r4, r4, #1000	; 0x3e8
    11c8:	e7df      	b.n	118a <delay+0x42>
C:\toolchain\Teensyduino\current_fork\cores\teensy3/pins_teensy.c:1228
    11ca:	f000 fee3 	bl	1f94 <yield>
C:\toolchain\Teensyduino\current_fork\cores\teensy3/pins_teensy.c:1229
    11ce:	e7dc      	b.n	118a <delay+0x42>
    11d0:	e8bd 83f8 	ldmia.w	sp!, {r3, r4, r5, r6, r7, r8, r9, pc}
    11d4:	1fff92f4 	.word	0x1fff92f4
    11d8:	e000e018 	.word	0xe000e018
    11dc:	e000ed04 	.word	0xe000ed04
    11e0:	aaaaaaab 	.word	0xaaaaaaab

000011e4 <_init_Teensyduino_internal_>:
_init_Teensyduino_internal_():
C:\toolchain\Teensyduino\current_fork\cores\teensy3/pins_teensy.c:521
    11e4:	b5f8      	push	{r3, r4, r5, r6, r7, lr}
C:\toolchain\Teensyduino\current_fork\cores\teensy3/pins_teensy.c:523
    11e6:	4b2d      	ldr	r3, [pc, #180]	; (129c <_init_Teensyduino_internal_+0xb8>)
C:\toolchain\Teensyduino\current_fork\cores\teensy3/pins_teensy.c:534
    11e8:	492d      	ldr	r1, [pc, #180]	; (12a0 <_init_Teensyduino_internal_+0xbc>)
C:\toolchain\Teensyduino\current_fork\cores\teensy3/pins_teensy.c:536
    11ea:	f8df e0d0 	ldr.w	lr, [pc, #208]	; 12bc <_init_Teensyduino_internal_+0xd8>
C:\toolchain\Teensyduino\current_fork\cores\teensy3/pins_teensy.c:535
    11ee:	f8df c0d0 	ldr.w	ip, [pc, #208]	; 12c0 <_init_Teensyduino_internal_+0xdc>
C:\toolchain\Teensyduino\current_fork\cores\teensy3/pins_teensy.c:537
    11f2:	4e2c      	ldr	r6, [pc, #176]	; (12a4 <_init_Teensyduino_internal_+0xc0>)
C:\toolchain\Teensyduino\current_fork\cores\teensy3/pins_teensy.c:539
    11f4:	4d2c      	ldr	r5, [pc, #176]	; (12a8 <_init_Teensyduino_internal_+0xc4>)
C:\toolchain\Teensyduino\current_fork\cores\teensy3/pins_teensy.c:540
    11f6:	4c2d      	ldr	r4, [pc, #180]	; (12ac <_init_Teensyduino_internal_+0xc8>)
C:\toolchain\Teensyduino\current_fork\cores\teensy3/pins_teensy.c:538
    11f8:	4a2d      	ldr	r2, [pc, #180]	; (12b0 <_init_Teensyduino_internal_+0xcc>)
C:\toolchain\Teensyduino\current_fork\cores\teensy3/pins_teensy.c:541
    11fa:	4f2e      	ldr	r7, [pc, #184]	; (12b4 <_init_Teensyduino_internal_+0xd0>)
C:\toolchain\Teensyduino\current_fork\cores\teensy3/pins_teensy.c:523
    11fc:	f44f 0000 	mov.w	r0, #8388608	; 0x800000
    1200:	6018      	str	r0, [r3, #0]
C:\toolchain\Teensyduino\current_fork\cores\teensy3/pins_teensy.c:524
    1202:	f04f 7080 	mov.w	r0, #16777216	; 0x1000000
    1206:	6018      	str	r0, [r3, #0]
C:\toolchain\Teensyduino\current_fork\cores\teensy3/pins_teensy.c:525
    1208:	f04f 7000 	mov.w	r0, #33554432	; 0x2000000
    120c:	6018      	str	r0, [r3, #0]
C:\toolchain\Teensyduino\current_fork\cores\teensy3/pins_teensy.c:526
    120e:	f04f 6080 	mov.w	r0, #67108864	; 0x4000000
    1212:	6018      	str	r0, [r3, #0]
C:\toolchain\Teensyduino\current_fork\cores\teensy3/pins_teensy.c:527
    1214:	f04f 6000 	mov.w	r0, #134217728	; 0x8000000
    1218:	6018      	str	r0, [r3, #0]
C:\toolchain\Teensyduino\current_fork\cores\teensy3/pins_teensy.c:534
    121a:	2000      	movs	r0, #0
    121c:	6008      	str	r0, [r1, #0]
C:\toolchain\Teensyduino\current_fork\cores\teensy3/pins_teensy.c:536
    121e:	2328      	movs	r3, #40	; 0x28
C:\toolchain\Teensyduino\current_fork\cores\teensy3/pins_teensy.c:535
    1220:	f64b 71ff 	movw	r1, #49151	; 0xbfff
    1224:	f8cc 1000 	str.w	r1, [ip]
C:\toolchain\Teensyduino\current_fork\cores\teensy3/pins_teensy.c:536
    1228:	f8ce 3000 	str.w	r3, [lr]
C:\toolchain\Teensyduino\current_fork\cores\teensy3/pins_teensy.c:537
    122c:	6033      	str	r3, [r6, #0]
C:\toolchain\Teensyduino\current_fork\cores\teensy3/pins_teensy.c:538
    122e:	6013      	str	r3, [r2, #0]
C:\toolchain\Teensyduino\current_fork\cores\teensy3/pins_teensy.c:539
    1230:	602b      	str	r3, [r5, #0]
C:\toolchain\Teensyduino\current_fork\cores\teensy3/pins_teensy.c:540
    1232:	6023      	str	r3, [r4, #0]
C:\toolchain\Teensyduino\current_fork\cores\teensy3/pins_teensy.c:541
    1234:	603b      	str	r3, [r7, #0]
C:\toolchain\Teensyduino\current_fork\cores\teensy3/pins_teensy.c:543
    1236:	62b3      	str	r3, [r6, #40]	; 0x28
C:\toolchain\Teensyduino\current_fork\cores\teensy3/pins_teensy.c:544
    1238:	6293      	str	r3, [r2, #40]	; 0x28
C:\toolchain\Teensyduino\current_fork\cores\teensy3/pins_teensy.c:556
    123a:	2209      	movs	r2, #9
    123c:	f845 2c24 	str.w	r2, [r5, #-36]
C:\toolchain\Teensyduino\current_fork\cores\teensy3/pins_teensy.c:557
    1240:	f8c4 0fd8 	str.w	r0, [r4, #4056]	; 0xfd8
C:\toolchain\Teensyduino\current_fork\cores\teensy3/pins_teensy.c:560
    1244:	f505 657f 	add.w	r5, r5, #4080	; 0xff0
C:\toolchain\Teensyduino\current_fork\cores\teensy3/pins_teensy.c:558
    1248:	f8c7 1fd4 	str.w	r1, [r7, #4052]	; 0xfd4
C:\toolchain\Teensyduino\current_fork\cores\teensy3/pins_teensy.c:563
    124c:	f507 27ff 	add.w	r7, r7, #522240	; 0x7f800
    1250:	f507 67fa 	add.w	r7, r7, #2000	; 0x7d0
C:\toolchain\Teensyduino\current_fork\cores\teensy3/pins_teensy.c:559
    1254:	f8c6 3ff8 	str.w	r3, [r6, #4088]	; 0xff8
C:\toolchain\Teensyduino\current_fork\cores\teensy3/pins_teensy.c:560
    1258:	602b      	str	r3, [r5, #0]
C:\toolchain\Teensyduino\current_fork\cores\teensy3/pins_teensy.c:564
    125a:	f506 26ff 	add.w	r6, r6, #522240	; 0x7f800
C:\toolchain\Teensyduino\current_fork\cores\teensy3/pins_teensy.c:561
    125e:	f8c4 2fd4 	str.w	r2, [r4, #4052]	; 0xfd4
C:\toolchain\Teensyduino\current_fork\cores\teensy3/pins_teensy.c:565
    1262:	f505 25fd 	add.w	r5, r5, #518144	; 0x7e800
C:\toolchain\Teensyduino\current_fork\cores\teensy3/pins_teensy.c:566
    1266:	f504 24ff 	add.w	r4, r4, #522240	; 0x7f800
C:\toolchain\Teensyduino\current_fork\cores\teensy3/pins_teensy.c:563
    126a:	6038      	str	r0, [r7, #0]
C:\toolchain\Teensyduino\current_fork\cores\teensy3/pins_teensy.c:564
    126c:	f206 76f4 	addw	r6, r6, #2036	; 0x7f4
C:\toolchain\Teensyduino\current_fork\cores\teensy3/pins_teensy.c:567
    1270:	4811      	ldr	r0, [pc, #68]	; (12b8 <_init_Teensyduino_internal_+0xd4>)
C:\toolchain\Teensyduino\current_fork\cores\teensy3/pins_teensy.c:564
    1272:	6031      	str	r1, [r6, #0]
C:\toolchain\Teensyduino\current_fork\cores\teensy3/pins_teensy.c:565
    1274:	f505 65ff 	add.w	r5, r5, #2040	; 0x7f8
C:\toolchain\Teensyduino\current_fork\cores\teensy3/pins_teensy.c:566
    1278:	f504 64fd 	add.w	r4, r4, #2024	; 0x7e8
C:\toolchain\Teensyduino\current_fork\cores\teensy3/pins_teensy.c:565
    127c:	602b      	str	r3, [r5, #0]
C:\toolchain\Teensyduino\current_fork\cores\teensy3/pins_teensy.c:566
    127e:	6023      	str	r3, [r4, #0]
C:\toolchain\Teensyduino\current_fork\cores\teensy3/pins_teensy.c:567
    1280:	6002      	str	r2, [r0, #0]
C:\toolchain\Teensyduino\current_fork\cores\teensy3/pins_teensy.c:585
    1282:	f000 ffdf 	bl	2244 <analog_init>
C:\toolchain\Teensyduino\current_fork\cores\teensy3/pins_teensy.c:607
    1286:	2019      	movs	r0, #25
    1288:	f7ff ff5e 	bl	1148 <delay>
C:\toolchain\Teensyduino\current_fork\cores\teensy3/pins_teensy.c:608
    128c:	f000 fe26 	bl	1edc <usb_init>
C:\toolchain\Teensyduino\current_fork\cores\teensy3/pins_teensy.c:609
    1290:	f240 1013 	movw	r0, #275	; 0x113
C:\toolchain\Teensyduino\current_fork\cores\teensy3/pins_teensy.c:610
    1294:	e8bd 40f8 	ldmia.w	sp!, {r3, r4, r5, r6, r7, lr}
C:\toolchain\Teensyduino\current_fork\cores\teensy3/pins_teensy.c:609
    1298:	f7ff bf56 	b.w	1148 <delay>
    129c:	e000e108 	.word	0xe000e108
    12a0:	40038004 	.word	0x40038004
    12a4:	40038014 	.word	0x40038014
    12a8:	40038024 	.word	0x40038024
    12ac:	4003802c 	.word	0x4003802c
    12b0:	4003801c 	.word	0x4003801c
    12b4:	40038034 	.word	0x40038034
    12b8:	400b8000 	.word	0x400b8000
    12bc:	4003800c 	.word	0x4003800c
    12c0:	40038008 	.word	0x40038008

000012c4 <usb_rx_memory>:
usb_rx_memory():
C:\toolchain\Teensyduino\current_fork\cores\teensy3/usb_dev.c:784
    12c4:	b430      	push	{r4, r5}
C:\toolchain\Teensyduino\current_fork\cores\teensy3/usb_dev.c:790
    12c6:	b672      	cpsid	i
C:\toolchain\Teensyduino\current_fork\cores\teensy3/usb_dev.c:795
    12c8:	4a2b      	ldr	r2, [pc, #172]	; (1378 <usb_rx_memory+0xb4>)
    12ca:	7813      	ldrb	r3, [r2, #0]
    12cc:	071d      	lsls	r5, r3, #28
    12ce:	d506      	bpl.n	12de <usb_rx_memory+0x1a>
C:\toolchain\Teensyduino\current_fork\cores\teensy3/usb_dev.c:796
    12d0:	4b2a      	ldr	r3, [pc, #168]	; (137c <usb_rx_memory+0xb8>)
    12d2:	6a19      	ldr	r1, [r3, #32]
    12d4:	2900      	cmp	r1, #0
    12d6:	d036      	beq.n	1346 <usb_rx_memory+0x82>
C:\toolchain\Teensyduino\current_fork\cores\teensy3/usb_dev.c:805
    12d8:	6a99      	ldr	r1, [r3, #40]	; 0x28
    12da:	2900      	cmp	r1, #0
    12dc:	d041      	beq.n	1362 <usb_rx_memory+0x9e>
C:\toolchain\Teensyduino\current_fork\cores\teensy3/usb_dev.c:795
    12de:	7853      	ldrb	r3, [r2, #1]
    12e0:	071c      	lsls	r4, r3, #28
    12e2:	d506      	bpl.n	12f2 <usb_rx_memory+0x2e>
C:\toolchain\Teensyduino\current_fork\cores\teensy3/usb_dev.c:796
    12e4:	4b25      	ldr	r3, [pc, #148]	; (137c <usb_rx_memory+0xb8>)
    12e6:	6c19      	ldr	r1, [r3, #64]	; 0x40
    12e8:	2900      	cmp	r1, #0
    12ea:	d03e      	beq.n	136a <usb_rx_memory+0xa6>
C:\toolchain\Teensyduino\current_fork\cores\teensy3/usb_dev.c:805
    12ec:	6c99      	ldr	r1, [r3, #72]	; 0x48
    12ee:	2900      	cmp	r1, #0
    12f0:	d039      	beq.n	1366 <usb_rx_memory+0xa2>
C:\toolchain\Teensyduino\current_fork\cores\teensy3/usb_dev.c:795
    12f2:	7893      	ldrb	r3, [r2, #2]
    12f4:	0719      	lsls	r1, r3, #28
    12f6:	d505      	bpl.n	1304 <usb_rx_memory+0x40>
C:\toolchain\Teensyduino\current_fork\cores\teensy3/usb_dev.c:796
    12f8:	4b20      	ldr	r3, [pc, #128]	; (137c <usb_rx_memory+0xb8>)
    12fa:	6e19      	ldr	r1, [r3, #96]	; 0x60
    12fc:	2900      	cmp	r1, #0
    12fe:	d036      	beq.n	136e <usb_rx_memory+0xaa>
C:\toolchain\Teensyduino\current_fork\cores\teensy3/usb_dev.c:805
    1300:	6e99      	ldr	r1, [r3, #104]	; 0x68
    1302:	b189      	cbz	r1, 1328 <usb_rx_memory+0x64>
C:\toolchain\Teensyduino\current_fork\cores\teensy3/usb_dev.c:795
    1304:	78d3      	ldrb	r3, [r2, #3]
    1306:	071b      	lsls	r3, r3, #28
    1308:	d507      	bpl.n	131a <usb_rx_memory+0x56>
C:\toolchain\Teensyduino\current_fork\cores\teensy3/usb_dev.c:796
    130a:	4b1c      	ldr	r3, [pc, #112]	; (137c <usb_rx_memory+0xb8>)
    130c:	f8d3 2080 	ldr.w	r2, [r3, #128]	; 0x80
    1310:	b37a      	cbz	r2, 1372 <usb_rx_memory+0xae>
C:\toolchain\Teensyduino\current_fork\cores\teensy3/usb_dev.c:805
    1312:	f8d3 2088 	ldr.w	r2, [r3, #136]	; 0x88
    1316:	2111      	movs	r1, #17
    1318:	b13a      	cbz	r2, 132a <usb_rx_memory+0x66>
C:\toolchain\Teensyduino\current_fork\cores\teensy3/usb_dev.c:816 (discriminator 2)
    131a:	b662      	cpsie	i
C:\toolchain\Teensyduino\current_fork\cores\teensy3/usb_dev.c:820 (discriminator 2)
    131c:	4b18      	ldr	r3, [pc, #96]	; (1380 <usb_rx_memory+0xbc>)
    131e:	2200      	movs	r2, #0
    1320:	701a      	strb	r2, [r3, #0]
C:\toolchain\Teensyduino\current_fork\cores\teensy3/usb_dev.c:823 (discriminator 2)
    1322:	bc30      	pop	{r4, r5}
C:\toolchain\Teensyduino\current_fork\cores\teensy3/usb_dev.c:821 (discriminator 2)
    1324:	f001 b886 	b.w	2434 <usb_free>
C:\toolchain\Teensyduino\current_fork\cores\teensy3/usb_dev.c:805
    1328:	210d      	movs	r1, #13
C:\toolchain\Teensyduino\current_fork\cores\teensy3/usb_dev.c:808
    132a:	4c15      	ldr	r4, [pc, #84]	; (1380 <usb_rx_memory+0xbc>)
C:\toolchain\Teensyduino\current_fork\cores\teensy3/usb_dev.c:807
    132c:	4d15      	ldr	r5, [pc, #84]	; (1384 <usb_rx_memory+0xc0>)
C:\toolchain\Teensyduino\current_fork\cores\teensy3/usb_dev.c:808
    132e:	7822      	ldrb	r2, [r4, #0]
C:\toolchain\Teensyduino\current_fork\cores\teensy3/usb_dev.c:807
    1330:	f843 5031 	str.w	r5, [r3, r1, lsl #3]
C:\toolchain\Teensyduino\current_fork\cores\teensy3/usb_dev.c:806
    1334:	eb03 03c1 	add.w	r3, r3, r1, lsl #3
    1338:	3008      	adds	r0, #8
C:\toolchain\Teensyduino\current_fork\cores\teensy3/usb_dev.c:808
    133a:	3a01      	subs	r2, #1
C:\toolchain\Teensyduino\current_fork\cores\teensy3/usb_dev.c:806
    133c:	6058      	str	r0, [r3, #4]
C:\toolchain\Teensyduino\current_fork\cores\teensy3/usb_dev.c:808
    133e:	7022      	strb	r2, [r4, #0]
C:\toolchain\Teensyduino\current_fork\cores\teensy3/usb_dev.c:809
    1340:	b662      	cpsie	i
C:\toolchain\Teensyduino\current_fork\cores\teensy3/usb_dev.c:823
    1342:	bc30      	pop	{r4, r5}
    1344:	4770      	bx	lr
C:\toolchain\Teensyduino\current_fork\cores\teensy3/usb_dev.c:796
    1346:	2204      	movs	r2, #4
C:\toolchain\Teensyduino\current_fork\cores\teensy3/usb_dev.c:799
    1348:	4c0d      	ldr	r4, [pc, #52]	; (1380 <usb_rx_memory+0xbc>)
C:\toolchain\Teensyduino\current_fork\cores\teensy3/usb_dev.c:798
    134a:	4d0f      	ldr	r5, [pc, #60]	; (1388 <usb_rx_memory+0xc4>)
C:\toolchain\Teensyduino\current_fork\cores\teensy3/usb_dev.c:799
    134c:	7821      	ldrb	r1, [r4, #0]
C:\toolchain\Teensyduino\current_fork\cores\teensy3/usb_dev.c:798
    134e:	f843 5032 	str.w	r5, [r3, r2, lsl #3]
C:\toolchain\Teensyduino\current_fork\cores\teensy3/usb_dev.c:797
    1352:	eb03 03c2 	add.w	r3, r3, r2, lsl #3
    1356:	3008      	adds	r0, #8
C:\toolchain\Teensyduino\current_fork\cores\teensy3/usb_dev.c:799
    1358:	1e4a      	subs	r2, r1, #1
C:\toolchain\Teensyduino\current_fork\cores\teensy3/usb_dev.c:797
    135a:	6058      	str	r0, [r3, #4]
C:\toolchain\Teensyduino\current_fork\cores\teensy3/usb_dev.c:799
    135c:	7022      	strb	r2, [r4, #0]
C:\toolchain\Teensyduino\current_fork\cores\teensy3/usb_dev.c:800
    135e:	b662      	cpsie	i
C:\toolchain\Teensyduino\current_fork\cores\teensy3/usb_dev.c:803
    1360:	e7ef      	b.n	1342 <usb_rx_memory+0x7e>
C:\toolchain\Teensyduino\current_fork\cores\teensy3/usb_dev.c:805
    1362:	2105      	movs	r1, #5
    1364:	e7e1      	b.n	132a <usb_rx_memory+0x66>
    1366:	2109      	movs	r1, #9
    1368:	e7df      	b.n	132a <usb_rx_memory+0x66>
C:\toolchain\Teensyduino\current_fork\cores\teensy3/usb_dev.c:796
    136a:	2208      	movs	r2, #8
    136c:	e7ec      	b.n	1348 <usb_rx_memory+0x84>
    136e:	220c      	movs	r2, #12
    1370:	e7ea      	b.n	1348 <usb_rx_memory+0x84>
    1372:	2210      	movs	r2, #16
    1374:	e7e8      	b.n	1348 <usb_rx_memory+0x84>
    1376:	bf00      	nop
    1378:	000035b0 	.word	0x000035b0
    137c:	1fff8000 	.word	0x1fff8000
    1380:	1fff93cd 	.word	0x1fff93cd
    1384:	004000c8 	.word	0x004000c8
    1388:	00400088 	.word	0x00400088

0000138c <usb_tx>:
usb_tx():
C:\toolchain\Teensyduino\current_fork\cores\teensy3/usb_dev.c:833
    138c:	1e43      	subs	r3, r0, #1
C:\toolchain\Teensyduino\current_fork\cores\teensy3/usb_dev.c:834
    138e:	2b03      	cmp	r3, #3
    1390:	d81d      	bhi.n	13ce <usb_tx+0x42>
C:\toolchain\Teensyduino\current_fork\cores\teensy3/usb_dev.c:830
    1392:	4a1b      	ldr	r2, [pc, #108]	; (1400 <usb_tx+0x74>)
    1394:	0140      	lsls	r0, r0, #5
    1396:	f040 0010 	orr.w	r0, r0, #16
C:\toolchain\Teensyduino\current_fork\cores\teensy3/usb_dev.c:829
    139a:	b430      	push	{r4, r5}
C:\toolchain\Teensyduino\current_fork\cores\teensy3/usb_dev.c:830
    139c:	4410      	add	r0, r2
C:\toolchain\Teensyduino\current_fork\cores\teensy3/usb_dev.c:835
    139e:	b672      	cpsid	i
C:\toolchain\Teensyduino\current_fork\cores\teensy3/usb_dev.c:839
    13a0:	4c18      	ldr	r4, [pc, #96]	; (1404 <usb_tx+0x78>)
    13a2:	5ce2      	ldrb	r2, [r4, r3]
    13a4:	2a03      	cmp	r2, #3
    13a6:	d81b      	bhi.n	13e0 <usb_tx+0x54>
    13a8:	e8df f002 	tbb	[pc, r2]
    13ac:	17151202 	.word	0x17151202
C:\toolchain\Teensyduino\current_fork\cores\teensy3/usb_dev.c:841
    13b0:	2203      	movs	r2, #3
C:\toolchain\Teensyduino\current_fork\cores\teensy3/usb_dev.c:866
    13b2:	880d      	ldrh	r5, [r1, #0]
C:\toolchain\Teensyduino\current_fork\cores\teensy3/usb_dev.c:864
    13b4:	54e2      	strb	r2, [r4, r3]
C:\toolchain\Teensyduino\current_fork\cores\teensy3/usb_dev.c:866
    13b6:	f010 0f08 	tst.w	r0, #8
    13ba:	bf14      	ite	ne
    13bc:	23c8      	movne	r3, #200	; 0xc8
    13be:	2388      	moveq	r3, #136	; 0x88
    13c0:	ea43 4305 	orr.w	r3, r3, r5, lsl #16
C:\toolchain\Teensyduino\current_fork\cores\teensy3/usb_dev.c:865
    13c4:	3108      	adds	r1, #8
C:\toolchain\Teensyduino\current_fork\cores\teensy3/usb_dev.c:866
    13c6:	6003      	str	r3, [r0, #0]
C:\toolchain\Teensyduino\current_fork\cores\teensy3/usb_dev.c:865
    13c8:	6041      	str	r1, [r0, #4]
C:\toolchain\Teensyduino\current_fork\cores\teensy3/usb_dev.c:867
    13ca:	b662      	cpsie	i
C:\toolchain\Teensyduino\current_fork\cores\teensy3/usb_dev.c:868
    13cc:	bc30      	pop	{r4, r5}
    13ce:	4770      	bx	lr
C:\toolchain\Teensyduino\current_fork\cores\teensy3/usb_dev.c:844
    13d0:	3008      	adds	r0, #8
C:\toolchain\Teensyduino\current_fork\cores\teensy3/usb_dev.c:845
    13d2:	2202      	movs	r2, #2
C:\toolchain\Teensyduino\current_fork\cores\teensy3/usb_dev.c:846
    13d4:	e7ed      	b.n	13b2 <usb_tx+0x26>
C:\toolchain\Teensyduino\current_fork\cores\teensy3/usb_dev.c:848
    13d6:	2205      	movs	r2, #5
    13d8:	e7eb      	b.n	13b2 <usb_tx+0x26>
C:\toolchain\Teensyduino\current_fork\cores\teensy3/usb_dev.c:851
    13da:	3008      	adds	r0, #8
C:\toolchain\Teensyduino\current_fork\cores\teensy3/usb_dev.c:852
    13dc:	2204      	movs	r2, #4
C:\toolchain\Teensyduino\current_fork\cores\teensy3/usb_dev.c:853
    13de:	e7e8      	b.n	13b2 <usb_tx+0x26>
C:\toolchain\Teensyduino\current_fork\cores\teensy3/usb_dev.c:855
    13e0:	4a09      	ldr	r2, [pc, #36]	; (1408 <usb_tx+0x7c>)
    13e2:	f852 0023 	ldr.w	r0, [r2, r3, lsl #2]
    13e6:	b138      	cbz	r0, 13f8 <usb_tx+0x6c>
C:\toolchain\Teensyduino\current_fork\cores\teensy3/usb_dev.c:858
    13e8:	4a08      	ldr	r2, [pc, #32]	; (140c <usb_tx+0x80>)
    13ea:	f852 0023 	ldr.w	r0, [r2, r3, lsl #2]
    13ee:	6041      	str	r1, [r0, #4]
C:\toolchain\Teensyduino\current_fork\cores\teensy3/usb_dev.c:860
    13f0:	f842 1023 	str.w	r1, [r2, r3, lsl #2]
C:\toolchain\Teensyduino\current_fork\cores\teensy3/usb_dev.c:861
    13f4:	b662      	cpsie	i
C:\toolchain\Teensyduino\current_fork\cores\teensy3/usb_dev.c:862
    13f6:	e7e9      	b.n	13cc <usb_tx+0x40>
C:\toolchain\Teensyduino\current_fork\cores\teensy3/usb_dev.c:856
    13f8:	f842 1023 	str.w	r1, [r2, r3, lsl #2]
    13fc:	4a03      	ldr	r2, [pc, #12]	; (140c <usb_tx+0x80>)
    13fe:	e7f7      	b.n	13f0 <usb_tx+0x64>
    1400:	1fff8000 	.word	0x1fff8000
    1404:	1fff93dc 	.word	0x1fff93dc
    1408:	1fff93a4 	.word	0x1fff93a4
    140c:	1fff93b4 	.word	0x1fff93b4

00001410 <usb_isr>:
usb_isr():
C:\toolchain\Teensyduino\current_fork\cores\teensy3/usb_dev.c:904
    1410:	e92d 4ff0 	stmdb	sp!, {r4, r5, r6, r7, r8, r9, sl, fp, lr}
C:\toolchain\Teensyduino\current_fork\cores\teensy3/usb_dev.c:912
    1414:	f8df b318 	ldr.w	fp, [pc, #792]	; 1730 <usb_isr+0x320>
C:\toolchain\Teensyduino\current_fork\cores\teensy3/usb_dev.c:964
    1418:	f8df a318 	ldr.w	sl, [pc, #792]	; 1734 <usb_isr+0x324>
C:\toolchain\Teensyduino\current_fork\cores\teensy3/usb_dev.c:904
    141c:	b087      	sub	sp, #28
    141e:	e044      	b.n	14aa <usb_isr+0x9a>
C:\toolchain\Teensyduino\current_fork\cores\teensy3/usb_dev.c:973
    1420:	4fae      	ldr	r7, [pc, #696]	; (16dc <usb_isr+0x2cc>)
    1422:	ea4f 0893 	mov.w	r8, r3, lsr #2
    1426:	eb07 09c8 	add.w	r9, r7, r8, lsl #3
C:\toolchain\Teensyduino\current_fork\cores\teensy3/usb_dev.c:985
    142a:	3e01      	subs	r6, #1
C:\toolchain\Teensyduino\current_fork\cores\teensy3/usb_dev.c:974
    142c:	f8d9 2004 	ldr.w	r2, [r9, #4]
C:\toolchain\Teensyduino\current_fork\cores\teensy3/usb_dev.c:1008
    1430:	f003 0308 	and.w	r3, r3, #8
C:\toolchain\Teensyduino\current_fork\cores\teensy3/usb_dev.c:985
    1434:	b2f6      	uxtb	r6, r6
C:\toolchain\Teensyduino\current_fork\cores\teensy3/usb_dev.c:974
    1436:	f1a2 0008 	sub.w	r0, r2, #8
C:\toolchain\Teensyduino\current_fork\cores\teensy3/usb_dev.c:1008
    143a:	f003 04ff 	and.w	r4, r3, #255	; 0xff
    143e:	2b00      	cmp	r3, #0
    1440:	f040 8104 	bne.w	164c <usb_isr+0x23c>
C:\toolchain\Teensyduino\current_fork\cores\teensy3/usb_dev.c:1052
    1444:	f857 3038 	ldr.w	r3, [r7, r8, lsl #3]
    1448:	0c1b      	lsrs	r3, r3, #16
    144a:	b299      	uxth	r1, r3
    144c:	f822 1c08 	strh.w	r1, [r2, #-8]
C:\toolchain\Teensyduino\current_fork\cores\teensy3/usb_dev.c:1053
    1450:	2b00      	cmp	r3, #0
    1452:	f000 80f2 	beq.w	163a <usb_isr+0x22a>
C:\toolchain\Teensyduino\current_fork\cores\teensy3/usb_dev.c:1056
    1456:	4ba2      	ldr	r3, [pc, #648]	; (16e0 <usb_isr+0x2d0>)
C:\toolchain\Teensyduino\current_fork\cores\teensy3/usb_dev.c:1054
    1458:	f822 4c06 	strh.w	r4, [r2, #-6]
C:\toolchain\Teensyduino\current_fork\cores\teensy3/usb_dev.c:1055
    145c:	f842 4c04 	str.w	r4, [r2, #-4]
C:\toolchain\Teensyduino\current_fork\cores\teensy3/usb_dev.c:1056
    1460:	f853 2026 	ldr.w	r2, [r3, r6, lsl #2]
    1464:	2a00      	cmp	r2, #0
    1466:	f000 816e 	beq.w	1746 <usb_isr+0x336>
C:\toolchain\Teensyduino\current_fork\cores\teensy3/usb_dev.c:1069
    146a:	4d9e      	ldr	r5, [pc, #632]	; (16e4 <usb_isr+0x2d4>)
    146c:	f855 3026 	ldr.w	r3, [r5, r6, lsl #2]
    1470:	6058      	str	r0, [r3, #4]
C:\toolchain\Teensyduino\current_fork\cores\teensy3/usb_dev.c:1072
    1472:	4c9d      	ldr	r4, [pc, #628]	; (16e8 <usb_isr+0x2d8>)
C:\toolchain\Teensyduino\current_fork\cores\teensy3/usb_dev.c:1071
    1474:	f845 0026 	str.w	r0, [r5, r6, lsl #2]
C:\toolchain\Teensyduino\current_fork\cores\teensy3/usb_dev.c:1072
    1478:	f834 3016 	ldrh.w	r3, [r4, r6, lsl #1]
    147c:	4419      	add	r1, r3
    147e:	f824 1016 	strh.w	r1, [r4, r6, lsl #1]
C:\toolchain\Teensyduino\current_fork\cores\teensy3/usb_dev.c:1077
    1482:	f000 ffb7 	bl	23f4 <usb_malloc>
C:\toolchain\Teensyduino\current_fork\cores\teensy3/usb_dev.c:1078
    1486:	2800      	cmp	r0, #0
    1488:	f000 8156 	beq.w	1738 <usb_isr+0x328>
C:\toolchain\Teensyduino\current_fork\cores\teensy3/usb_dev.c:1080
    148c:	4a97      	ldr	r2, [pc, #604]	; (16ec <usb_isr+0x2dc>)
    148e:	4b98      	ldr	r3, [pc, #608]	; (16f0 <usb_isr+0x2e0>)
    1490:	f019 0f08 	tst.w	r9, #8
C:\toolchain\Teensyduino\current_fork\cores\teensy3/usb_dev.c:1079
    1494:	f100 0008 	add.w	r0, r0, #8
C:\toolchain\Teensyduino\current_fork\cores\teensy3/usb_dev.c:1080
    1498:	bf18      	it	ne
    149a:	4613      	movne	r3, r2
C:\toolchain\Teensyduino\current_fork\cores\teensy3/usb_dev.c:1079
    149c:	f8c9 0004 	str.w	r0, [r9, #4]
C:\toolchain\Teensyduino\current_fork\cores\teensy3/usb_dev.c:1080
    14a0:	f847 3038 	str.w	r3, [r7, r8, lsl #3]
C:\toolchain\Teensyduino\current_fork\cores\teensy3/usb_dev.c:1094
    14a4:	2308      	movs	r3, #8
    14a6:	f88b 3000 	strb.w	r3, [fp]
C:\toolchain\Teensyduino\current_fork\cores\teensy3/usb_dev.c:912
    14aa:	f89b 4000 	ldrb.w	r4, [fp]
    14ae:	b2e4      	uxtb	r4, r4
C:\toolchain\Teensyduino\current_fork\cores\teensy3/usb_dev.c:914
    14b0:	0761      	lsls	r1, r4, #29
    14b2:	d51b      	bpl.n	14ec <usb_isr+0xdc>
C:\toolchain\Teensyduino\current_fork\cores\teensy3/usb_dev.c:915
    14b4:	4b8f      	ldr	r3, [pc, #572]	; (16f4 <usb_isr+0x2e4>)
    14b6:	781b      	ldrb	r3, [r3, #0]
    14b8:	b1ab      	cbz	r3, 14e6 <usb_isr+0xd6>
C:\toolchain\Teensyduino\current_fork\cores\teensy3/usb_dev.c:916
    14ba:	498f      	ldr	r1, [pc, #572]	; (16f8 <usb_isr+0x2e8>)
    14bc:	780a      	ldrb	r2, [r1, #0]
C:\toolchain\Teensyduino\current_fork\cores\teensy3/usb_dev.c:917
    14be:	f002 03ff 	and.w	r3, r2, #255	; 0xff
    14c2:	b12a      	cbz	r2, 14d0 <usb_isr+0xc0>
C:\toolchain\Teensyduino\current_fork\cores\teensy3/usb_dev.c:918
    14c4:	3b01      	subs	r3, #1
    14c6:	b2db      	uxtb	r3, r3
    14c8:	700b      	strb	r3, [r1, #0]
C:\toolchain\Teensyduino\current_fork\cores\teensy3/usb_dev.c:919
    14ca:	2b00      	cmp	r3, #0
    14cc:	f000 84ef 	beq.w	1eae <usb_isr+0xa9e>
C:\toolchain\Teensyduino\current_fork\cores\teensy3/usb_dev.c:922
    14d0:	498a      	ldr	r1, [pc, #552]	; (16fc <usb_isr+0x2ec>)
    14d2:	780a      	ldrb	r2, [r1, #0]
C:\toolchain\Teensyduino\current_fork\cores\teensy3/usb_dev.c:923
    14d4:	f002 03ff 	and.w	r3, r2, #255	; 0xff
    14d8:	b12a      	cbz	r2, 14e6 <usb_isr+0xd6>
C:\toolchain\Teensyduino\current_fork\cores\teensy3/usb_dev.c:924
    14da:	3b01      	subs	r3, #1
    14dc:	b2db      	uxtb	r3, r3
    14de:	700b      	strb	r3, [r1, #0]
C:\toolchain\Teensyduino\current_fork\cores\teensy3/usb_dev.c:925
    14e0:	2b00      	cmp	r3, #0
    14e2:	f000 80f7 	beq.w	16d4 <usb_isr+0x2c4>
C:\toolchain\Teensyduino\current_fork\cores\teensy3/usb_dev.c:959
    14e6:	2304      	movs	r3, #4
    14e8:	f88b 3000 	strb.w	r3, [fp]
C:\toolchain\Teensyduino\current_fork\cores\teensy3/usb_dev.c:962
    14ec:	f004 0308 	and.w	r3, r4, #8
    14f0:	f003 02ff 	and.w	r2, r3, #255	; 0xff
    14f4:	2b00      	cmp	r3, #0
    14f6:	f000 80d6 	beq.w	16a6 <usb_isr+0x296>
C:\toolchain\Teensyduino\current_fork\cores\teensy3/usb_dev.c:964
    14fa:	f89a 3000 	ldrb.w	r3, [sl]
    14fe:	b2db      	uxtb	r3, r3
C:\toolchain\Teensyduino\current_fork\cores\teensy3/usb_dev.c:970
    1500:	091e      	lsrs	r6, r3, #4
    1502:	d18d      	bne.n	1420 <usb_isr+0x10>
usb_control():
C:\toolchain\Teensyduino\current_fork\cores\teensy3/usb_dev.c:556
    1504:	089c      	lsrs	r4, r3, #2
    1506:	f8df 91d4 	ldr.w	r9, [pc, #468]	; 16dc <usb_isr+0x2cc>
C:\toolchain\Teensyduino\current_fork\cores\teensy3/usb_dev.c:566
    150a:	f859 2034 	ldr.w	r2, [r9, r4, lsl #3]
C:\toolchain\Teensyduino\current_fork\cores\teensy3/usb_dev.c:556
    150e:	eb09 01c4 	add.w	r1, r9, r4, lsl #3
C:\toolchain\Teensyduino\current_fork\cores\teensy3/usb_dev.c:566
    1512:	f3c2 0283 	ubfx	r2, r2, #2, #4
    1516:	3a01      	subs	r2, #1
C:\toolchain\Teensyduino\current_fork\cores\teensy3/usb_dev.c:559
    1518:	6849      	ldr	r1, [r1, #4]
C:\toolchain\Teensyduino\current_fork\cores\teensy3/usb_dev.c:566
    151a:	2a0c      	cmp	r2, #12
    151c:	d87e      	bhi.n	161c <usb_isr+0x20c>
    151e:	e8df f002 	tbb	[pc, r2]
    1522:	8181      	.short	0x8181
    1524:	7d7d7d7d 	.word	0x7d7d7d7d
    1528:	7d477d7d 	.word	0x7d477d7d
    152c:	7d7d      	.short	0x7d7d
    152e:	07          	.byte	0x07
    152f:	00          	.byte	0x00
C:\toolchain\Teensyduino\current_fork\cores\teensy3/usb_dev.c:571
    1530:	6808      	ldr	r0, [r1, #0]
    1532:	4d73      	ldr	r5, [pc, #460]	; (1700 <usb_isr+0x2f0>)
C:\toolchain\Teensyduino\current_fork\cores\teensy3/usb_dev.c:572
    1534:	684a      	ldr	r2, [r1, #4]
C:\toolchain\Teensyduino\current_fork\cores\teensy3/usb_dev.c:580
    1536:	4f73      	ldr	r7, [pc, #460]	; (1704 <usb_isr+0x2f4>)
C:\toolchain\Teensyduino\current_fork\cores\teensy3/usb_dev.c:592
    1538:	4e73      	ldr	r6, [pc, #460]	; (1708 <usb_isr+0x2f8>)
C:\toolchain\Teensyduino\current_fork\cores\teensy3/usb_dev.c:571
    153a:	6028      	str	r0, [r5, #0]
usb_setup():
C:\toolchain\Teensyduino\current_fork\cores\teensy3/usb_dev.c:184
    153c:	b281      	uxth	r1, r0
    153e:	f240 6081 	movw	r0, #1665	; 0x681
usb_control():
C:\toolchain\Teensyduino\current_fork\cores\teensy3/usb_dev.c:575
    1542:	4b6a      	ldr	r3, [pc, #424]	; (16ec <usb_isr+0x2dc>)
C:\toolchain\Teensyduino\current_fork\cores\teensy3/usb_dev.c:572
    1544:	606a      	str	r2, [r5, #4]
C:\toolchain\Teensyduino\current_fork\cores\teensy3/usb_dev.c:592
    1546:	f04f 0e01 	mov.w	lr, #1
C:\toolchain\Teensyduino\current_fork\cores\teensy3/usb_dev.c:580
    154a:	2200      	movs	r2, #0
usb_setup():
C:\toolchain\Teensyduino\current_fork\cores\teensy3/usb_dev.c:184
    154c:	4281      	cmp	r1, r0
usb_control():
C:\toolchain\Teensyduino\current_fork\cores\teensy3/usb_dev.c:575
    154e:	f849 3034 	str.w	r3, [r9, r4, lsl #3]
C:\toolchain\Teensyduino\current_fork\cores\teensy3/usb_dev.c:580
    1552:	603a      	str	r2, [r7, #0]
C:\toolchain\Teensyduino\current_fork\cores\teensy3/usb_dev.c:589
    1554:	f8c9 2010 	str.w	r2, [r9, #16]
C:\toolchain\Teensyduino\current_fork\cores\teensy3/usb_dev.c:590
    1558:	f8c9 2018 	str.w	r2, [r9, #24]
C:\toolchain\Teensyduino\current_fork\cores\teensy3/usb_dev.c:592
    155c:	f886 e000 	strb.w	lr, [r6]
C:\toolchain\Teensyduino\current_fork\cores\teensy3/usb_dev.c:589
    1560:	4c5e      	ldr	r4, [pc, #376]	; (16dc <usb_isr+0x2cc>)
usb_setup():
C:\toolchain\Teensyduino\current_fork\cores\teensy3/usb_dev.c:184
    1562:	f200 80f4 	bhi.w	174e <usb_isr+0x33e>
    1566:	f5b1 6fd0 	cmp.w	r1, #1664	; 0x680
    156a:	f080 8378 	bcs.w	1c5e <usb_isr+0x84e>
    156e:	f5b1 7f81 	cmp.w	r1, #258	; 0x102
    1572:	f000 8362 	beq.w	1c3a <usb_isr+0x82a>
    1576:	f200 8287 	bhi.w	1a88 <usb_isr+0x678>
    157a:	2980      	cmp	r1, #128	; 0x80
    157c:	f000 82ec 	beq.w	1b58 <usb_isr+0x748>
    1580:	2982      	cmp	r1, #130	; 0x82
    1582:	f040 831e 	bne.w	1bc2 <usb_isr+0x7b2>
    1586:	88a9      	ldrh	r1, [r5, #4]
    1588:	f001 017f 	and.w	r1, r1, #127	; 0x7f
C:\toolchain\Teensyduino\current_fork\cores\teensy3/usb_dev.c:286
    158c:	2904      	cmp	r1, #4
    158e:	f200 8318 	bhi.w	1bc2 <usb_isr+0x7b2>
C:\toolchain\Teensyduino\current_fork\cores\teensy3/usb_dev.c:293
    1592:	485e      	ldr	r0, [pc, #376]	; (170c <usb_isr+0x2fc>)
C:\toolchain\Teensyduino\current_fork\cores\teensy3/usb_dev.c:291
    1594:	4c5e      	ldr	r4, [pc, #376]	; (1710 <usb_isr+0x300>)
C:\toolchain\Teensyduino\current_fork\cores\teensy3/usb_dev.c:293
    1596:	0089      	lsls	r1, r1, #2
    1598:	4408      	add	r0, r1
C:\toolchain\Teensyduino\current_fork\cores\teensy3/usb_dev.c:291
    159a:	7022      	strb	r2, [r4, #0]
C:\toolchain\Teensyduino\current_fork\cores\teensy3/usb_dev.c:292
    159c:	7062      	strb	r2, [r4, #1]
C:\toolchain\Teensyduino\current_fork\cores\teensy3/usb_dev.c:293
    159e:	7802      	ldrb	r2, [r0, #0]
    15a0:	0793      	lsls	r3, r2, #30
    15a2:	f140 8379 	bpl.w	1c98 <usb_isr+0x888>
    15a6:	f884 e000 	strb.w	lr, [r4]
C:\toolchain\Teensyduino\current_fork\cores\teensy3/usb_dev.c:295
    15aa:	f04f 0e02 	mov.w	lr, #2
    15ae:	e2d8      	b.n	1b62 <usb_isr+0x752>
usb_control():
C:\toolchain\Teensyduino\current_fork\cores\teensy3/usb_dev.c:676
    15b0:	4f54      	ldr	r7, [pc, #336]	; (1704 <usb_isr+0x2f4>)
    15b2:	683a      	ldr	r2, [r7, #0]
C:\toolchain\Teensyduino\current_fork\cores\teensy3/usb_dev.c:677
    15b4:	b342      	cbz	r2, 1608 <usb_isr+0x1f8>
C:\toolchain\Teensyduino\current_fork\cores\teensy3/usb_dev.c:678
    15b6:	4b57      	ldr	r3, [pc, #348]	; (1714 <usb_isr+0x304>)
endpoint0_transmit():
C:\toolchain\Teensyduino\current_fork\cores\teensy3/usb_dev.c:166
    15b8:	4e53      	ldr	r6, [pc, #332]	; (1708 <usb_isr+0x2f8>)
C:\toolchain\Teensyduino\current_fork\cores\teensy3/usb_dev.c:165
    15ba:	4957      	ldr	r1, [pc, #348]	; (1718 <usb_isr+0x308>)
usb_control():
C:\toolchain\Teensyduino\current_fork\cores\teensy3/usb_dev.c:678
    15bc:	8818      	ldrh	r0, [r3, #0]
endpoint0_transmit():
C:\toolchain\Teensyduino\current_fork\cores\teensy3/usb_dev.c:166
    15be:	7834      	ldrb	r4, [r6, #0]
C:\toolchain\Teensyduino\current_fork\cores\teensy3/usb_dev.c:165
    15c0:	780d      	ldrb	r5, [r1, #0]
    15c2:	2840      	cmp	r0, #64	; 0x40
    15c4:	4686      	mov	lr, r0
    15c6:	f045 0802 	orr.w	r8, r5, #2
    15ca:	bf28      	it	cs
    15cc:	f04f 0e40 	movcs.w	lr, #64	; 0x40
C:\toolchain\Teensyduino\current_fork\cores\teensy3/usb_dev.c:166
    15d0:	2c00      	cmp	r4, #0
C:\toolchain\Teensyduino\current_fork\cores\teensy3/usb_dev.c:167
    15d2:	f084 0401 	eor.w	r4, r4, #1
    15d6:	7034      	strb	r4, [r6, #0]
usb_control():
C:\toolchain\Teensyduino\current_fork\cores\teensy3/usb_dev.c:682
    15d8:	ebce 0000 	rsb	r0, lr, r0
endpoint0_transmit():
C:\toolchain\Teensyduino\current_fork\cores\teensy3/usb_dev.c:166
    15dc:	bf0c      	ite	eq
    15de:	2488      	moveq	r4, #136	; 0x88
    15e0:	24c8      	movne	r4, #200	; 0xc8
C:\toolchain\Teensyduino\current_fork\cores\teensy3/usb_dev.c:165
    15e2:	eb09 06c8 	add.w	r6, r9, r8, lsl #3
usb_control():
C:\toolchain\Teensyduino\current_fork\cores\teensy3/usb_dev.c:682
    15e6:	b280      	uxth	r0, r0
endpoint0_transmit():
C:\toolchain\Teensyduino\current_fork\cores\teensy3/usb_dev.c:168
    15e8:	f085 0501 	eor.w	r5, r5, #1
C:\toolchain\Teensyduino\current_fork\cores\teensy3/usb_dev.c:166
    15ec:	ea44 440e 	orr.w	r4, r4, lr, lsl #16
C:\toolchain\Teensyduino\current_fork\cores\teensy3/usb_dev.c:165
    15f0:	6072      	str	r2, [r6, #4]
usb_control():
C:\toolchain\Teensyduino\current_fork\cores\teensy3/usb_dev.c:682
    15f2:	8018      	strh	r0, [r3, #0]
endpoint0_transmit():
C:\toolchain\Teensyduino\current_fork\cores\teensy3/usb_dev.c:166
    15f4:	f849 4038 	str.w	r4, [r9, r8, lsl #3]
usb_control():
C:\toolchain\Teensyduino\current_fork\cores\teensy3/usb_dev.c:681
    15f8:	4472      	add	r2, lr
endpoint0_transmit():
C:\toolchain\Teensyduino\current_fork\cores\teensy3/usb_dev.c:168
    15fa:	700d      	strb	r5, [r1, #0]
usb_control():
C:\toolchain\Teensyduino\current_fork\cores\teensy3/usb_dev.c:683
    15fc:	b918      	cbnz	r0, 1606 <usb_isr+0x1f6>
    15fe:	f1be 0f40 	cmp.w	lr, #64	; 0x40
    1602:	bf18      	it	ne
    1604:	2200      	movne	r2, #0
    1606:	603a      	str	r2, [r7, #0]
C:\toolchain\Teensyduino\current_fork\cores\teensy3/usb_dev.c:686
    1608:	4b3d      	ldr	r3, [pc, #244]	; (1700 <usb_isr+0x2f0>)
    160a:	881a      	ldrh	r2, [r3, #0]
    160c:	f5b2 6fa0 	cmp.w	r2, #1280	; 0x500
    1610:	d104      	bne.n	161c <usb_isr+0x20c>
C:\toolchain\Teensyduino\current_fork\cores\teensy3/usb_dev.c:687
    1612:	2100      	movs	r1, #0
C:\toolchain\Teensyduino\current_fork\cores\teensy3/usb_dev.c:691
    1614:	789a      	ldrb	r2, [r3, #2]
C:\toolchain\Teensyduino\current_fork\cores\teensy3/usb_dev.c:687
    1616:	7059      	strb	r1, [r3, #1]
C:\toolchain\Teensyduino\current_fork\cores\teensy3/usb_dev.c:691
    1618:	4b40      	ldr	r3, [pc, #256]	; (171c <usb_isr+0x30c>)
    161a:	701a      	strb	r2, [r3, #0]
C:\toolchain\Teensyduino\current_fork\cores\teensy3/usb_dev.c:700
    161c:	4a40      	ldr	r2, [pc, #256]	; (1720 <usb_isr+0x310>)
    161e:	2301      	movs	r3, #1
    1620:	7013      	strb	r3, [r2, #0]
    1622:	e73f      	b.n	14a4 <usb_isr+0x94>
C:\toolchain\Teensyduino\current_fork\cores\teensy3/usb_dev.c:615
    1624:	4a36      	ldr	r2, [pc, #216]	; (1700 <usb_isr+0x2f0>)
    1626:	8815      	ldrh	r5, [r2, #0]
    1628:	f242 0021 	movw	r0, #8225	; 0x2021
    162c:	4285      	cmp	r5, r0
    162e:	f000 81ff 	beq.w	1a30 <usb_isr+0x620>
C:\toolchain\Teensyduino\current_fork\cores\teensy3/usb_dev.c:667
    1632:	4a2e      	ldr	r2, [pc, #184]	; (16ec <usb_isr+0x2dc>)
    1634:	f849 2034 	str.w	r2, [r9, r4, lsl #3]
    1638:	e7f0      	b.n	161c <usb_isr+0x20c>
usb_isr():
C:\toolchain\Teensyduino\current_fork\cores\teensy3/usb_dev.c:1089
    163a:	4a2c      	ldr	r2, [pc, #176]	; (16ec <usb_isr+0x2dc>)
    163c:	4b2c      	ldr	r3, [pc, #176]	; (16f0 <usb_isr+0x2e0>)
    163e:	f019 0f08 	tst.w	r9, #8
    1642:	bf18      	it	ne
    1644:	4613      	movne	r3, r2
    1646:	f847 3038 	str.w	r3, [r7, r8, lsl #3]
    164a:	e72b      	b.n	14a4 <usb_isr+0x94>
C:\toolchain\Teensyduino\current_fork\cores\teensy3/usb_dev.c:1009
    164c:	f000 fef2 	bl	2434 <usb_free>
C:\toolchain\Teensyduino\current_fork\cores\teensy3/usb_dev.c:1010
    1650:	4a34      	ldr	r2, [pc, #208]	; (1724 <usb_isr+0x314>)
C:\toolchain\Teensyduino\current_fork\cores\teensy3/usb_dev.c:1015
    1652:	4935      	ldr	r1, [pc, #212]	; (1728 <usb_isr+0x318>)
C:\toolchain\Teensyduino\current_fork\cores\teensy3/usb_dev.c:1010
    1654:	f852 3026 	ldr.w	r3, [r2, r6, lsl #2]
C:\toolchain\Teensyduino\current_fork\cores\teensy3/usb_dev.c:1011
    1658:	2b00      	cmp	r3, #0
    165a:	f000 81b6 	beq.w	19ca <usb_isr+0x5ba>
C:\toolchain\Teensyduino\current_fork\cores\teensy3/usb_dev.c:1013
    165e:	6858      	ldr	r0, [r3, #4]
C:\toolchain\Teensyduino\current_fork\cores\teensy3/usb_dev.c:1015
    1660:	5d8c      	ldrb	r4, [r1, r6]
C:\toolchain\Teensyduino\current_fork\cores\teensy3/usb_dev.c:1013
    1662:	f842 0026 	str.w	r0, [r2, r6, lsl #2]
C:\toolchain\Teensyduino\current_fork\cores\teensy3/usb_dev.c:1014
    1666:	f103 0208 	add.w	r2, r3, #8
    166a:	f8c9 2004 	str.w	r2, [r9, #4]
C:\toolchain\Teensyduino\current_fork\cores\teensy3/usb_dev.c:1015
    166e:	2c03      	cmp	r4, #3
    1670:	d805      	bhi.n	167e <usb_isr+0x26e>
    1672:	e8df f004 	tbb	[pc, r4]
    1676:	0f12      	.short	0x0f12
    1678:	0215      	.short	0x0215
C:\toolchain\Teensyduino\current_fork\cores\teensy3/usb_dev.c:1026
    167a:	2204      	movs	r2, #4
    167c:	558a      	strb	r2, [r1, r6]
C:\toolchain\Teensyduino\current_fork\cores\teensy3/usb_dev.c:1031
    167e:	881a      	ldrh	r2, [r3, #0]
    1680:	f019 0f08 	tst.w	r9, #8
    1684:	bf0c      	ite	eq
    1686:	2388      	moveq	r3, #136	; 0x88
    1688:	23c8      	movne	r3, #200	; 0xc8
    168a:	ea43 4302 	orr.w	r3, r3, r2, lsl #16
    168e:	f847 3038 	str.w	r3, [r7, r8, lsl #3]
    1692:	e707      	b.n	14a4 <usb_isr+0x94>
C:\toolchain\Teensyduino\current_fork\cores\teensy3/usb_dev.c:1020
    1694:	2202      	movs	r2, #2
    1696:	558a      	strb	r2, [r1, r6]
C:\toolchain\Teensyduino\current_fork\cores\teensy3/usb_dev.c:1021
    1698:	e7f1      	b.n	167e <usb_isr+0x26e>
C:\toolchain\Teensyduino\current_fork\cores\teensy3/usb_dev.c:1017
    169a:	2203      	movs	r2, #3
    169c:	558a      	strb	r2, [r1, r6]
C:\toolchain\Teensyduino\current_fork\cores\teensy3/usb_dev.c:1018
    169e:	e7ee      	b.n	167e <usb_isr+0x26e>
C:\toolchain\Teensyduino\current_fork\cores\teensy3/usb_dev.c:1023
    16a0:	2205      	movs	r2, #5
    16a2:	558a      	strb	r2, [r1, r6]
C:\toolchain\Teensyduino\current_fork\cores\teensy3/usb_dev.c:1024
    16a4:	e7eb      	b.n	167e <usb_isr+0x26e>
C:\toolchain\Teensyduino\current_fork\cores\teensy3/usb_dev.c:1100
    16a6:	07e0      	lsls	r0, r4, #31
    16a8:	f100 821a 	bmi.w	1ae0 <usb_isr+0x6d0>
C:\toolchain\Teensyduino\current_fork\cores\teensy3/usb_dev.c:1140
    16ac:	0621      	lsls	r1, r4, #24
    16ae:	f100 8249 	bmi.w	1b44 <usb_isr+0x734>
C:\toolchain\Teensyduino\current_fork\cores\teensy3/usb_dev.c:1145
    16b2:	07a2      	lsls	r2, r4, #30
    16b4:	d506      	bpl.n	16c4 <usb_isr+0x2b4>
C:\toolchain\Teensyduino\current_fork\cores\teensy3/usb_dev.c:1146
    16b6:	4a1d      	ldr	r2, [pc, #116]	; (172c <usb_isr+0x31c>)
C:\toolchain\Teensyduino\current_fork\cores\teensy3/usb_dev.c:1151
    16b8:	491d      	ldr	r1, [pc, #116]	; (1730 <usb_isr+0x320>)
C:\toolchain\Teensyduino\current_fork\cores\teensy3/usb_dev.c:1146
    16ba:	7813      	ldrb	r3, [r2, #0]
C:\toolchain\Teensyduino\current_fork\cores\teensy3/usb_dev.c:1151
    16bc:	2002      	movs	r0, #2
C:\toolchain\Teensyduino\current_fork\cores\teensy3/usb_dev.c:1146
    16be:	b2db      	uxtb	r3, r3
C:\toolchain\Teensyduino\current_fork\cores\teensy3/usb_dev.c:1147
    16c0:	7013      	strb	r3, [r2, #0]
C:\toolchain\Teensyduino\current_fork\cores\teensy3/usb_dev.c:1151
    16c2:	7008      	strb	r0, [r1, #0]
C:\toolchain\Teensyduino\current_fork\cores\teensy3/usb_dev.c:1154
    16c4:	06e3      	lsls	r3, r4, #27
    16c6:	d502      	bpl.n	16ce <usb_isr+0x2be>
C:\toolchain\Teensyduino\current_fork\cores\teensy3/usb_dev.c:1156
    16c8:	4b19      	ldr	r3, [pc, #100]	; (1730 <usb_isr+0x320>)
    16ca:	2210      	movs	r2, #16
    16cc:	701a      	strb	r2, [r3, #0]
C:\toolchain\Teensyduino\current_fork\cores\teensy3/usb_dev.c:1159
    16ce:	b007      	add	sp, #28
    16d0:	e8bd 8ff0 	ldmia.w	sp!, {r4, r5, r6, r7, r8, r9, sl, fp, pc}
C:\toolchain\Teensyduino\current_fork\cores\teensy3/usb_dev.c:925 (discriminator 1)
    16d4:	f000 fd92 	bl	21fc <usb_serial_flush_callback>
    16d8:	e705      	b.n	14e6 <usb_isr+0xd6>
    16da:	bf00      	nop
    16dc:	1fff8000 	.word	0x1fff8000
    16e0:	1fff9350 	.word	0x1fff9350
    16e4:	1fff92fc 	.word	0x1fff92fc
    16e8:	1fff9448 	.word	0x1fff9448
    16ec:	004000c8 	.word	0x004000c8
    16f0:	00400088 	.word	0x00400088
    16f4:	1fff93d8 	.word	0x1fff93d8
    16f8:	1fff9361 	.word	0x1fff9361
    16fc:	1fff9405 	.word	0x1fff9405
    1700:	1fff93c4 	.word	0x1fff93c4
    1704:	1fff92f8 	.word	0x1fff92f8
    1708:	1fff9360 	.word	0x1fff9360
    170c:	400720c0 	.word	0x400720c0
    1710:	1fff93d0 	.word	0x1fff93d0
    1714:	1fff930c 	.word	0x1fff930c
    1718:	1fff93cc 	.word	0x1fff93cc
    171c:	40072098 	.word	0x40072098
    1720:	40072094 	.word	0x40072094
    1724:	1fff93a4 	.word	0x1fff93a4
    1728:	1fff93dc 	.word	0x1fff93dc
    172c:	40072088 	.word	0x40072088
    1730:	40072080 	.word	0x40072080
    1734:	40072090 	.word	0x40072090
C:\toolchain\Teensyduino\current_fork\cores\teensy3/usb_dev.c:1086
    1738:	4aab      	ldr	r2, [pc, #684]	; (19e8 <usb_isr+0x5d8>)
C:\toolchain\Teensyduino\current_fork\cores\teensy3/usb_dev.c:1085
    173a:	f847 0038 	str.w	r0, [r7, r8, lsl #3]
C:\toolchain\Teensyduino\current_fork\cores\teensy3/usb_dev.c:1086
    173e:	7813      	ldrb	r3, [r2, #0]
    1740:	3301      	adds	r3, #1
    1742:	7013      	strb	r3, [r2, #0]
    1744:	e6ae      	b.n	14a4 <usb_isr+0x94>
C:\toolchain\Teensyduino\current_fork\cores\teensy3/usb_dev.c:1062
    1746:	f843 0026 	str.w	r0, [r3, r6, lsl #2]
    174a:	4da8      	ldr	r5, [pc, #672]	; (19ec <usb_isr+0x5dc>)
    174c:	e691      	b.n	1472 <usb_isr+0x62>
usb_setup():
C:\toolchain\Teensyduino\current_fork\cores\teensy3/usb_dev.c:184
    174e:	f242 0021 	movw	r0, #8225	; 0x2021
    1752:	4281      	cmp	r1, r0
    1754:	f000 8135 	beq.w	19c2 <usb_isr+0x5b2>
    1758:	f200 81af 	bhi.w	1aba <usb_isr+0x6aa>
    175c:	f5b1 6f08 	cmp.w	r1, #2176	; 0x880
    1760:	f000 821b 	beq.w	1b9a <usb_isr+0x78a>
    1764:	f5b1 6f10 	cmp.w	r1, #2304	; 0x900
    1768:	f040 822b 	bne.w	1bc2 <usb_isr+0x7b2>
C:\toolchain\Teensyduino\current_fork\cores\teensy3/usb_dev.c:194
    176c:	6a22      	ldr	r2, [r4, #32]
C:\toolchain\Teensyduino\current_fork\cores\teensy3/usb_dev.c:189
    176e:	49a0      	ldr	r1, [pc, #640]	; (19f0 <usb_isr+0x5e0>)
    1770:	78a8      	ldrb	r0, [r5, #2]
    1772:	7008      	strb	r0, [r1, #0]
C:\toolchain\Teensyduino\current_fork\cores\teensy3/usb_dev.c:194
    1774:	0612      	lsls	r2, r2, #24
    1776:	f100 8345 	bmi.w	1e04 <usb_isr+0x9f4>
    177a:	f8d9 2028 	ldr.w	r2, [r9, #40]	; 0x28
    177e:	499d      	ldr	r1, [pc, #628]	; (19f4 <usb_isr+0x5e4>)
    1780:	0613      	lsls	r3, r2, #24
    1782:	f100 833a 	bmi.w	1dfa <usb_isr+0x9ea>
    1786:	f8d9 2030 	ldr.w	r2, [r9, #48]	; 0x30
    178a:	499a      	ldr	r1, [pc, #616]	; (19f4 <usb_isr+0x5e4>)
    178c:	0615      	lsls	r5, r2, #24
    178e:	f100 832f 	bmi.w	1df0 <usb_isr+0x9e0>
    1792:	f8d9 2038 	ldr.w	r2, [r9, #56]	; 0x38
    1796:	4997      	ldr	r1, [pc, #604]	; (19f4 <usb_isr+0x5e4>)
    1798:	0614      	lsls	r4, r2, #24
    179a:	f100 8324 	bmi.w	1de6 <usb_isr+0x9d6>
    179e:	f8d9 2040 	ldr.w	r2, [r9, #64]	; 0x40
    17a2:	4994      	ldr	r1, [pc, #592]	; (19f4 <usb_isr+0x5e4>)
    17a4:	0610      	lsls	r0, r2, #24
    17a6:	f100 8319 	bmi.w	1ddc <usb_isr+0x9cc>
    17aa:	f8d9 2048 	ldr.w	r2, [r9, #72]	; 0x48
    17ae:	4991      	ldr	r1, [pc, #580]	; (19f4 <usb_isr+0x5e4>)
    17b0:	0612      	lsls	r2, r2, #24
    17b2:	f100 830e 	bmi.w	1dd2 <usb_isr+0x9c2>
    17b6:	f8d9 2050 	ldr.w	r2, [r9, #80]	; 0x50
    17ba:	498e      	ldr	r1, [pc, #568]	; (19f4 <usb_isr+0x5e4>)
    17bc:	0613      	lsls	r3, r2, #24
    17be:	f100 8303 	bmi.w	1dc8 <usb_isr+0x9b8>
    17c2:	f8d9 2058 	ldr.w	r2, [r9, #88]	; 0x58
    17c6:	498b      	ldr	r1, [pc, #556]	; (19f4 <usb_isr+0x5e4>)
    17c8:	0615      	lsls	r5, r2, #24
    17ca:	f100 82f8 	bmi.w	1dbe <usb_isr+0x9ae>
    17ce:	f8d9 2060 	ldr.w	r2, [r9, #96]	; 0x60
    17d2:	4988      	ldr	r1, [pc, #544]	; (19f4 <usb_isr+0x5e4>)
    17d4:	0614      	lsls	r4, r2, #24
    17d6:	f100 8329 	bmi.w	1e2c <usb_isr+0xa1c>
    17da:	f8d9 2068 	ldr.w	r2, [r9, #104]	; 0x68
    17de:	4985      	ldr	r1, [pc, #532]	; (19f4 <usb_isr+0x5e4>)
    17e0:	0610      	lsls	r0, r2, #24
    17e2:	f100 831e 	bmi.w	1e22 <usb_isr+0xa12>
    17e6:	f8d9 2070 	ldr.w	r2, [r9, #112]	; 0x70
    17ea:	4982      	ldr	r1, [pc, #520]	; (19f4 <usb_isr+0x5e4>)
    17ec:	0612      	lsls	r2, r2, #24
    17ee:	f100 8313 	bmi.w	1e18 <usb_isr+0xa08>
    17f2:	f8d9 2078 	ldr.w	r2, [r9, #120]	; 0x78
    17f6:	497f      	ldr	r1, [pc, #508]	; (19f4 <usb_isr+0x5e4>)
    17f8:	0613      	lsls	r3, r2, #24
    17fa:	f100 8308 	bmi.w	1e0e <usb_isr+0x9fe>
    17fe:	f8d9 2080 	ldr.w	r2, [r9, #128]	; 0x80
    1802:	497c      	ldr	r1, [pc, #496]	; (19f4 <usb_isr+0x5e4>)
    1804:	0615      	lsls	r5, r2, #24
    1806:	f100 831c 	bmi.w	1e42 <usb_isr+0xa32>
    180a:	f8d9 2088 	ldr.w	r2, [r9, #136]	; 0x88
    180e:	4979      	ldr	r1, [pc, #484]	; (19f4 <usb_isr+0x5e4>)
    1810:	0614      	lsls	r4, r2, #24
    1812:	f100 8310 	bmi.w	1e36 <usb_isr+0xa26>
    1816:	f8d9 2090 	ldr.w	r2, [r9, #144]	; 0x90
    181a:	4976      	ldr	r1, [pc, #472]	; (19f4 <usb_isr+0x5e4>)
    181c:	0610      	lsls	r0, r2, #24
    181e:	f100 82c8 	bmi.w	1db2 <usb_isr+0x9a2>
    1822:	f8d9 2098 	ldr.w	r2, [r9, #152]	; 0x98
    1826:	4973      	ldr	r1, [pc, #460]	; (19f4 <usb_isr+0x5e4>)
    1828:	0612      	lsls	r2, r2, #24
    182a:	f100 82bc 	bmi.w	1da6 <usb_isr+0x996>
    182e:	4872      	ldr	r0, [pc, #456]	; (19f8 <usb_isr+0x5e8>)
    1830:	4a72      	ldr	r2, [pc, #456]	; (19fc <usb_isr+0x5ec>)
    1832:	4973      	ldr	r1, [pc, #460]	; (1a00 <usb_isr+0x5f0>)
    1834:	9001      	str	r0, [sp, #4]
    1836:	4873      	ldr	r0, [pc, #460]	; (1a04 <usb_isr+0x5f4>)
    1838:	4d6c      	ldr	r5, [pc, #432]	; (19ec <usb_isr+0x5dc>)
    183a:	4c73      	ldr	r4, [pc, #460]	; (1a08 <usb_isr+0x5f8>)
C:\toolchain\Teensyduino\current_fork\cores\teensy3/usb_dev.c:225
    183c:	9704      	str	r7, [sp, #16]
usb_isr():
C:\toolchain\Teensyduino\current_fork\cores\teensy3/usb_dev.c:904
    183e:	2300      	movs	r3, #0
usb_setup():
C:\toolchain\Teensyduino\current_fork\cores\teensy3/usb_dev.c:225
    1840:	9605      	str	r6, [sp, #20]
    1842:	9502      	str	r5, [sp, #8]
    1844:	4680      	mov	r8, r0
    1846:	4617      	mov	r7, r2
    1848:	460e      	mov	r6, r1
    184a:	461d      	mov	r5, r3
    184c:	9403      	str	r4, [sp, #12]
C:\toolchain\Teensyduino\current_fork\cores\teensy3/usb_dev.c:201
    184e:	6838      	ldr	r0, [r7, #0]
C:\toolchain\Teensyduino\current_fork\cores\teensy3/usb_dev.c:202
    1850:	b128      	cbz	r0, 185e <usb_isr+0x44e>
C:\toolchain\Teensyduino\current_fork\cores\teensy3/usb_dev.c:203
    1852:	6844      	ldr	r4, [r0, #4]
C:\toolchain\Teensyduino\current_fork\cores\teensy3/usb_dev.c:204
    1854:	f000 fdee 	bl	2434 <usb_free>
C:\toolchain\Teensyduino\current_fork\cores\teensy3/usb_dev.c:202
    1858:	4620      	mov	r0, r4
    185a:	2c00      	cmp	r4, #0
    185c:	d1f9      	bne.n	1852 <usb_isr+0x442>
C:\toolchain\Teensyduino\current_fork\cores\teensy3/usb_dev.c:207
    185e:	2300      	movs	r3, #0
    1860:	603b      	str	r3, [r7, #0]
C:\toolchain\Teensyduino\current_fork\cores\teensy3/usb_dev.c:208
    1862:	9b02      	ldr	r3, [sp, #8]
C:\toolchain\Teensyduino\current_fork\cores\teensy3/usb_dev.c:209
    1864:	6830      	ldr	r0, [r6, #0]
C:\toolchain\Teensyduino\current_fork\cores\teensy3/usb_dev.c:208
    1866:	461a      	mov	r2, r3
    1868:	2300      	movs	r3, #0
    186a:	f842 3025 	str.w	r3, [r2, r5, lsl #2]
C:\toolchain\Teensyduino\current_fork\cores\teensy3/usb_dev.c:210
    186e:	b128      	cbz	r0, 187c <usb_isr+0x46c>
C:\toolchain\Teensyduino\current_fork\cores\teensy3/usb_dev.c:211
    1870:	6844      	ldr	r4, [r0, #4]
C:\toolchain\Teensyduino\current_fork\cores\teensy3/usb_dev.c:212
    1872:	f000 fddf 	bl	2434 <usb_free>
C:\toolchain\Teensyduino\current_fork\cores\teensy3/usb_dev.c:210
    1876:	4620      	mov	r0, r4
    1878:	2c00      	cmp	r4, #0
    187a:	d1f9      	bne.n	1870 <usb_isr+0x460>
C:\toolchain\Teensyduino\current_fork\cores\teensy3/usb_dev.c:215
    187c:	2200      	movs	r2, #0
    187e:	6032      	str	r2, [r6, #0]
C:\toolchain\Teensyduino\current_fork\cores\teensy3/usb_dev.c:216
    1880:	9a01      	ldr	r2, [sp, #4]
C:\toolchain\Teensyduino\current_fork\cores\teensy3/usb_dev.c:218
    1882:	f898 3000 	ldrb.w	r3, [r8]
C:\toolchain\Teensyduino\current_fork\cores\teensy3/usb_dev.c:216
    1886:	4611      	mov	r1, r2
    1888:	2200      	movs	r2, #0
    188a:	f841 2b04 	str.w	r2, [r1], #4
C:\toolchain\Teensyduino\current_fork\cores\teensy3/usb_dev.c:217
    188e:	9a03      	ldr	r2, [sp, #12]
C:\toolchain\Teensyduino\current_fork\cores\teensy3/usb_dev.c:216
    1890:	9101      	str	r1, [sp, #4]
C:\toolchain\Teensyduino\current_fork\cores\teensy3/usb_dev.c:218
    1892:	3b02      	subs	r3, #2
C:\toolchain\Teensyduino\current_fork\cores\teensy3/usb_dev.c:217
    1894:	f04f 0100 	mov.w	r1, #0
    1898:	f822 1015 	strh.w	r1, [r2, r5, lsl #1]
C:\toolchain\Teensyduino\current_fork\cores\teensy3/usb_dev.c:218
    189c:	2b03      	cmp	r3, #3
    189e:	d809      	bhi.n	18b4 <usb_isr+0x4a4>
    18a0:	e8df f013 	tbh	[pc, r3, lsl #1]
    18a4:	0004014b 	.word	0x0004014b
    18a8:	0004014b 	.word	0x0004014b
C:\toolchain\Teensyduino\current_fork\cores\teensy3/usb_dev.c:225
    18ac:	f04f 0301 	mov.w	r3, #1
    18b0:	f888 3000 	strb.w	r3, [r8]
C:\toolchain\Teensyduino\current_fork\cores\teensy3/usb_dev.c:199
    18b4:	3501      	adds	r5, #1
    18b6:	2d04      	cmp	r5, #4
    18b8:	f107 0704 	add.w	r7, r7, #4
    18bc:	f106 0604 	add.w	r6, r6, #4
    18c0:	f108 0801 	add.w	r8, r8, #1
    18c4:	d1c3      	bne.n	184e <usb_isr+0x43e>
C:\toolchain\Teensyduino\current_fork\cores\teensy3/usb_dev.c:233
    18c6:	4c51      	ldr	r4, [pc, #324]	; (1a0c <usb_isr+0x5fc>)
C:\toolchain\Teensyduino\current_fork\cores\teensy3/usb_dev.c:234
    18c8:	4b51      	ldr	r3, [pc, #324]	; (1a10 <usb_isr+0x600>)
C:\toolchain\Teensyduino\current_fork\cores\teensy3/usb_dev.c:233
    18ca:	7822      	ldrb	r2, [r4, #0]
C:\toolchain\Teensyduino\current_fork\cores\teensy3/usb_dev.c:231
    18cc:	4d46      	ldr	r5, [pc, #280]	; (19e8 <usb_isr+0x5d8>)
    18ce:	9f04      	ldr	r7, [sp, #16]
    18d0:	9e05      	ldr	r6, [sp, #20]
    18d2:	2100      	movs	r1, #0
    18d4:	7029      	strb	r1, [r5, #0]
C:\toolchain\Teensyduino\current_fork\cores\teensy3/usb_dev.c:234
    18d6:	701a      	strb	r2, [r3, #0]
C:\toolchain\Teensyduino\current_fork\cores\teensy3/usb_dev.c:244
    18d8:	0713      	lsls	r3, r2, #28
    18da:	f100 824f 	bmi.w	1d7c <usb_isr+0x96c>
C:\toolchain\Teensyduino\current_fork\cores\teensy3/usb_dev.c:233
    18de:	7862      	ldrb	r2, [r4, #1]
C:\toolchain\Teensyduino\current_fork\cores\teensy3/usb_dev.c:234
    18e0:	494c      	ldr	r1, [pc, #304]	; (1a14 <usb_isr+0x604>)
C:\toolchain\Teensyduino\current_fork\cores\teensy3/usb_dev.c:263
    18e2:	f8df 8110 	ldr.w	r8, [pc, #272]	; 19f4 <usb_isr+0x5e4>
C:\toolchain\Teensyduino\current_fork\cores\teensy3/usb_dev.c:234
    18e6:	700a      	strb	r2, [r1, #0]
C:\toolchain\Teensyduino\current_fork\cores\teensy3/usb_dev.c:244
    18e8:	0710      	lsls	r0, r2, #28
C:\toolchain\Teensyduino\current_fork\cores\teensy3/usb_dev.c:263
    18ea:	f04f 0100 	mov.w	r1, #0
    18ee:	f8c9 1030 	str.w	r1, [r9, #48]	; 0x30
C:\toolchain\Teensyduino\current_fork\cores\teensy3/usb_dev.c:264
    18f2:	f8c9 1038 	str.w	r1, [r9, #56]	; 0x38
C:\toolchain\Teensyduino\current_fork\cores\teensy3/usb_dev.c:244
    18f6:	f100 822b 	bmi.w	1d50 <usb_isr+0x940>
C:\toolchain\Teensyduino\current_fork\cores\teensy3/usb_dev.c:234
    18fa:	4947      	ldr	r1, [pc, #284]	; (1a18 <usb_isr+0x608>)
C:\toolchain\Teensyduino\current_fork\cores\teensy3/usb_dev.c:233
    18fc:	78a2      	ldrb	r2, [r4, #2]
C:\toolchain\Teensyduino\current_fork\cores\teensy3/usb_dev.c:234
    18fe:	700a      	strb	r2, [r1, #0]
C:\toolchain\Teensyduino\current_fork\cores\teensy3/usb_dev.c:263
    1900:	2100      	movs	r1, #0
    1902:	f8c9 1050 	str.w	r1, [r9, #80]	; 0x50
C:\toolchain\Teensyduino\current_fork\cores\teensy3/usb_dev.c:264
    1906:	f8c9 1058 	str.w	r1, [r9, #88]	; 0x58
C:\toolchain\Teensyduino\current_fork\cores\teensy3/usb_dev.c:244
    190a:	0711      	lsls	r1, r2, #28
C:\toolchain\Teensyduino\current_fork\cores\teensy3/usb_dev.c:263
    190c:	f8df 80e4 	ldr.w	r8, [pc, #228]	; 19f4 <usb_isr+0x5e4>
C:\toolchain\Teensyduino\current_fork\cores\teensy3/usb_dev.c:244
    1910:	f100 81dc 	bmi.w	1ccc <usb_isr+0x8bc>
C:\toolchain\Teensyduino\current_fork\cores\teensy3/usb_dev.c:233
    1914:	78e2      	ldrb	r2, [r4, #3]
C:\toolchain\Teensyduino\current_fork\cores\teensy3/usb_dev.c:234
    1916:	4941      	ldr	r1, [pc, #260]	; (1a1c <usb_isr+0x60c>)
C:\toolchain\Teensyduino\current_fork\cores\teensy3/usb_dev.c:263
    1918:	4c36      	ldr	r4, [pc, #216]	; (19f4 <usb_isr+0x5e4>)
C:\toolchain\Teensyduino\current_fork\cores\teensy3/usb_dev.c:234
    191a:	700a      	strb	r2, [r1, #0]
C:\toolchain\Teensyduino\current_fork\cores\teensy3/usb_dev.c:263
    191c:	2100      	movs	r1, #0
C:\toolchain\Teensyduino\current_fork\cores\teensy3/usb_dev.c:244
    191e:	0712      	lsls	r2, r2, #28
C:\toolchain\Teensyduino\current_fork\cores\teensy3/usb_dev.c:263
    1920:	f8c9 1070 	str.w	r1, [r9, #112]	; 0x70
C:\toolchain\Teensyduino\current_fork\cores\teensy3/usb_dev.c:264
    1924:	f8c9 1078 	str.w	r1, [r9, #120]	; 0x78
C:\toolchain\Teensyduino\current_fork\cores\teensy3/usb_dev.c:244
    1928:	f100 81b9 	bmi.w	1c9e <usb_isr+0x88e>
    192c:	7833      	ldrb	r3, [r6, #0]
    192e:	9301      	str	r3, [sp, #4]
C:\toolchain\Teensyduino\current_fork\cores\teensy3/usb_dev.c:263
    1930:	2100      	movs	r1, #0
    1932:	f083 0201 	eor.w	r2, r3, #1
    1936:	f8c9 1090 	str.w	r1, [r9, #144]	; 0x90
C:\toolchain\Teensyduino\current_fork\cores\teensy3/usb_dev.c:264
    193a:	f8c9 1098 	str.w	r1, [r9, #152]	; 0x98
C:\toolchain\Teensyduino\current_fork\cores\teensy3/usb_dev.c:511
    193e:	2000      	movs	r0, #0
    1940:	9002      	str	r0, [sp, #8]
    1942:	4680      	mov	r8, r0
    1944:	4684      	mov	ip, r0
    1946:	4604      	mov	r4, r0
endpoint0_transmit():
C:\toolchain\Teensyduino\current_fork\cores\teensy3/usb_dev.c:165
    1948:	4935      	ldr	r1, [pc, #212]	; (1a20 <usb_isr+0x610>)
    194a:	780d      	ldrb	r5, [r1, #0]
    194c:	f045 0e02 	orr.w	lr, r5, #2
    1950:	eb09 03ce 	add.w	r3, r9, lr, lsl #3
    1954:	9303      	str	r3, [sp, #12]
C:\toolchain\Teensyduino\current_fork\cores\teensy3/usb_dev.c:166
    1956:	9b01      	ldr	r3, [sp, #4]
    1958:	2b00      	cmp	r3, #0
C:\toolchain\Teensyduino\current_fork\cores\teensy3/usb_dev.c:165
    195a:	9b03      	ldr	r3, [sp, #12]
    195c:	605c      	str	r4, [r3, #4]
C:\toolchain\Teensyduino\current_fork\cores\teensy3/usb_dev.c:166
    195e:	bf0c      	ite	eq
    1960:	2488      	moveq	r4, #136	; 0x88
    1962:	24c8      	movne	r4, #200	; 0xc8
    1964:	ea44 0308 	orr.w	r3, r4, r8
C:\toolchain\Teensyduino\current_fork\cores\teensy3/usb_dev.c:168
    1968:	f085 0401 	eor.w	r4, r5, #1
C:\toolchain\Teensyduino\current_fork\cores\teensy3/usb_dev.c:166
    196c:	f849 303e 	str.w	r3, [r9, lr, lsl #3]
C:\toolchain\Teensyduino\current_fork\cores\teensy3/usb_dev.c:167
    1970:	7032      	strb	r2, [r6, #0]
C:\toolchain\Teensyduino\current_fork\cores\teensy3/usb_dev.c:168
    1972:	700c      	strb	r4, [r1, #0]
C:\toolchain\Teensyduino\current_fork\cores\teensy3/usb_dev.c:166
    1974:	f8df e07c 	ldr.w	lr, [pc, #124]	; 19f4 <usb_isr+0x5e4>
C:\toolchain\Teensyduino\current_fork\cores\teensy3/usb_dev.c:167
    1978:	4b2a      	ldr	r3, [pc, #168]	; (1a24 <usb_isr+0x614>)
C:\toolchain\Teensyduino\current_fork\cores\teensy3/usb_dev.c:168
    197a:	f8df 80a4 	ldr.w	r8, [pc, #164]	; 1a20 <usb_isr+0x610>
usb_setup():
C:\toolchain\Teensyduino\current_fork\cores\teensy3/usb_dev.c:517
    197e:	2800      	cmp	r0, #0
    1980:	f040 8126 	bne.w	1bd0 <usb_isr+0x7c0>
    1984:	f1bc 0f40 	cmp.w	ip, #64	; 0x40
    1988:	d11b      	bne.n	19c2 <usb_isr+0x5b2>
endpoint0_transmit():
C:\toolchain\Teensyduino\current_fork\cores\teensy3/usb_dev.c:165
    198a:	f044 0c02 	orr.w	ip, r4, #2
    198e:	eb09 03cc 	add.w	r3, r9, ip, lsl #3
    1992:	9c02      	ldr	r4, [sp, #8]
    1994:	f8df e05c 	ldr.w	lr, [pc, #92]	; 19f4 <usb_isr+0x5e4>
    1998:	605c      	str	r4, [r3, #4]
C:\toolchain\Teensyduino\current_fork\cores\teensy3/usb_dev.c:166
    199a:	2a00      	cmp	r2, #0
    199c:	f040 812e 	bne.w	1bfc <usb_isr+0x7ec>
    19a0:	0402      	lsls	r2, r0, #16
    19a2:	f042 0288 	orr.w	r2, r2, #136	; 0x88
C:\toolchain\Teensyduino\current_fork\cores\teensy3/usb_dev.c:167
    19a6:	f89d 3004 	ldrb.w	r3, [sp, #4]
C:\toolchain\Teensyduino\current_fork\cores\teensy3/usb_dev.c:166
    19aa:	f84e 203c 	str.w	r2, [lr, ip, lsl #3]
usb_setup():
C:\toolchain\Teensyduino\current_fork\cores\teensy3/usb_dev.c:522
    19ae:	4404      	add	r4, r0
endpoint0_transmit():
C:\toolchain\Teensyduino\current_fork\cores\teensy3/usb_dev.c:167
    19b0:	7033      	strb	r3, [r6, #0]
C:\toolchain\Teensyduino\current_fork\cores\teensy3/usb_dev.c:168
    19b2:	700d      	strb	r5, [r1, #0]
usb_setup():
C:\toolchain\Teensyduino\current_fork\cores\teensy3/usb_dev.c:522
    19b4:	4623      	mov	r3, r4
C:\toolchain\Teensyduino\current_fork\cores\teensy3/usb_dev.c:524
    19b6:	2840      	cmp	r0, #64	; 0x40
    19b8:	d103      	bne.n	19c2 <usb_isr+0x5b2>
    19ba:	2000      	movs	r0, #0
C:\toolchain\Teensyduino\current_fork\cores\teensy3/usb_dev.c:527
    19bc:	4a1a      	ldr	r2, [pc, #104]	; (1a28 <usb_isr+0x618>)
C:\toolchain\Teensyduino\current_fork\cores\teensy3/usb_dev.c:526
    19be:	603b      	str	r3, [r7, #0]
C:\toolchain\Teensyduino\current_fork\cores\teensy3/usb_dev.c:527
    19c0:	8010      	strh	r0, [r2, #0]
usb_control():
C:\toolchain\Teensyduino\current_fork\cores\teensy3/usb_dev.c:610
    19c2:	4a1a      	ldr	r2, [pc, #104]	; (1a2c <usb_isr+0x61c>)
    19c4:	2301      	movs	r3, #1
    19c6:	7013      	strb	r3, [r2, #0]
    19c8:	e628      	b.n	161c <usb_isr+0x20c>
usb_isr():
C:\toolchain\Teensyduino\current_fork\cores\teensy3/usb_dev.c:1035
    19ca:	5d8b      	ldrb	r3, [r1, r6]
    19cc:	2b03      	cmp	r3, #3
    19ce:	f200 812d 	bhi.w	1c2c <usb_isr+0x81c>
    19d2:	a201      	add	r2, pc, #4	; (adr r2, 19d8 <usb_isr+0x5c8>)
    19d4:	f852 f023 	ldr.w	pc, [r2, r3, lsl #2]
    19d8:	000014a5 	.word	0x000014a5
    19dc:	000014a5 	.word	0x000014a5
    19e0:	00001b2f 	.word	0x00001b2f
    19e4:	00001b35 	.word	0x00001b35
    19e8:	1fff93cd 	.word	0x1fff93cd
    19ec:	1fff92fc 	.word	0x1fff92fc
    19f0:	1fff93d8 	.word	0x1fff93d8
    19f4:	1fff8000 	.word	0x1fff8000
    19f8:	1fff93b4 	.word	0x1fff93b4
    19fc:	1fff9350 	.word	0x1fff9350
    1a00:	1fff93a4 	.word	0x1fff93a4
    1a04:	1fff93dc 	.word	0x1fff93dc
    1a08:	1fff9448 	.word	0x1fff9448
    1a0c:	000035b0 	.word	0x000035b0
    1a10:	400720c4 	.word	0x400720c4
    1a14:	400720c8 	.word	0x400720c8
    1a18:	400720cc 	.word	0x400720cc
    1a1c:	400720d0 	.word	0x400720d0
    1a20:	1fff93cc 	.word	0x1fff93cc
    1a24:	1fff9360 	.word	0x1fff9360
    1a28:	1fff930c 	.word	0x1fff930c
    1a2c:	40072094 	.word	0x40072094
usb_control():
C:\toolchain\Teensyduino\current_fork\cores\teensy3/usb_dev.c:618
    1a30:	8892      	ldrh	r2, [r2, #4]
    1a32:	b992      	cbnz	r2, 1a5a <usb_isr+0x64a>
C:\toolchain\Teensyduino\current_fork\cores\teensy3/usb_dev.c:640
    1a34:	4ab1      	ldr	r2, [pc, #708]	; (1cfc <usb_isr+0x8ec>)
    1a36:	780d      	ldrb	r5, [r1, #0]
    1a38:	7848      	ldrb	r0, [r1, #1]
    1a3a:	7015      	strb	r5, [r2, #0]
    1a3c:	7050      	strb	r0, [r2, #1]
    1a3e:	788d      	ldrb	r5, [r1, #2]
    1a40:	78c8      	ldrb	r0, [r1, #3]
    1a42:	7095      	strb	r5, [r2, #2]
    1a44:	70d0      	strb	r0, [r2, #3]
C:\toolchain\Teensyduino\current_fork\cores\teensy3/usb_dev.c:644
    1a46:	6810      	ldr	r0, [r2, #0]
C:\toolchain\Teensyduino\current_fork\cores\teensy3/usb_dev.c:640
    1a48:	790d      	ldrb	r5, [r1, #4]
    1a4a:	7115      	strb	r5, [r2, #4]
C:\toolchain\Teensyduino\current_fork\cores\teensy3/usb_dev.c:644
    1a4c:	2886      	cmp	r0, #134	; 0x86
C:\toolchain\Teensyduino\current_fork\cores\teensy3/usb_dev.c:640
    1a4e:	794d      	ldrb	r5, [r1, #5]
    1a50:	7989      	ldrb	r1, [r1, #6]
    1a52:	7155      	strb	r5, [r2, #5]
    1a54:	7191      	strb	r1, [r2, #6]
C:\toolchain\Teensyduino\current_fork\cores\teensy3/usb_dev.c:644
    1a56:	f000 80a5 	beq.w	1ba4 <usb_isr+0x794>
endpoint0_transmit():
C:\toolchain\Teensyduino\current_fork\cores\teensy3/usb_dev.c:165
    1a5a:	49a9      	ldr	r1, [pc, #676]	; (1d00 <usb_isr+0x8f0>)
C:\toolchain\Teensyduino\current_fork\cores\teensy3/usb_dev.c:166
    1a5c:	4ea9      	ldr	r6, [pc, #676]	; (1d04 <usb_isr+0x8f4>)
C:\toolchain\Teensyduino\current_fork\cores\teensy3/usb_dev.c:165
    1a5e:	780a      	ldrb	r2, [r1, #0]
C:\toolchain\Teensyduino\current_fork\cores\teensy3/usb_dev.c:166
    1a60:	7830      	ldrb	r0, [r6, #0]
C:\toolchain\Teensyduino\current_fork\cores\teensy3/usb_dev.c:168
    1a62:	f082 0501 	eor.w	r5, r2, #1
C:\toolchain\Teensyduino\current_fork\cores\teensy3/usb_dev.c:166
    1a66:	2800      	cmp	r0, #0
C:\toolchain\Teensyduino\current_fork\cores\teensy3/usb_dev.c:165
    1a68:	f042 0202 	orr.w	r2, r2, #2
C:\toolchain\Teensyduino\current_fork\cores\teensy3/usb_dev.c:168
    1a6c:	700d      	strb	r5, [r1, #0]
C:\toolchain\Teensyduino\current_fork\cores\teensy3/usb_dev.c:166
    1a6e:	bf0c      	ite	eq
    1a70:	2188      	moveq	r1, #136	; 0x88
    1a72:	21c8      	movne	r1, #200	; 0xc8
    1a74:	f849 1032 	str.w	r1, [r9, r2, lsl #3]
C:\toolchain\Teensyduino\current_fork\cores\teensy3/usb_dev.c:165
    1a78:	eb09 02c2 	add.w	r2, r9, r2, lsl #3
C:\toolchain\Teensyduino\current_fork\cores\teensy3/usb_dev.c:167
    1a7c:	f080 0001 	eor.w	r0, r0, #1
C:\toolchain\Teensyduino\current_fork\cores\teensy3/usb_dev.c:165
    1a80:	2100      	movs	r1, #0
C:\toolchain\Teensyduino\current_fork\cores\teensy3/usb_dev.c:167
    1a82:	7030      	strb	r0, [r6, #0]
C:\toolchain\Teensyduino\current_fork\cores\teensy3/usb_dev.c:165
    1a84:	6051      	str	r1, [r2, #4]
    1a86:	e5d4      	b.n	1632 <usb_isr+0x222>
usb_setup():
C:\toolchain\Teensyduino\current_fork\cores\teensy3/usb_dev.c:184
    1a88:	f240 3202 	movw	r2, #770	; 0x302
    1a8c:	4291      	cmp	r1, r2
    1a8e:	f040 808d 	bne.w	1bac <usb_isr+0x79c>
    1a92:	88a9      	ldrh	r1, [r5, #4]
    1a94:	f001 017f 	and.w	r1, r1, #127	; 0x7f
C:\toolchain\Teensyduino\current_fork\cores\teensy3/usb_dev.c:309
    1a98:	2904      	cmp	r1, #4
    1a9a:	f200 8092 	bhi.w	1bc2 <usb_isr+0x7b2>
    1a9e:	886a      	ldrh	r2, [r5, #2]
    1aa0:	2a00      	cmp	r2, #0
    1aa2:	f040 808e 	bne.w	1bc2 <usb_isr+0x7b2>
C:\toolchain\Teensyduino\current_fork\cores\teensy3/usb_dev.c:314
    1aa6:	4898      	ldr	r0, [pc, #608]	; (1d08 <usb_isr+0x8f8>)
    1aa8:	f8cd e004 	str.w	lr, [sp, #4]
    1aac:	0089      	lsls	r1, r1, #2
    1aae:	4408      	add	r0, r1
    1ab0:	7801      	ldrb	r1, [r0, #0]
    1ab2:	f041 0102 	orr.w	r1, r1, #2
    1ab6:	7001      	strb	r1, [r0, #0]
    1ab8:	e741      	b.n	193e <usb_isr+0x52e>
C:\toolchain\Teensyduino\current_fork\cores\teensy3/usb_dev.c:184
    1aba:	f242 2021 	movw	r0, #8737	; 0x2221
    1abe:	4281      	cmp	r1, r0
    1ac0:	d17b      	bne.n	1bba <usb_isr+0x7aa>
C:\toolchain\Teensyduino\current_fork\cores\teensy3/usb_dev.c:357
    1ac2:	88a9      	ldrh	r1, [r5, #4]
    1ac4:	2900      	cmp	r1, #0
    1ac6:	f040 80e4 	bne.w	1c92 <usb_isr+0x882>
C:\toolchain\Teensyduino\current_fork\cores\teensy3/usb_dev.c:360
    1aca:	4b90      	ldr	r3, [pc, #576]	; (1d0c <usb_isr+0x8fc>)
    1acc:	4a90      	ldr	r2, [pc, #576]	; (1d10 <usb_isr+0x900>)
C:\toolchain\Teensyduino\current_fork\cores\teensy3/usb_dev.c:361
    1ace:	4891      	ldr	r0, [pc, #580]	; (1d14 <usb_isr+0x904>)
    1ad0:	78ac      	ldrb	r4, [r5, #2]
C:\toolchain\Teensyduino\current_fork\cores\teensy3/usb_dev.c:360
    1ad2:	681d      	ldr	r5, [r3, #0]
    1ad4:	6015      	str	r5, [r2, #0]
C:\toolchain\Teensyduino\current_fork\cores\teensy3/usb_dev.c:361
    1ad6:	f8cd e004 	str.w	lr, [sp, #4]
    1ada:	460a      	mov	r2, r1
    1adc:	7004      	strb	r4, [r0, #0]
    1ade:	e72e      	b.n	193e <usb_isr+0x52e>
usb_isr():
C:\toolchain\Teensyduino\current_fork\cores\teensy3/usb_dev.c:1108
    1ae0:	4b8d      	ldr	r3, [pc, #564]	; (1d18 <usb_isr+0x908>)
C:\toolchain\Teensyduino\current_fork\cores\teensy3/usb_dev.c:1104
    1ae2:	488e      	ldr	r0, [pc, #568]	; (1d1c <usb_isr+0x90c>)
C:\toolchain\Teensyduino\current_fork\cores\teensy3/usb_dev.c:1105
    1ae4:	4986      	ldr	r1, [pc, #536]	; (1d00 <usb_isr+0x8f0>)
C:\toolchain\Teensyduino\current_fork\cores\teensy3/usb_dev.c:1112
    1ae6:	611a      	str	r2, [r3, #16]
C:\toolchain\Teensyduino\current_fork\cores\teensy3/usb_dev.c:1104
    1ae8:	f04f 0e02 	mov.w	lr, #2
    1aec:	f880 e000 	strb.w	lr, [r0]
C:\toolchain\Teensyduino\current_fork\cores\teensy3/usb_dev.c:1116
    1af0:	4f85      	ldr	r7, [pc, #532]	; (1d08 <usb_isr+0x8f8>)
C:\toolchain\Teensyduino\current_fork\cores\teensy3/usb_dev.c:1105
    1af2:	700a      	strb	r2, [r1, #0]
C:\toolchain\Teensyduino\current_fork\cores\teensy3/usb_dev.c:1108
    1af4:	498a      	ldr	r1, [pc, #552]	; (1d20 <usb_isr+0x910>)
    1af6:	6019      	str	r1, [r3, #0]
C:\toolchain\Teensyduino\current_fork\cores\teensy3/usb_dev.c:1110
    1af8:	6099      	str	r1, [r3, #8]
C:\toolchain\Teensyduino\current_fork\cores\teensy3/usb_dev.c:1119
    1afa:	4e8a      	ldr	r6, [pc, #552]	; (1d24 <usb_isr+0x914>)
C:\toolchain\Teensyduino\current_fork\cores\teensy3/usb_dev.c:1120
    1afc:	4d8a      	ldr	r5, [pc, #552]	; (1d28 <usb_isr+0x918>)
C:\toolchain\Teensyduino\current_fork\cores\teensy3/usb_dev.c:1123
    1afe:	4c8b      	ldr	r4, [pc, #556]	; (1d2c <usb_isr+0x91c>)
C:\toolchain\Teensyduino\current_fork\cores\teensy3/usb_dev.c:1113
    1b00:	619a      	str	r2, [r3, #24]
C:\toolchain\Teensyduino\current_fork\cores\teensy3/usb_dev.c:1116
    1b02:	210d      	movs	r1, #13
    1b04:	7039      	strb	r1, [r7, #0]
C:\toolchain\Teensyduino\current_fork\cores\teensy3/usb_dev.c:1119
    1b06:	21ff      	movs	r1, #255	; 0xff
    1b08:	7031      	strb	r1, [r6, #0]
C:\toolchain\Teensyduino\current_fork\cores\teensy3/usb_dev.c:1126
    1b0a:	f8df e240 	ldr.w	lr, [pc, #576]	; 1d4c <usb_isr+0x93c>
C:\toolchain\Teensyduino\current_fork\cores\teensy3/usb_dev.c:1120
    1b0e:	7029      	strb	r1, [r5, #0]
C:\toolchain\Teensyduino\current_fork\cores\teensy3/usb_dev.c:1123
    1b10:	7022      	strb	r2, [r4, #0]
C:\toolchain\Teensyduino\current_fork\cores\teensy3/usb_dev.c:1109
    1b12:	4d87      	ldr	r5, [pc, #540]	; (1d30 <usb_isr+0x920>)
C:\toolchain\Teensyduino\current_fork\cores\teensy3/usb_dev.c:1111
    1b14:	4a87      	ldr	r2, [pc, #540]	; (1d34 <usb_isr+0x924>)
C:\toolchain\Teensyduino\current_fork\cores\teensy3/usb_dev.c:1126
    1b16:	f88e 1000 	strb.w	r1, [lr]
C:\toolchain\Teensyduino\current_fork\cores\teensy3/usb_dev.c:1127
    1b1a:	279f      	movs	r7, #159	; 0x9f
C:\toolchain\Teensyduino\current_fork\cores\teensy3/usb_dev.c:1135
    1b1c:	2401      	movs	r4, #1
C:\toolchain\Teensyduino\current_fork\cores\teensy3/usb_dev.c:1127
    1b1e:	f806 7c04 	strb.w	r7, [r6, #-4]
C:\toolchain\Teensyduino\current_fork\cores\teensy3/usb_dev.c:1109
    1b22:	605d      	str	r5, [r3, #4]
C:\toolchain\Teensyduino\current_fork\cores\teensy3/usb_dev.c:1135
    1b24:	7004      	strb	r4, [r0, #0]
C:\toolchain\Teensyduino\current_fork\cores\teensy3/usb_dev.c:1111
    1b26:	60da      	str	r2, [r3, #12]
C:\toolchain\Teensyduino\current_fork\cores\teensy3/usb_dev.c:1159
    1b28:	b007      	add	sp, #28
    1b2a:	e8bd 8ff0 	ldmia.w	sp!, {r4, r5, r6, r7, r8, r9, sl, fp, pc}
C:\toolchain\Teensyduino\current_fork\cores\teensy3/usb_dev.c:1040
    1b2e:	2300      	movs	r3, #0
    1b30:	558b      	strb	r3, [r1, r6]
C:\toolchain\Teensyduino\current_fork\cores\teensy3/usb_dev.c:1041
    1b32:	e4b7      	b.n	14a4 <usb_isr+0x94>
C:\toolchain\Teensyduino\current_fork\cores\teensy3/usb_dev.c:1043
    1b34:	2301      	movs	r3, #1
    1b36:	558b      	strb	r3, [r1, r6]
C:\toolchain\Teensyduino\current_fork\cores\teensy3/usb_dev.c:1044
    1b38:	e4b4      	b.n	14a4 <usb_isr+0x94>
usb_setup():
C:\toolchain\Teensyduino\current_fork\cores\teensy3/usb_dev.c:221
    1b3a:	f04f 0300 	mov.w	r3, #0
    1b3e:	f888 3000 	strb.w	r3, [r8]
    1b42:	e6b7      	b.n	18b4 <usb_isr+0x4a4>
usb_isr():
C:\toolchain\Teensyduino\current_fork\cores\teensy3/usb_dev.c:1142
    1b44:	4970      	ldr	r1, [pc, #448]	; (1d08 <usb_isr+0x8f8>)
C:\toolchain\Teensyduino\current_fork\cores\teensy3/usb_dev.c:1143
    1b46:	4b78      	ldr	r3, [pc, #480]	; (1d28 <usb_isr+0x918>)
    1b48:	2280      	movs	r2, #128	; 0x80
C:\toolchain\Teensyduino\current_fork\cores\teensy3/usb_dev.c:1142
    1b4a:	200d      	movs	r0, #13
    1b4c:	7008      	strb	r0, [r1, #0]
C:\toolchain\Teensyduino\current_fork\cores\teensy3/usb_dev.c:1143
    1b4e:	701a      	strb	r2, [r3, #0]
C:\toolchain\Teensyduino\current_fork\cores\teensy3/usb_dev.c:1145
    1b50:	07a2      	lsls	r2, r4, #30
    1b52:	f57f adb7 	bpl.w	16c4 <usb_isr+0x2b4>
    1b56:	e5ae      	b.n	16b6 <usb_isr+0x2a6>
usb_setup():
C:\toolchain\Teensyduino\current_fork\cores\teensy3/usb_dev.c:279
    1b58:	4c77      	ldr	r4, [pc, #476]	; (1d38 <usb_isr+0x928>)
C:\toolchain\Teensyduino\current_fork\cores\teensy3/usb_dev.c:281
    1b5a:	f04f 0e02 	mov.w	lr, #2
C:\toolchain\Teensyduino\current_fork\cores\teensy3/usb_dev.c:279
    1b5e:	7022      	strb	r2, [r4, #0]
C:\toolchain\Teensyduino\current_fork\cores\teensy3/usb_dev.c:280
    1b60:	7062      	strb	r2, [r4, #1]
C:\toolchain\Teensyduino\current_fork\cores\teensy3/usb_dev.c:511
    1b62:	88ea      	ldrh	r2, [r5, #6]
    1b64:	4572      	cmp	r2, lr
    1b66:	f080 81a3 	bcs.w	1eb0 <usb_isr+0xaa0>
endpoint0_transmit():
C:\toolchain\Teensyduino\current_fork\cores\teensy3/usb_dev.c:165
    1b6a:	4965      	ldr	r1, [pc, #404]	; (1d00 <usb_isr+0x8f0>)
    1b6c:	780d      	ldrb	r5, [r1, #0]
    1b6e:	2a40      	cmp	r2, #64	; 0x40
    1b70:	4694      	mov	ip, r2
    1b72:	f045 0e02 	orr.w	lr, r5, #2
